; Listing generated by Microsoft (R) Optimizing Compiler Version 15.00.30729.01 

	TITLE	c:\Users\Admin\Desktop\Projects\SEye_Server\engine_obj2.cpp
	.686P
	.XMM
	include listing.inc
	.model	flat

INCLUDELIB OLDNAMES

PUBLIC	?InsideMe@@3PAXA				; InsideMe
PUBLIC	?Grant_Supplies@@3PAXA				; Grant_Supplies
PUBLIC	?SpawnCharGDI@@3PADA				; SpawnCharGDI
PUBLIC	?ToggleFly@@3P6AXXZA				; ToggleFly
PUBLIC	?overlap@@3PAXA					; overlap
PUBLIC	?SoldierReInit@@3P6AXPAVDefinitionClass@@@ZA	; SoldierReInit
PUBLIC	?Create_Library_Object@@3P6APAEPBD@ZA		; Create_Library_Object
PUBLIC	?SpawnCharNod@@3PADA				; SpawnCharNod
PUBLIC	?Is_Available_For_Purchase@@3P6A_NXZA		; Is_Available_For_Purchase
PUBLIC	?GetVehicleCount@@3P6AIXZA			; GetVehicleCount
PUBLIC	?FindClosestZone@@3PAXA				; FindClosestZone
PUBLIC	?Request_Vehicle@@3P6A_NHMPAE@ZA		; Request_Vehicle
PUBLIC	?CheckTransitions@@3PAXA			; CheckTransitions
?InsideMe@@3PAXA DD 01H DUP (?)				; InsideMe
?Grant_Supplies@@3PAXA DD 01H DUP (?)			; Grant_Supplies
?SpawnCharGDI@@3PADA DD 01H DUP (?)			; SpawnCharGDI
?ToggleFly@@3P6AXXZA DD 01H DUP (?)			; ToggleFly
?overlap@@3PAXA DD 01H DUP (?)				; overlap
?SoldierReInit@@3P6AXPAVDefinitionClass@@@ZA DD 01H DUP (?) ; SoldierReInit
?Create_Library_Object@@3P6APAEPBD@ZA DD 01H DUP (?)	; Create_Library_Object
?SpawnCharNod@@3PADA DD 01H DUP (?)			; SpawnCharNod
?Is_Available_For_Purchase@@3P6A_NXZA DD 01H DUP (?)	; Is_Available_For_Purchase
?GetVehicleCount@@3P6AIXZA DD 01H DUP (?)		; GetVehicleCount
?FindClosestZone@@3PAXA DD 01H DUP (?)			; FindClosestZone
?Request_Vehicle@@3P6A_NHMPAE@ZA DD 01H DUP (?)		; Request_Vehicle
?CheckTransitions@@3PAXA DD 01H DUP (?)			; CheckTransitions
PUBLIC	?InitEngineObj2@@YAXI@Z				; InitEngineObj2
; Function compile flags: /Ogtpy
; File c:\users\admin\desktop\projects\seye_server\engine_obj2.cpp
;	COMDAT ?InitEngineObj2@@YAXI@Z
_TEXT	SEGMENT
?InitEngineObj2@@YAXI@Z PROC				; InitEngineObj2, COMDAT

; 68   : {

	mov	eax, DWORD PTR ?Exe@@3HA		; Exe

; 69   : 	switch(exe)

	cmp	eax, 3
	ja	$LN1@InitEngine@7
	jmp	DWORD PTR $LN10@InitEngine@7[eax*4]
$LN5@InitEngine@7:

; 70   : 	{
; 71   : 		case 0: //game.exe
; 72   : 			overlap = (void *)0x00616B90;

	mov	DWORD PTR ?overlap@@3PAXA, 6384528	; overlap, 00616b90H

; 73   : 			Create_Library_Object = (CreateLibraryObject)0x006C6420;

	mov	DWORD PTR ?Create_Library_Object@@3P6APAEPBD@ZA, 7103520 ; Create_Library_Object, 006c6420H

; 74   : 			FindClosestZone = (void *)0x00722B90;

	mov	DWORD PTR ?FindClosestZone@@3PAXA, 7482256 ; FindClosestZone, 00722b90H

; 75   : 			InsideMe = (void *)0x00722B40;

	mov	DWORD PTR ?InsideMe@@3PAXA, 7482176	; InsideMe, 00722b40H

; 76   : 			Grant_Supplies = (void *)0x00470AC0;

	mov	DWORD PTR ?Grant_Supplies@@3PAXA, 4655808 ; Grant_Supplies, 00470ac0H

; 77   : 			SoldierReInit = (ReInit)0x006C7410;

	mov	DWORD PTR ?SoldierReInit@@3P6AXPAVDefinitionClass@@@ZA, 7107600 ; SoldierReInit, 006c7410H

; 78   : 			Is_Available_For_Purchase = (IsAvailable)0x006EE010;

	mov	DWORD PTR ?Is_Available_For_Purchase@@3P6A_NXZA, 7266320 ; Is_Available_For_Purchase, 006ee010H

; 79   : 			Request_Vehicle = (RequestVehicle)0x006EE1A0;

	mov	DWORD PTR ?Request_Vehicle@@3P6A_NHMPAE@ZA, 7266720 ; Request_Vehicle, 006ee1a0H

; 80   : 			ToggleFly = (ToggleFlyMode)0x006CFC80;

	mov	DWORD PTR ?ToggleFly@@3P6AXXZA, 7142528	; ToggleFly, 006cfc80H

; 81   : 			CheckTransitions = (void *)0x006D55C0;

	mov	DWORD PTR ?CheckTransitions@@3PAXA, 7165376 ; CheckTransitions, 006d55c0H

; 82   : 			GetVehicleCount = (GetCount)0x006EE060;

	mov	DWORD PTR ?GetVehicleCount@@3P6AIXZA, 7266400 ; GetVehicleCount, 006ee060H

; 83   : 			SpawnCharGDI = (char *)0x007F5428;

	mov	DWORD PTR ?SpawnCharGDI@@3PADA, 8344616	; SpawnCharGDI, 007f5428H

; 84   : 			SpawnCharNod = (char *)0x007F5440;

	mov	DWORD PTR ?SpawnCharNod@@3PADA, 8344640	; SpawnCharNod, 007f5440H

; 145  : 			break;
; 146  : 	}
; 147  : }

	ret	0
$LN4@InitEngine@7:

; 85   : 			break;
; 86   : 		case 1: //server.dat
; 87   : 			overlap = (void *)0x00616430;

	mov	DWORD PTR ?overlap@@3PAXA, 6382640	; overlap, 00616430H

; 88   : 			Create_Library_Object = (CreateLibraryObject)0x006C5CC0;

	mov	DWORD PTR ?Create_Library_Object@@3P6APAEPBD@ZA, 7101632 ; Create_Library_Object, 006c5cc0H

; 89   : 			FindClosestZone = (void *)0x00722150;

	mov	DWORD PTR ?FindClosestZone@@3PAXA, 7479632 ; FindClosestZone, 00722150H

; 90   : 			InsideMe = (void *)0x00722100;

	mov	DWORD PTR ?InsideMe@@3PAXA, 7479552	; InsideMe, 00722100H

; 91   : 			Grant_Supplies = (void *)0x00470230;

	mov	DWORD PTR ?Grant_Supplies@@3PAXA, 4653616 ; Grant_Supplies, 00470230H

; 92   : 			SoldierReInit = (ReInit)0x006C6CB0;

	mov	DWORD PTR ?SoldierReInit@@3P6AXPAVDefinitionClass@@@ZA, 7105712 ; SoldierReInit, 006c6cb0H

; 93   : 			Is_Available_For_Purchase = (IsAvailable)0x006ED5D0;

	mov	DWORD PTR ?Is_Available_For_Purchase@@3P6A_NXZA, 7263696 ; Is_Available_For_Purchase, 006ed5d0H

; 94   : 			Request_Vehicle = (RequestVehicle)0x006ED760;

	mov	DWORD PTR ?Request_Vehicle@@3P6A_NHMPAE@ZA, 7264096 ; Request_Vehicle, 006ed760H

; 95   : 			ToggleFly = (ToggleFlyMode)0x006CF520;

	mov	DWORD PTR ?ToggleFly@@3P6AXXZA, 7140640	; ToggleFly, 006cf520H

; 96   : 			CheckTransitions = (void *)0x006D4E60;

	mov	DWORD PTR ?CheckTransitions@@3PAXA, 7163488 ; CheckTransitions, 006d4e60H

; 97   : 			GetVehicleCount = (GetCount)0x006ED620;

	mov	DWORD PTR ?GetVehicleCount@@3P6AIXZA, 7263776 ; GetVehicleCount, 006ed620H

; 98   : 			SpawnCharGDI = (char *)0x007F442C;

	mov	DWORD PTR ?SpawnCharGDI@@3PADA, 8340524	; SpawnCharGDI, 007f442cH

; 99   : 			SpawnCharNod = (char *)0x007F4444;

	mov	DWORD PTR ?SpawnCharNod@@3PADA, 8340548	; SpawnCharNod, 007f4444H

; 145  : 			break;
; 146  : 	}
; 147  : }

	ret	0
$LN3@InitEngine@7:

; 100  : 			break;
; 101  : 		case 2: //RH73
; 102  : 			overlap = (void *)0x083257A0;

	mov	DWORD PTR ?overlap@@3PAXA, 137516960	; overlap, 083257a0H

; 103  : 			Create_Library_Object = (CreateLibraryObject)0x0813868C;

	mov	DWORD PTR ?Create_Library_Object@@3P6APAEPBD@ZA, 135497356 ; Create_Library_Object, 0813868cH

; 104  : 			FindClosestZone = (void *)0x08156204;

	mov	DWORD PTR ?FindClosestZone@@3PAXA, 135619076 ; FindClosestZone, 08156204H

; 105  : 			InsideMe = (void *)0x081561B0;

	mov	DWORD PTR ?InsideMe@@3PAXA, 135618992	; InsideMe, 081561b0H

; 106  : 			Grant_Supplies = (void *)0x080C472C;

	mov	DWORD PTR ?Grant_Supplies@@3PAXA, 135022380 ; Grant_Supplies, 080c472cH

; 107  : 			SoldierReInit = (ReInit)0x0815C23C;

	mov	DWORD PTR ?SoldierReInit@@3P6AXPAVDefinitionClass@@@ZA, 135643708 ; SoldierReInit, 0815c23cH

; 108  : 			Is_Available_For_Purchase = (IsAvailable)0x0818C8C4;

	mov	DWORD PTR ?Is_Available_For_Purchase@@3P6A_NXZA, 135841988 ; Is_Available_For_Purchase, 0818c8c4H

; 109  : 			Request_Vehicle = (RequestVehicle)0x0818CAF0;

	mov	DWORD PTR ?Request_Vehicle@@3P6A_NHMPAE@ZA, 135842544 ; Request_Vehicle, 0818caf0H

; 110  : 			ToggleFly = (ToggleFlyMode)0x08168740;

	mov	DWORD PTR ?ToggleFly@@3P6AXXZA, 135694144 ; ToggleFly, 08168740H

; 111  : 			CheckTransitions = (void *)0x0817EDAC;

	mov	DWORD PTR ?CheckTransitions@@3PAXA, 135785900 ; CheckTransitions, 0817edacH

; 112  : 			GetVehicleCount = (GetCount)0x0818C900;

	mov	DWORD PTR ?GetVehicleCount@@3P6AIXZA, 135842048 ; GetVehicleCount, 0818c900H

; 113  : 			SpawnCharGDI = (char *)0x086151D5;

	mov	DWORD PTR ?SpawnCharGDI@@3PADA, 140595669 ; SpawnCharGDI, 086151d5H

; 114  : 			SpawnCharNod = (char *)0x086151C0;

	mov	DWORD PTR ?SpawnCharNod@@3PADA, 140595648 ; SpawnCharNod, 086151c0H

; 145  : 			break;
; 146  : 	}
; 147  : }

	ret	0
$LN2@InitEngine@7:

; 115  : 			break;
; 116  : 		case 3: //RH8
; 117  : 			overlap = (void *)0x082E22F0;

	mov	DWORD PTR ?overlap@@3PAXA, 137241328	; overlap, 082e22f0H

; 118  : 			Create_Library_Object = (CreateLibraryObject)0x081287B6;

	mov	DWORD PTR ?Create_Library_Object@@3P6APAEPBD@ZA, 135432118 ; Create_Library_Object, 081287b6H

; 119  : 			FindClosestZone = (void *)0x08143F90;

	mov	DWORD PTR ?FindClosestZone@@3PAXA, 135544720 ; FindClosestZone, 08143f90H

; 120  : 			InsideMe = (void *)0x08143F44;

	mov	DWORD PTR ?InsideMe@@3PAXA, 135544644	; InsideMe, 08143f44H

; 121  : 			Grant_Supplies = (void *)0x080BC8D8;

	mov	DWORD PTR ?Grant_Supplies@@3PAXA, 134990040 ; Grant_Supplies, 080bc8d8H

; 122  : 			SoldierReInit = (ReInit)0x0814A676;

	mov	DWORD PTR ?SoldierReInit@@3P6AXPAVDefinitionClass@@@ZA, 135571062 ; SoldierReInit, 0814a676H

; 123  : 			Is_Available_For_Purchase = (IsAvailable)0x008175F7A;

	mov	DWORD PTR ?Is_Available_For_Purchase@@3P6A_NXZA, 135749498 ; Is_Available_For_Purchase, 08175f7aH

; 124  : 			Request_Vehicle = (RequestVehicle)0x08176184;

	mov	DWORD PTR ?Request_Vehicle@@3P6A_NHMPAE@ZA, 135750020 ; Request_Vehicle, 08176184H

; 125  : 			ToggleFly = (ToggleFlyMode)0x08155762;

	mov	DWORD PTR ?ToggleFly@@3P6AXXZA, 135616354 ; ToggleFly, 08155762H

; 126  : 			CheckTransitions = (void *)0x08169ADC;

	mov	DWORD PTR ?CheckTransitions@@3PAXA, 135699164 ; CheckTransitions, 08169adcH

; 127  : 			GetVehicleCount = (GetCount)0x08175FBE;

	mov	DWORD PTR ?GetVehicleCount@@3P6AIXZA, 135749566 ; GetVehicleCount, 08175fbeH

; 128  : 			SpawnCharGDI = (char *)0x084FB353;

	mov	DWORD PTR ?SpawnCharGDI@@3PADA, 139440979 ; SpawnCharGDI, 084fb353H

; 129  : 			SpawnCharNod = (char *)0x084FB33E;

	mov	DWORD PTR ?SpawnCharNod@@3PADA, 139440958 ; SpawnCharNod, 084fb33eH

; 145  : 			break;
; 146  : 	}
; 147  : }

	ret	0
$LN1@InitEngine@7:

; 130  : 			break;
; 131  : 		default:
; 132  : 			overlap = (void *)0;

	xor	eax, eax
	mov	DWORD PTR ?overlap@@3PAXA, eax		; overlap

; 133  : 			Create_Library_Object = (CreateLibraryObject)0;

	mov	DWORD PTR ?Create_Library_Object@@3P6APAEPBD@ZA, eax ; Create_Library_Object

; 134  : 			FindClosestZone = (void *)0;

	mov	DWORD PTR ?FindClosestZone@@3PAXA, eax	; FindClosestZone

; 135  : 			InsideMe = (void *)0;

	mov	DWORD PTR ?InsideMe@@3PAXA, eax		; InsideMe

; 136  : 			Grant_Supplies = (void *)0;

	mov	DWORD PTR ?Grant_Supplies@@3PAXA, eax	; Grant_Supplies

; 137  : 			SoldierReInit = (ReInit)0;

	mov	DWORD PTR ?SoldierReInit@@3P6AXPAVDefinitionClass@@@ZA, eax ; SoldierReInit

; 138  : 			Is_Available_For_Purchase = (IsAvailable)0;

	mov	DWORD PTR ?Is_Available_For_Purchase@@3P6A_NXZA, eax ; Is_Available_For_Purchase

; 139  : 			Request_Vehicle = (RequestVehicle)0;

	mov	DWORD PTR ?Request_Vehicle@@3P6A_NHMPAE@ZA, eax ; Request_Vehicle

; 140  : 			ToggleFly = (ToggleFlyMode)0;

	mov	DWORD PTR ?ToggleFly@@3P6AXXZA, eax	; ToggleFly

; 141  : 			CheckTransitions = (void *)0;

	mov	DWORD PTR ?CheckTransitions@@3PAXA, eax	; CheckTransitions

; 142  : 			GetVehicleCount = (GetCount)0;

	mov	DWORD PTR ?GetVehicleCount@@3P6AIXZA, eax ; GetVehicleCount

; 143  : 			SpawnCharGDI = (char *)0;

	mov	DWORD PTR ?SpawnCharGDI@@3PADA, eax	; SpawnCharGDI

; 144  : 			SpawnCharNod = (char *)0;

	mov	DWORD PTR ?SpawnCharNod@@3PADA, eax	; SpawnCharNod

; 145  : 			break;
; 146  : 	}
; 147  : }

	ret	0
	npad	3
$LN10@InitEngine@7:
	DD	$LN5@InitEngine@7
	DD	$LN4@InitEngine@7
	DD	$LN3@InitEngine@7
	DD	$LN2@InitEngine@7
?InitEngineObj2@@YAXI@Z ENDP				; InitEngineObj2
PUBLIC	?Get_Vehicle_Driver@@YAPAEPAE@Z			; Get_Vehicle_Driver
; Function compile flags: /Ogtpy
;	COMDAT ?Get_Vehicle_Driver@@YAPAEPAE@Z
_TEXT	SEGMENT
?Get_Vehicle_Driver@@YAPAEPAE@Z PROC			; Get_Vehicle_Driver, COMDAT
; _obj$ = esi

; 340  : 	if (!Commands->Get_ID(obj) || !obj || !As_VehicleGameObj(obj))

	mov	eax, DWORD PTR ?Commands@@3PAUScriptCommands@@A ; Commands
	mov	ecx, DWORD PTR [eax+108]
	push	esi
	call	ecx
	add	esp, 4
	test	eax, eax
	je	SHORT $LN2@Get_Vehicl
	test	esi, esi
	je	SHORT $LN2@Get_Vehicl
	mov	edx, DWORD PTR ?Commands@@3PAUScriptCommands@@A ; Commands
	mov	eax, DWORD PTR [edx+108]
	push	esi
	call	eax
	add	esp, 4
	test	eax, eax
	je	SHORT $LN2@Get_Vehicl
	mov	edx, DWORD PTR [esi]
	mov	eax, DWORD PTR [edx+40]
	mov	ecx, esi
	call	eax
	test	eax, eax
	je	SHORT $LN2@Get_Vehicl

; 343  : 	}
; 344  : 	VectorClass<GameObject *> *ptr = (VectorClass<GameObject *>*)(obj+0x9AC);
; 345  : 	VectorClass<GameObject *> occupants = (VectorClass<GameObject *>)*ptr;
; 346  : 	if (occupants.Length() <= 0)

	cmp	DWORD PTR [esi+2484], 0
	mov	eax, DWORD PTR [esi+2480]

; 347  : 	{
; 348  : 		return 0;

	jle	SHORT $LN2@Get_Vehicl

; 349  : 	}
; 350  : 	return occupants[0];

	mov	eax, DWORD PTR [eax]

; 351  : }

	ret	0
$LN2@Get_Vehicl:

; 341  : 	{
; 342  : 		return 0;

	xor	eax, eax

; 351  : }

	ret	0
?Get_Vehicle_Driver@@YAPAEPAE@Z ENDP			; Get_Vehicle_Driver
_TEXT	ENDS
PUBLIC	?Get_Vehicle_Occupant@@YAPAEPAEH@Z		; Get_Vehicle_Occupant
; Function compile flags: /Ogtpy
;	COMDAT ?Get_Vehicle_Occupant@@YAPAEPAEH@Z
_TEXT	SEGMENT
?Get_Vehicle_Occupant@@YAPAEPAEH@Z PROC			; Get_Vehicle_Occupant, COMDAT
; _obj$ = esi
; _seat$ = edi

; 325  : 	if (!Commands->Get_ID(obj) || !obj || !As_VehicleGameObj(obj))

	mov	eax, DWORD PTR ?Commands@@3PAUScriptCommands@@A ; Commands
	mov	ecx, DWORD PTR [eax+108]
	push	esi
	call	ecx
	add	esp, 4
	test	eax, eax
	je	SHORT $LN2@Get_Vehicl@2
	test	esi, esi
	je	SHORT $LN2@Get_Vehicl@2
	mov	edx, DWORD PTR ?Commands@@3PAUScriptCommands@@A ; Commands
	mov	eax, DWORD PTR [edx+108]
	push	esi
	call	eax
	add	esp, 4
	test	eax, eax
	je	SHORT $LN2@Get_Vehicl@2
	mov	edx, DWORD PTR [esi]
	mov	eax, DWORD PTR [edx+40]
	mov	ecx, esi
	call	eax
	test	eax, eax
	je	SHORT $LN2@Get_Vehicl@2

; 328  : 	}
; 329  : 	VectorClass<GameObject *> *ptr = (VectorClass<GameObject *>*)(obj+0x9AC);
; 330  : 	VectorClass<GameObject *> occupants = (VectorClass<GameObject *>)*ptr;
; 331  : 	if (seat >= occupants.Length())

	cmp	edi, DWORD PTR [esi+2484]
	mov	eax, DWORD PTR [esi+2480]

; 332  : 	{
; 333  : 		return 0;

	jge	SHORT $LN2@Get_Vehicl@2

; 334  : 	}
; 335  : 	return occupants[seat];

	mov	eax, DWORD PTR [eax+edi*4]

; 336  : }

	ret	0
$LN2@Get_Vehicl@2:

; 326  : 	{
; 327  : 		return 0;

	xor	eax, eax

; 336  : }

	ret	0
?Get_Vehicle_Occupant@@YAPAEPAEH@Z ENDP			; Get_Vehicle_Occupant
_TEXT	ENDS
PUBLIC	?Get_Vehicle@@YAPAEPAE@Z			; Get_Vehicle
; Function compile flags: /Ogtpy
;	COMDAT ?Get_Vehicle@@YAPAEPAE@Z
_TEXT	SEGMENT
?Get_Vehicle@@YAPAEPAE@Z PROC				; Get_Vehicle, COMDAT
; _obj$ = eax

; 150  : {

	push	esi
	mov	esi, eax

; 151  : 	if (!Commands->Get_ID(obj) || !obj)

	mov	eax, DWORD PTR ?Commands@@3PAUScriptCommands@@A ; Commands
	mov	ecx, DWORD PTR [eax+108]
	push	esi
	call	ecx
	add	esp, 4
	test	eax, eax
	je	SHORT $LN3@Get_Vehicl@3
	test	esi, esi
	je	SHORT $LN3@Get_Vehicl@3

; 154  : 	}
; 155  : 	GameObject *o = As_SoldierGameObj(obj);

	mov	edx, DWORD PTR ?Commands@@3PAUScriptCommands@@A ; Commands
	mov	eax, DWORD PTR [edx+108]
	push	esi
	call	eax
	add	esp, 4
	test	eax, eax
	je	SHORT $LN3@Get_Vehicl@3
	mov	edx, DWORD PTR [esi]
	mov	eax, DWORD PTR [edx+68]
	mov	ecx, esi
	call	eax

; 156  : 	if (o)

	test	eax, eax
	je	SHORT $LN3@Get_Vehicl@3

; 157  : 	{
; 158  : 		char *c = (char *)o;
; 159  : 		c += 0x98C;
; 160  : 		unsigned long *l = (unsigned long *)c;
; 161  : 		GameObject *vehicle = (GameObject *)*l;

	mov	eax, DWORD PTR [eax+2444]

; 162  : 		if (vehicle)

	test	eax, eax
	je	SHORT $LN3@Get_Vehicl@3

; 163  : 		{
; 164  : 			GameObject *v = As_VehicleGameObj(vehicle);

	mov	esi, eax
	call	?As_VehicleGameObj@@YAPAEPAE@Z		; As_VehicleGameObj
	pop	esi

; 165  : 			return v;
; 166  : 		}
; 167  : 		return 0;
; 168  : 	}
; 169  : 	return 0;
; 170  : }

	ret	0
$LN3@Get_Vehicl@3:

; 152  : 	{
; 153  : 		return 0;

	xor	eax, eax
	pop	esi

; 165  : 			return v;
; 166  : 		}
; 167  : 		return 0;
; 168  : 	}
; 169  : 	return 0;
; 170  : }

	ret	0
?Get_Vehicle@@YAPAEPAE@Z ENDP				; Get_Vehicle
PUBLIC	?Get_Vehicle_Mode@@YAIPAE@Z			; Get_Vehicle_Mode
; Function compile flags: /Ogtpy
;	COMDAT ?Get_Vehicle_Mode@@YAIPAE@Z
_TEXT	SEGMENT
?Get_Vehicle_Mode@@YAIPAE@Z PROC			; Get_Vehicle_Mode, COMDAT
; _obj$ = eax

; 523  : {

	push	esi
	mov	esi, eax

; 524  : 	if (!Commands->Get_ID(obj) || !obj)

	mov	eax, DWORD PTR ?Commands@@3PAUScriptCommands@@A ; Commands
	mov	ecx, DWORD PTR [eax+108]
	push	esi
	call	ecx
	add	esp, 4
	test	eax, eax
	je	SHORT $LN4@Get_Vehicl@4
	test	esi, esi
	je	SHORT $LN4@Get_Vehicl@4

; 527  : 	}
; 528  : 	GameObject *o = As_VehicleGameObj(obj);

	mov	edx, DWORD PTR ?Commands@@3PAUScriptCommands@@A ; Commands
	mov	eax, DWORD PTR [edx+108]
	push	esi
	call	eax
	add	esp, 4
	test	eax, eax
	je	SHORT $LN16@Get_Vehicl@4
	mov	edx, DWORD PTR [esi]
	mov	eax, DWORD PTR [edx+40]
	mov	ecx, esi
	call	eax

; 529  : 	if (!o)

	test	eax, eax
	jne	SHORT $LN1@Get_Vehicl@4
$LN16@Get_Vehicl@4:

; 530  : 	{
; 531  : 		if (!Get_Vehicle(obj))

	mov	eax, esi
	call	?Get_Vehicle@@YAPAEPAE@Z		; Get_Vehicle
	test	eax, eax

; 532  : 		{
; 533  : 			return 0;

	je	SHORT $LN4@Get_Vehicl@4

; 534  : 		}
; 535  : 		else 
; 536  : 		{
; 537  : 			obj = Get_Vehicle(obj);

	mov	eax, esi
	call	?Get_Vehicle@@YAPAEPAE@Z		; Get_Vehicle
	mov	esi, eax
$LN1@Get_Vehicl@4:

; 538  : 		}
; 539  : 	}
; 540  : 	DefinitionClass *d = Get_Definition(obj);

	mov	ecx, DWORD PTR ?Commands@@3PAUScriptCommands@@A ; Commands
	mov	edx, DWORD PTR [ecx+108]
	push	esi
	call	edx
	add	esp, 4
	test	eax, eax
	je	SHORT $LN12@Get_Vehicl@4
	test	esi, esi
	je	SHORT $LN12@Get_Vehicl@4
	mov	esi, DWORD PTR [esi+1724]

; 541  : 	char *c = (char *)d;
; 542  : 	c += 0xE0;
; 543  : 	return *(unsigned int *)c;

	mov	eax, DWORD PTR [esi+224]
	pop	esi

; 544  : }

	ret	0

; 538  : 		}
; 539  : 	}
; 540  : 	DefinitionClass *d = Get_Definition(obj);

$LN12@Get_Vehicl@4:
	xor	esi, esi

; 541  : 	char *c = (char *)d;
; 542  : 	c += 0xE0;
; 543  : 	return *(unsigned int *)c;

	mov	eax, DWORD PTR [esi+224]
	pop	esi

; 544  : }

	ret	0
$LN4@Get_Vehicl@4:

; 525  : 	{
; 526  : 		return 0;

	xor	eax, eax
	pop	esi

; 544  : }

	ret	0
?Get_Vehicle_Mode@@YAIPAE@Z ENDP			; Get_Vehicle_Mode
END
