; Listing generated by Microsoft (R) Optimizing Compiler Version 15.00.30729.01 

	TITLE	c:\Users\Admin\Desktop\Projects\SEye_Server\engine_weap.cpp
	.686P
	.XMM
	include listing.inc
	.model	flat

INCLUDELIB OLDNAMES

PUBLIC	?C4Defuse@@3PAXA				; C4Defuse
PUBLIC	?GetBeaconOwner@@3PAXA				; GetBeaconOwner
PUBLIC	?Mine_Limit@@3PADA				; Mine_Limit
?C4Defuse@@3PAXA DD 01H DUP (?)				; C4Defuse
?GetBeaconOwner@@3PAXA DD 01H DUP (?)			; GetBeaconOwner
?Mine_Limit@@3PADA DD 01H DUP (?)			; Mine_Limit
PUBLIC	?Get_C4_Attached@@YAPAEPAE@Z			; Get_C4_Attached
; Function compile flags: /Ogtpy
; File c:\users\admin\desktop\projects\seye_server\engine_weap.cpp
;	COMDAT ?Get_C4_Attached@@YAPAEPAE@Z
_TEXT	SEGMENT
?Get_C4_Attached@@YAPAEPAE@Z PROC			; Get_C4_Attached, COMDAT
; _obj$ = esi

; 1425 : 	if (!Commands->Get_ID(obj) || !obj)

	mov	eax, DWORD PTR ?Commands@@3PAUScriptCommands@@A ; Commands
	mov	ecx, DWORD PTR [eax+108]
	push	esi
	call	ecx
	add	esp, 4
	test	eax, eax
	je	SHORT $LN4@Get_C4_Att
	test	esi, esi
	je	SHORT $LN4@Get_C4_Att

; 1428 : 	}
; 1429 : 	PhysicalGameObj *o2 = ((ScriptableGameObj *)obj)->As_PhysicalGameObj();

	mov	edx, DWORD PTR [esi]
	mov	eax, DWORD PTR [edx+36]
	mov	ecx, esi
	call	eax

; 1430 : 	if (!o2)

	test	eax, eax

; 1431 : 	{
; 1432 : 		return 0;

	je	SHORT $LN4@Get_C4_Att

; 1433 : 	}
; 1434 : 	C4GameObj *o3 = o2->As_C4GameObj();

	mov	edx, DWORD PTR [eax]
	mov	ecx, eax
	mov	eax, DWORD PTR [edx+140]
	call	eax

; 1435 : 	if (!o3)

	test	eax, eax

; 1436 : 	{
; 1437 : 		return 0;

	je	SHORT $LN4@Get_C4_Att

; 1438 : 	}
; 1439 : 	if (o3->Attached.Reference)

	mov	eax, DWORD PTR [eax+2012]
	test	eax, eax
	je	SHORT $LN4@Get_C4_Att

; 1440 : 	{
; 1441 : 		return (GameObject *)o3->Attached.Reference->obj;

	mov	eax, DWORD PTR [eax+4]

; 1442 : 	}
; 1443 : 	return 0;
; 1444 : }

	ret	0
$LN4@Get_C4_Att:

; 1426 : 	{
; 1427 : 		return 0;

	xor	eax, eax

; 1442 : 	}
; 1443 : 	return 0;
; 1444 : }

	ret	0
?Get_C4_Attached@@YAPAEPAE@Z ENDP			; Get_C4_Attached
_TEXT	ENDS
PUBLIC	?InitEngineWeap@@YAXI@Z				; InitEngineWeap
; Function compile flags: /Ogtpy
;	COMDAT ?InitEngineWeap@@YAXI@Z
_TEXT	SEGMENT
?InitEngineWeap@@YAXI@Z PROC				; InitEngineWeap, COMDAT

; 36   : {

	mov	eax, DWORD PTR ?Exe@@3HA		; Exe

; 37   : 	switch(exe)

	cmp	eax, 3
	ja	$LN1@InitEngine
	jmp	DWORD PTR $LN10@InitEngine[eax*4]
$LN5@InitEngine:

; 38   : 	{
; 39   : 		case 0: //game.exe
; 40   : 			Mine_Limit = (char *)0x0070DD95;

	mov	DWORD PTR ?Mine_Limit@@3PADA, 7396757	; Mine_Limit, 0070dd95H

; 41   : 			C4Defuse = (void *)0x0070D610;

	mov	DWORD PTR ?C4Defuse@@3PAXA, 7394832	; C4Defuse, 0070d610H

; 42   : 			GetBeaconOwner = (void *)0x0070AA50;

	mov	DWORD PTR ?GetBeaconOwner@@3PAXA, 7383632 ; GetBeaconOwner, 0070aa50H

; 63   : 			break;
; 64   : 	}
; 65   : }

	ret	0
$LN4@InitEngine:

; 43   : 			break;
; 44   : 		case 1: //server.dat
; 45   : 			Mine_Limit = (char *)0x0070D355;

	mov	DWORD PTR ?Mine_Limit@@3PADA, 7394133	; Mine_Limit, 0070d355H

; 46   : 			C4Defuse = (void *)0x0070CBD0;

	mov	DWORD PTR ?C4Defuse@@3PAXA, 7392208	; C4Defuse, 0070cbd0H

; 47   : 			GetBeaconOwner = (void *)0x0070A010;

	mov	DWORD PTR ?GetBeaconOwner@@3PAXA, 7381008 ; GetBeaconOwner, 0070a010H

; 63   : 			break;
; 64   : 	}
; 65   : }

	ret	0
$LN3@InitEngine:

; 48   : 			break;
; 49   : 		case 2: //RH73
; 50   : 			Mine_Limit = (char *)0x080FABCE;

	mov	DWORD PTR ?Mine_Limit@@3PADA, 135244750	; Mine_Limit, 080fabceH

; 51   : 			C4Defuse = (void *)0x080FA990;

	mov	DWORD PTR ?C4Defuse@@3PAXA, 135244176	; C4Defuse, 080fa990H

; 52   : 			GetBeaconOwner = (void *)0x080F05D8;

	mov	DWORD PTR ?GetBeaconOwner@@3PAXA, 135202264 ; GetBeaconOwner, 080f05d8H

; 63   : 			break;
; 64   : 	}
; 65   : }

	ret	0
$LN2@InitEngine:

; 53   : 			break;
; 54   : 		case 3: //RH8
; 55   : 			Mine_Limit = (char *)0x080EE422;

	mov	DWORD PTR ?Mine_Limit@@3PADA, 135193634	; Mine_Limit, 080ee422H

; 56   : 			C4Defuse = (void *)0x080EE1EA;

	mov	DWORD PTR ?C4Defuse@@3PAXA, 135193066	; C4Defuse, 080ee1eaH

; 57   : 			GetBeaconOwner = (void *)0x080E5D98;

	mov	DWORD PTR ?GetBeaconOwner@@3PAXA, 135159192 ; GetBeaconOwner, 080e5d98H

; 63   : 			break;
; 64   : 	}
; 65   : }

	ret	0
$LN1@InitEngine:

; 58   : 			break;
; 59   : 		default:
; 60   : 			Mine_Limit = (char *)0;

	xor	eax, eax
	mov	DWORD PTR ?Mine_Limit@@3PADA, eax	; Mine_Limit

; 61   : 			C4Defuse = (void *)0;

	mov	DWORD PTR ?C4Defuse@@3PAXA, eax		; C4Defuse

; 62   : 			GetBeaconOwner = (void *)0;

	mov	DWORD PTR ?GetBeaconOwner@@3PAXA, eax	; GetBeaconOwner

; 63   : 			break;
; 64   : 	}
; 65   : }

	ret	0
	npad	1
$LN10@InitEngine:
	DD	$LN5@InitEngine
	DD	$LN4@InitEngine
	DD	$LN3@InitEngine
	DD	$LN2@InitEngine
?InitEngineWeap@@YAXI@Z ENDP				; InitEngineWeap
PUBLIC	?Get_C4_Mode@@YAHPAE@Z				; Get_C4_Mode
; Function compile flags: /Ogtpy
;	COMDAT ?Get_C4_Mode@@YAHPAE@Z
_TEXT	SEGMENT
?Get_C4_Mode@@YAHPAE@Z PROC				; Get_C4_Mode, COMDAT
; _obj$ = esi

; 1345 : 	if (!Commands->Get_ID(obj) || !obj)

	mov	eax, DWORD PTR ?Commands@@3PAUScriptCommands@@A ; Commands
	mov	ecx, DWORD PTR [eax+108]
	push	esi
	call	ecx
	add	esp, 4
	test	eax, eax
	je	SHORT $LN3@Get_C4_Mod
	test	esi, esi
	je	SHORT $LN3@Get_C4_Mod

; 1348 : 	}
; 1349 : 	PhysicalGameObj *o2 = ((ScriptableGameObj *)obj)->As_PhysicalGameObj();

	mov	edx, DWORD PTR [esi]
	mov	eax, DWORD PTR [edx+36]
	mov	ecx, esi
	call	eax

; 1350 : 	if (!o2)

	test	eax, eax

; 1351 : 	{
; 1352 : 		return 0;

	je	SHORT $LN3@Get_C4_Mod

; 1353 : 	}
; 1354 : 	C4GameObj *o3 = o2->As_C4GameObj();

	mov	edx, DWORD PTR [eax]
	mov	ecx, eax
	mov	eax, DWORD PTR [edx+140]
	call	eax

; 1355 : 	if (!o3)

	test	eax, eax

; 1356 : 	{
; 1357 : 		return 0;

	je	SHORT $LN3@Get_C4_Mod

; 1358 : 	}
; 1359 : 	return o3->AmmoDef->AmmoType.Get();

	mov	ecx, DWORD PTR [eax+1992]
	add	ecx, 140				; 0000008cH
	jmp	?Get@IntDataSafeClass@@QAEHXZ		; IntDataSafeClass::Get
$LN3@Get_C4_Mod:

; 1346 : 	{
; 1347 : 		return 0;

	xor	eax, eax

; 1360 : }

	ret	0
?Get_C4_Mode@@YAHPAE@Z ENDP				; Get_C4_Mode
END
