; Listing generated by Microsoft (R) Optimizing Compiler Version 15.00.30729.01 

	TITLE	c:\Users\Admin\Desktop\Projects\SEye_Server\engine_common.cpp
	.686P
	.XMM
	include listing.inc
	.model	flat

INCLUDELIB OLDNAMES

PUBLIC	?HasSSE@@3PA_NA					; HasSSE
PUBLIC	?Has3DNow@@3PA_NA				; Has3DNow
PUBLIC	?Parse_Console_Input@@3P6AXPBD@ZA		; Parse_Console_Input
PUBLIC	?RenVecDelete@@3P6AXPAX@ZA			; RenVecDelete
PUBLIC	?RenDelete@@3P6AXPAX@ZA				; RenDelete
PUBLIC	?Output_To_Console@@3PAXA			; Output_To_Console
PUBLIC	?Exe@@3HA					; Exe
PUBLIC	?RenNew@@3P6APAXK@ZA				; RenNew
PUBLIC	?RenVecNew@@3P6APAXK@ZA				; RenVecNew
?HasSSE@@3PA_NA DD 01H DUP (?)				; HasSSE
?Has3DNow@@3PA_NA DD 01H DUP (?)			; Has3DNow
?Parse_Console_Input@@3P6AXPBD@ZA DD 01H DUP (?)	; Parse_Console_Input
?RenVecDelete@@3P6AXPAX@ZA DD 01H DUP (?)		; RenVecDelete
?RenDelete@@3P6AXPAX@ZA DD 01H DUP (?)			; RenDelete
?Output_To_Console@@3PAXA DD 01H DUP (?)		; Output_To_Console
?RenNew@@3P6APAXK@ZA DD 01H DUP (?)			; RenNew
?RenVecNew@@3P6APAXK@ZA DD 01H DUP (?)			; RenVecNew
_Code	DB	06aH
	DB	040H
	DB	0ffH
	DB	074H
	DB	024H
	DB	0cH
	DB	0ffH
	DB	074H
	DB	024H
	DB	0cH
	DB	0e8H
	DB	0c0H
	DB	0ffH
	DB	0ffH
	DB	0ffH
	DB	083H
	DB	0c4H
	DB	0cH
	DB	0c3H
__bad_alloc_Message DD FLAT:??_C@_0P@GHFPNOJB@bad?5allocation?$AA@
?Exe@@3HA DD	06H					; Exe
PUBLIC	?InitEngine@@YAXXZ				; InitEngine
PUBLIC	??_V@YAXPAX@Z					; operator delete[]
; Function compile flags: /Ogtpy
; File c:\users\admin\desktop\projects\seye_server\engine_common.cpp
;	COMDAT ??_V@YAXPAX@Z
_TEXT	SEGMENT
??_V@YAXPAX@Z PROC					; operator delete[], COMDAT
; _ptr$ = eax

; 165  : 	RenVecDelete(ptr);

	push	eax
	call	DWORD PTR ?RenVecDelete@@3P6AXPAX@ZA	; RenVecDelete
	pop	ecx

; 166  : }

	ret	0
??_V@YAXPAX@Z ENDP					; operator delete[]
_TEXT	ENDS
PUBLIC	??3@YAXPAX@Z					; operator delete
; Function compile flags: /Ogtpy
;	COMDAT ??3@YAXPAX@Z
_TEXT	SEGMENT
_ptr$ = 8						; size = 4
??3@YAXPAX@Z PROC					; operator delete, COMDAT

; 160  : 	RenDelete(ptr);

	jmp	DWORD PTR ?RenDelete@@3P6AXPAX@ZA	; RenDelete
??3@YAXPAX@Z ENDP					; operator delete
_TEXT	ENDS
PUBLIC	?InitEngineCommon@@YAXI@Z			; InitEngineCommon
; Function compile flags: /Ogtpy
;	COMDAT ?InitEngineCommon@@YAXI@Z
_TEXT	SEGMENT
?InitEngineCommon@@YAXI@Z PROC				; InitEngineCommon, COMDAT

; 47   : 	switch (Exe)

	mov	eax, DWORD PTR ?Exe@@3HA		; Exe
	cmp	eax, 4
	ja	$LN1@InitEngine@15
	jmp	DWORD PTR $LN12@InitEngine@15[eax*4]
$LN6@InitEngine@15:

; 48   : 	{
; 49   : 	case 0: //game.exe
; 50   : 		{
; 51   : 			RenNew = (rennew)0x00672B70;

	mov	eax, 6761328				; 00672b70H
	mov	DWORD PTR ?RenNew@@3P6APAXK@ZA, eax	; RenNew

; 52   : 			RenVecNew = (rennew)0x00672B70;

	mov	DWORD PTR ?RenVecNew@@3P6APAXK@ZA, eax	; RenVecNew

; 53   : 			RenDelete = (rendelete)0x00672C80;

	mov	eax, 6761600				; 00672c80H

; 54   : 			RenVecDelete = (rendelete)0x00672C80;
; 55   : 			Parse_Console_Input = (ConsoleInput)0x004287E0;

	mov	DWORD PTR ?Parse_Console_Input@@3P6AXPBD@ZA, 4360160 ; Parse_Console_Input, 004287e0H

; 56   : 			Output_To_Console = (void *)0x00428B50;

	mov	DWORD PTR ?Output_To_Console@@3PAXA, 4361040 ; Output_To_Console, 00428b50H

; 57   : 			HasSSE = (bool *)0x0084F702;

	mov	DWORD PTR ?HasSSE@@3PA_NA, 8713986	; HasSSE, 0084f702H

; 58   : 			Has3DNow = (bool *)0x0084F706;

	mov	DWORD PTR ?Has3DNow@@3PA_NA, 8713990	; Has3DNow, 0084f706H

; 113  : 			RenDelete = (rendelete)0x0;

	mov	DWORD PTR ?RenDelete@@3P6AXPAX@ZA, eax	; RenDelete

; 114  : 			RenVecDelete = (rendelete)0x0;

	mov	DWORD PTR ?RenVecDelete@@3P6AXPAX@ZA, eax ; RenVecDelete

; 119  : 		}
; 120  : 		break;
; 121  : 	}
; 122  : }

	ret	0
$LN5@InitEngine@15:

; 59   : 		}
; 60   : 		break;
; 61   : 	case 1: //server.dat
; 62   : 		{
; 63   : 			RenNew = (rennew)0x00672410;

	mov	eax, 6759440				; 00672410H
	mov	DWORD PTR ?RenNew@@3P6APAXK@ZA, eax	; RenNew

; 64   : 			RenVecNew = (rennew)0x00672410;

	mov	DWORD PTR ?RenVecNew@@3P6APAXK@ZA, eax	; RenVecNew

; 65   : 			RenDelete = (rendelete)0x00672520;

	mov	eax, 6759712				; 00672520H

; 66   : 			RenVecDelete = (rendelete)0x00672520;
; 67   : 			Parse_Console_Input = (ConsoleInput)0x00428960;

	mov	DWORD PTR ?Parse_Console_Input@@3P6AXPBD@ZA, 4360544 ; Parse_Console_Input, 00428960H

; 68   : 			Output_To_Console = (void *)0x00428CD0;

	mov	DWORD PTR ?Output_To_Console@@3PAXA, 4361424 ; Output_To_Console, 00428cd0H

; 69   : 			HasSSE = (bool *)0x0084E8EA;

	mov	DWORD PTR ?HasSSE@@3PA_NA, 8710378	; HasSSE, 0084e8eaH

; 70   : 			Has3DNow = (bool *)0x0084E8EE;

	mov	DWORD PTR ?Has3DNow@@3PA_NA, 8710382	; Has3DNow, 0084e8eeH

; 113  : 			RenDelete = (rendelete)0x0;

	mov	DWORD PTR ?RenDelete@@3P6AXPAX@ZA, eax	; RenDelete

; 114  : 			RenVecDelete = (rendelete)0x0;

	mov	DWORD PTR ?RenVecDelete@@3P6AXPAX@ZA, eax ; RenVecDelete

; 119  : 		}
; 120  : 		break;
; 121  : 	}
; 122  : }

	ret	0
$LN4@InitEngine@15:

; 71   : 		}
; 72   : 		break;
; 73   : 	case 2: //RH73
; 74   : 		{
; 75   : 			RenNew = (rennew)0x0804AA48;

	mov	DWORD PTR ?RenNew@@3P6APAXK@ZA, 134523464 ; RenNew, 0804aa48H

; 76   : 			RenVecNew = (rennew)0x0804A7B8;

	mov	DWORD PTR ?RenVecNew@@3P6APAXK@ZA, 134522808 ; RenVecNew, 0804a7b8H

; 77   : 			RenDelete = (rendelete)0x0804A8F8;

	mov	DWORD PTR ?RenDelete@@3P6AXPAX@ZA, 134523128 ; RenDelete, 0804a8f8H

; 78   : 			RenVecDelete = (rendelete)0x0804AA08;

	mov	DWORD PTR ?RenVecDelete@@3P6AXPAX@ZA, 134523400 ; RenVecDelete, 0804aa08H

; 79   : 			Parse_Console_Input = (ConsoleInput)0x0805BBB8;

	mov	DWORD PTR ?Parse_Console_Input@@3P6AXPBD@ZA, 134593464 ; Parse_Console_Input, 0805bbb8H

; 80   : 			Output_To_Console = (void *)0x0805BF40;

	mov	DWORD PTR ?Output_To_Console@@3PAXA, 134594368 ; Output_To_Console, 0805bf40H

; 81   : 			HasSSE = (bool *)0x086E5302;

	mov	DWORD PTR ?HasSSE@@3PA_NA, 141447938	; HasSSE, 086e5302H

; 82   : 			Has3DNow = (bool *)0x086E5306;

	mov	DWORD PTR ?Has3DNow@@3PA_NA, 141447942	; Has3DNow, 086e5306H

; 119  : 		}
; 120  : 		break;
; 121  : 	}
; 122  : }

	ret	0
$LN3@InitEngine@15:

; 83   : 		}
; 84   : 		break;
; 85   : 	case 3: //RH8
; 86   : 		{
; 87   : 			RenNew = (rennew)0x08053B04;

	mov	DWORD PTR ?RenNew@@3P6APAXK@ZA, 134560516 ; RenNew, 08053b04H

; 88   : 			RenVecNew = (rennew)0x08053A14;

	mov	DWORD PTR ?RenVecNew@@3P6APAXK@ZA, 134560276 ; RenVecNew, 08053a14H

; 89   : 			RenDelete = (rendelete)0x08053434;

	mov	DWORD PTR ?RenDelete@@3P6AXPAX@ZA, 134558772 ; RenDelete, 08053434H

; 90   : 			RenVecDelete = (rendelete)0x08053A54;

	mov	DWORD PTR ?RenVecDelete@@3P6AXPAX@ZA, 134560340 ; RenVecDelete, 08053a54H

; 91   : 			Parse_Console_Input = (ConsoleInput)0x08063F56;

	mov	DWORD PTR ?Parse_Console_Input@@3P6AXPBD@ZA, 134627158 ; Parse_Console_Input, 08063f56H

; 92   : 			Output_To_Console = (void *)0x080642B2;

	mov	DWORD PTR ?Output_To_Console@@3PAXA, 134628018 ; Output_To_Console, 080642b2H

; 93   : 			HasSSE = (bool *)0x0860DDA2;

	mov	DWORD PTR ?HasSSE@@3PA_NA, 140565922	; HasSSE, 0860dda2H

; 94   : 			Has3DNow = (bool *)0x0860DDA6;

	mov	DWORD PTR ?Has3DNow@@3PA_NA, 140565926	; Has3DNow, 0860dda6H

; 119  : 		}
; 120  : 		break;
; 121  : 	}
; 122  : }

	ret	0
$LN2@InitEngine@15:

; 95   : 		}
; 96   : 		break;
; 97   : 	case 4: //leveledit, if this isnt here, things will break bigtime
; 98   : 		{
; 99   : 			RenNew = (rennew)0x007A783D;

	mov	eax, 8026173				; 007a783dH
	mov	DWORD PTR ?RenNew@@3P6APAXK@ZA, eax	; RenNew

; 100  : 			RenVecNew = (rennew)0x007A783D;

	mov	DWORD PTR ?RenVecNew@@3P6APAXK@ZA, eax	; RenVecNew

; 101  : 			RenDelete = (rendelete)0x007A7866;

	mov	eax, 8026214				; 007a7866H
	mov	DWORD PTR ?RenDelete@@3P6AXPAX@ZA, eax	; RenDelete

; 102  : 			RenVecDelete = (rendelete)0x007A7866;

	mov	DWORD PTR ?RenVecDelete@@3P6AXPAX@ZA, eax ; RenVecDelete

; 103  : 			Parse_Console_Input = (ConsoleInput)0;

	xor	eax, eax
	mov	DWORD PTR ?Parse_Console_Input@@3P6AXPBD@ZA, eax ; Parse_Console_Input

; 104  : 			Output_To_Console = (void *)0;

	mov	DWORD PTR ?Output_To_Console@@3PAXA, eax ; Output_To_Console

; 105  : 			HasSSE = (bool *)0;

	mov	DWORD PTR ?HasSSE@@3PA_NA, eax		; HasSSE

; 106  : 			Has3DNow = (bool *)0;

	mov	DWORD PTR ?Has3DNow@@3PA_NA, eax	; Has3DNow

; 119  : 		}
; 120  : 		break;
; 121  : 	}
; 122  : }

	ret	0
$LN1@InitEngine@15:

; 107  : 		}
; 108  : 		break;
; 109  : 	default:
; 110  : 		{
; 111  : 			RenNew = (rennew)0x0;

	xor	eax, eax
	mov	DWORD PTR ?RenNew@@3P6APAXK@ZA, eax	; RenNew

; 112  : 			RenVecNew = (rennew)0x0;

	mov	DWORD PTR ?RenVecNew@@3P6APAXK@ZA, eax	; RenVecNew

; 115  : 			Parse_Console_Input = (ConsoleInput)0;

	mov	DWORD PTR ?Parse_Console_Input@@3P6AXPBD@ZA, eax ; Parse_Console_Input

; 116  : 			Output_To_Console = (void *)0;

	mov	DWORD PTR ?Output_To_Console@@3PAXA, eax ; Output_To_Console

; 117  : 			HasSSE = (bool *)0;

	mov	DWORD PTR ?HasSSE@@3PA_NA, eax		; HasSSE

; 118  : 			Has3DNow = (bool *)0;

	mov	DWORD PTR ?Has3DNow@@3PA_NA, eax	; Has3DNow
	mov	DWORD PTR ?RenDelete@@3P6AXPAX@ZA, eax	; RenDelete
	mov	DWORD PTR ?RenVecDelete@@3P6AXPAX@ZA, eax ; RenVecDelete

; 119  : 		}
; 120  : 		break;
; 121  : 	}
; 122  : }

	ret	0
	npad	3
$LN12@InitEngine@15:
	DD	$LN6@InitEngine@15
	DD	$LN5@InitEngine@15
	DD	$LN4@InitEngine@15
	DD	$LN3@InitEngine@15
	DD	$LN2@InitEngine@15
?InitEngineCommon@@YAXI@Z ENDP				; InitEngineCommon
; Function compile flags: /Ogtpy
;	COMDAT ?InitEngine@@YAXXZ
_TEXT	SEGMENT
?InitEngine@@YAXXZ PROC					; InitEngine, COMDAT

; 197  : #ifdef WIN32
; 198  : #if (_MSC_VER == 1400)
; 199  : 	_set_invalid_parameter_handler(AppInvalidParameterHandler);
; 200  : #endif
; 201  : 	if (!memcmp((void *)0x0078CE49,(void *)Code,19))

	mov	edx, 19					; 00000013H
	mov	eax, OFFSET _Code
	mov	ecx, 7917129				; 0078ce49H
	push	esi
$LL7@InitEngine@17:
	mov	esi, DWORD PTR [ecx]
	cmp	esi, DWORD PTR [eax]
	jne	SHORT $LN36@InitEngine@17
	sub	edx, 4
	add	eax, 4
	add	ecx, 4
	cmp	edx, 4
	jae	SHORT $LL7@InitEngine@17
	mov	dl, BYTE PTR [eax]
	cmp	dl, BYTE PTR [ecx]
	jne	SHORT $LN36@InitEngine@17
	mov	dl, BYTE PTR [eax+1]
	cmp	dl, BYTE PTR [ecx+1]
	jne	SHORT $LN36@InitEngine@17
	mov	al, BYTE PTR [eax+2]
	cmp	al, BYTE PTR [ecx+2]
	jne	SHORT $LN36@InitEngine@17

; 202  : 	{
; 203  : 		Exe = 0;

	mov	DWORD PTR ?Exe@@3HA, 0			; Exe
$LN36@InitEngine@17:

; 204  : 	}
; 205  : 	if (!memcmp((void *)0x0078C6E9,(void *)Code,19))

	mov	edx, 19					; 00000013H
	mov	eax, OFFSET _Code
	mov	ecx, 7915241				; 0078c6e9H
$LL11@InitEngine@17:
	mov	esi, DWORD PTR [ecx]
	cmp	esi, DWORD PTR [eax]
	jne	SHORT $LN37@InitEngine@17
	sub	edx, 4
	add	eax, 4
	add	ecx, 4
	cmp	edx, 4
	jae	SHORT $LL11@InitEngine@17
	mov	dl, BYTE PTR [eax]
	cmp	dl, BYTE PTR [ecx]
	jne	SHORT $LN37@InitEngine@17
	mov	dl, BYTE PTR [eax+1]
	cmp	dl, BYTE PTR [ecx+1]
	jne	SHORT $LN37@InitEngine@17
	mov	al, BYTE PTR [eax+2]
	cmp	al, BYTE PTR [ecx+2]
	jne	SHORT $LN37@InitEngine@17

; 206  : 	{
; 207  : 		Exe = 1;

	mov	DWORD PTR ?Exe@@3HA, 1			; Exe
$LN37@InitEngine@17:

; 208  : 	}
; 209  : 	if (!memcmp((void *)0x0078790C,(void *)Code,19))

	mov	edx, 19					; 00000013H
	mov	eax, OFFSET _Code
	mov	ecx, 7895308				; 0078790cH
$LL15@InitEngine@17:
	mov	esi, DWORD PTR [ecx]
	cmp	esi, DWORD PTR [eax]
	jne	SHORT $LN38@InitEngine@17
	sub	edx, 4
	add	eax, 4
	add	ecx, 4
	cmp	edx, 4
	jae	SHORT $LL15@InitEngine@17
	mov	dl, BYTE PTR [eax]
	cmp	dl, BYTE PTR [ecx]
	jne	SHORT $LN38@InitEngine@17
	mov	dl, BYTE PTR [eax+1]
	cmp	dl, BYTE PTR [ecx+1]
	jne	SHORT $LN38@InitEngine@17
	mov	al, BYTE PTR [eax+2]
	cmp	al, BYTE PTR [ecx+2]
	jne	SHORT $LN38@InitEngine@17

; 210  : 	{
; 211  : 		Exe = 4;

	mov	DWORD PTR ?Exe@@3HA, 4			; Exe
$LN38@InitEngine@17:

; 212  : 	}
; 213  : #endif
; 214  : 	InitEngineCommon(Exe);

	call	?InitEngineCommon@@YAXI@Z		; InitEngineCommon

; 215  : 	InitEngineString(Exe);

	call	?InitEngineString@@YAXI@Z		; InitEngineString

; 216  : 	InitEngineThreading(Exe);

	mov	ecx, 1
	cmp	ecx, DWORD PTR ?Exe@@3HA		; Exe
	sbb	edx, edx
	and	edx, -4205216				; ffbfd560H
	add	edx, 4205216				; 00402aa0H
	mov	DWORD PTR ?CriticalLock@@3PAXA, edx	; CriticalLock

; 217  : #ifdef SHADERS_EXPORTS
; 218  : 	InitEngineMath();
; 219  : 	InitEngineNet(Exe);
; 220  : 	InitEngineDef(Exe);
; 221  : 	InitEngineGame(Exe);
; 222  : 	InitEngineWeap(Exe);
; 223  : 	InitEngineObj(Exe);
; 224  : 	InitEngineObj2(Exe);
; 225  : 	InitEngineTDB(Exe);
; 226  : 	InitEngineIO(Exe);
; 227  : 	InitEngine3DRE(Exe);
; 228  : 	InitEngine3D(Exe);
; 229  : #else
; 230  : #ifndef PROXYDLL_EXPORTS
; 231  : 	InitEngineMath();

	call	?InitEngineMath@@YAXXZ			; InitEngineMath

; 232  : 	InitEngineNet(Exe);

	call	?InitEngineNet@@YAXI@Z			; InitEngineNet

; 233  : 	InitEngineDef(Exe);

	call	?InitEngineDef@@YAXI@Z			; InitEngineDef

; 234  : 	InitEnginePlayer(Exe);

	call	?InitEnginePlayer@@YAXI@Z		; InitEnginePlayer

; 235  : 	InitEngineGame(Exe);

	call	?InitEngineGame@@YAXI@Z			; InitEngineGame

; 236  : 	InitEngineWeap(Exe);

	call	?InitEngineWeap@@YAXI@Z			; InitEngineWeap

; 237  : 	InitEnginePT(Exe);

	call	?InitEnginePT@@YAXI@Z			; InitEnginePT

; 238  : 	InitEngineObj(Exe);

	call	?InitEngineObj@@YAXI@Z			; InitEngineObj

; 239  : 	InitEngineObj2(Exe);

	call	?InitEngineObj2@@YAXI@Z			; InitEngineObj2

; 240  : 	InitEngineTDB(Exe);

	call	?InitEngineTDB@@YAXI@Z			; InitEngineTDB

; 241  : 	InitEngineDmg(Exe);

	call	?InitEngineDmg@@YAXI@Z			; InitEngineDmg

; 242  : 	InitEnginePhys(Exe);

	call	?InitEnginePhys@@YAXI@Z			; InitEnginePhys
	pop	esi

; 243  : 	InitEngineIO(Exe);

	jmp	?InitEngineIO@@YAXI@Z			; InitEngineIO
?InitEngine@@YAXXZ ENDP					; InitEngine
_TEXT	ENDS
PUBLIC	??_U@YAPAXI@Z					; operator new[]
; Function compile flags: /Ogtpy
;	COMDAT ??_U@YAPAXI@Z
_TEXT	SEGMENT
_nbytes$ = 8						; size = 4
??_U@YAPAXI@Z PROC					; operator new[], COMDAT

; 150  : 	if (!RenVecNew)

	cmp	DWORD PTR ?RenVecNew@@3P6APAXK@ZA, 0	; RenVecNew
	jne	SHORT $LN1@operator@2

; 151  : 	{
; 152  : 		InitEngine();

	call	?InitEngine@@YAXXZ			; InitEngine
$LN1@operator@2:

; 153  : 	}
; 154  : 	void *x = RenVecNew((unsigned long)nbytes);

	jmp	DWORD PTR ?RenVecNew@@3P6APAXK@ZA	; RenVecNew
??_U@YAPAXI@Z ENDP					; operator new[]
_TEXT	ENDS
PUBLIC	??2@YAPAXI@Z					; operator new
; Function compile flags: /Ogtpy
;	COMDAT ??2@YAPAXI@Z
_TEXT	SEGMENT
_nbytes$ = 8						; size = 4
??2@YAPAXI@Z PROC					; operator new, COMDAT

; 140  : 	if (!RenNew)

	cmp	DWORD PTR ?RenNew@@3P6APAXK@ZA, 0	; RenNew
	jne	SHORT $LN1@operator@3

; 141  : 	{
; 142  : 		InitEngine();

	call	?InitEngine@@YAXXZ			; InitEngine
$LN1@operator@3:

; 143  : 	}
; 144  : 	void *x = RenNew((unsigned long)nbytes);

	jmp	DWORD PTR ?RenNew@@3P6APAXK@ZA		; RenNew
??2@YAPAXI@Z ENDP					; operator new
END
