; Listing generated by Microsoft (R) Optimizing Compiler Version 15.00.30729.01 

	TITLE	c:\Users\Admin\Desktop\Projects\SEye_Server\engine_net.cpp
	.686P
	.XMM
	include listing.inc
	.model	flat

INCLUDELIB OLDNAMES

PUBLIC	?ServerKillConnection@@3PAXA			; ServerKillConnection
PUBLIC	?Get_Remote_Host@@3P6APADH@ZA			; Get_Remote_Host
PUBLIC	?PacketManager@@3PAXA				; PacketManager
PUBLIC	?ServerConnection@@3PAPADA			; ServerConnection
PUBLIC	?Get_Address@@3P6APAUsockaddr_in@@XZA		; Get_Address
PUBLIC	?Bandwidth_Out@@3P6AHPAUsockaddr_in@@@ZA	; Bandwidth_Out
PUBLIC	??_C@_0M@PCENNPGA@?$CFd?4?$CFd?4?$CFd?4?$CFd?$AA@ ; `string'
PUBLIC	??_C@_0P@FOCHHKCH@?$CFd?4?$CFd?4?$CFd?4?$CFd?$DL?$CFd?$AA@ ; `string'
EXTRN	__imp__ntohs@4:PROC
?ServerKillConnection@@3PAXA DD 01H DUP (?)		; ServerKillConnection
?Get_Remote_Host@@3P6APADH@ZA DD 01H DUP (?)		; Get_Remote_Host
?PacketManager@@3PAXA DD 01H DUP (?)			; PacketManager
?ServerConnection@@3PAPADA DD 01H DUP (?)		; ServerConnection
?Get_Address@@3P6APAUsockaddr_in@@XZA DD 01H DUP (?)	; Get_Address
?Bandwidth_Out@@3P6AHPAUsockaddr_in@@@ZA DD 01H DUP (?)	; Bandwidth_Out
;	COMDAT ??_C@_0P@FOCHHKCH@?$CFd?4?$CFd?4?$CFd?4?$CFd?$DL?$CFd?$AA@
CONST	SEGMENT
??_C@_0P@FOCHHKCH@?$CFd?4?$CFd?4?$CFd?4?$CFd?$DL?$CFd?$AA@ DB '%d.%d.%d.%'
	DB	'd;%d', 00H					; `string'
CONST	ENDS
;	COMDAT ??_C@_0M@PCENNPGA@?$CFd?4?$CFd?4?$CFd?4?$CFd?$AA@
CONST	SEGMENT
??_C@_0M@PCENNPGA@?$CFd?4?$CFd?4?$CFd?4?$CFd?$AA@ DB '%d.%d.%d.%d', 00H ; `string'
PUBLIC	?InitEngineNet@@YAXI@Z				; InitEngineNet
; Function compile flags: /Ogtpy
; File c:\users\admin\desktop\projects\seye_server\engine_net.cpp
;	COMDAT ?InitEngineNet@@YAXI@Z
_TEXT	SEGMENT
?InitEngineNet@@YAXI@Z PROC				; InitEngineNet, COMDAT

; 45   : {

	mov	eax, DWORD PTR ?Exe@@3HA		; Exe

; 46   : 	switch(exe)

	cmp	eax, 3
	ja	$LN1@InitEngine@9
	jmp	DWORD PTR $LN10@InitEngine@9[eax*4]
$LN5@InitEngine@9:

; 47   : 	{
; 48   : 		case 0: //game.exe
; 49   : 			PacketManager = (void *)0x00854708;

	mov	DWORD PTR ?PacketManager@@3PAXA, 8734472 ; PacketManager, 00854708H

; 50   : 			Bandwidth_Out = (BandwidthOut)0x0061D310;

	mov	DWORD PTR ?Bandwidth_Out@@3P6AHPAUsockaddr_in@@@ZA, 6411024 ; Bandwidth_Out, 0061d310H

; 51   : 			Get_Address = (GetAddress)0x0061DAF0;

	mov	DWORD PTR ?Get_Address@@3P6APAUsockaddr_in@@XZA, 6413040 ; Get_Address, 0061daf0H

; 52   : 			Get_Remote_Host = (GetRemoteHost)0x0061A840;

	mov	DWORD PTR ?Get_Remote_Host@@3P6APADH@ZA, 6400064 ; Get_Remote_Host, 0061a840H

; 53   : 			ServerConnection = (char **)0x00820D9C;

	mov	DWORD PTR ?ServerConnection@@3PAPADA, 8523164 ; ServerConnection, 00820d9cH

; 54   : 			ServerKillConnection = (void *)0x00462190;

	mov	DWORD PTR ?ServerKillConnection@@3PAXA, 4596112 ; ServerKillConnection, 00462190H

; 87   : 			break;
; 88   : 	}
; 89   : }

	ret	0
$LN4@InitEngine@9:

; 55   : 			break;
; 56   : 		case 1: //server.dat
; 57   : 			PacketManager = (void *)0x008538F0;

	mov	DWORD PTR ?PacketManager@@3PAXA, 8730864 ; PacketManager, 008538f0H

; 58   : 			Bandwidth_Out = (BandwidthOut)0x0061CBB0;

	mov	DWORD PTR ?Bandwidth_Out@@3P6AHPAUsockaddr_in@@@ZA, 6409136 ; Bandwidth_Out, 0061cbb0H

; 59   : 			Get_Address = (GetAddress)0x0061D390;

	mov	DWORD PTR ?Get_Address@@3P6APAUsockaddr_in@@XZA, 6411152 ; Get_Address, 0061d390H

; 60   : 			Get_Remote_Host = (GetRemoteHost)0x0061A0E0;

	mov	DWORD PTR ?Get_Remote_Host@@3P6APADH@ZA, 6398176 ; Get_Remote_Host, 0061a0e0H

; 61   : 			ServerConnection = (char **)0x0081FF84;

	mov	DWORD PTR ?ServerConnection@@3PAPADA, 8519556 ; ServerConnection, 0081ff84H

; 62   : 			ServerKillConnection = (void *)0x00461AC0;

	mov	DWORD PTR ?ServerKillConnection@@3PAXA, 4594368 ; ServerKillConnection, 00461ac0H

; 87   : 			break;
; 88   : 	}
; 89   : }

	ret	0
$LN3@InitEngine@9:

; 63   : 			break;
; 64   : 		case 2: //RH73
; 65   : 			ServerKillConnection = (void *)0x08094DF0;

	mov	DWORD PTR ?ServerKillConnection@@3PAXA, 134827504 ; ServerKillConnection, 08094df0H

; 66   : 			PacketManager = (void *)0x08BB6420;

	mov	DWORD PTR ?PacketManager@@3PAXA, 146498592 ; PacketManager, 08bb6420H

; 67   : 			Bandwidth_Out = (BandwidthOut)0x08370754;

	mov	DWORD PTR ?Bandwidth_Out@@3P6AHPAUsockaddr_in@@@ZA, 137824084 ; Bandwidth_Out, 08370754H

; 68   : 			Get_Address = (GetAddress)0x08371194;

	mov	DWORD PTR ?Get_Address@@3P6APAUsockaddr_in@@XZA, 137826708 ; Get_Address, 08371194H

; 69   : 			Get_Remote_Host = (GetRemoteHost)0x0836B438;

	mov	DWORD PTR ?Get_Remote_Host@@3P6APADH@ZA, 137802808 ; Get_Remote_Host, 0836b438H

; 70   : 			ServerConnection = (char **)0x086C0EDC;

	mov	DWORD PTR ?ServerConnection@@3PAPADA, 141299420 ; ServerConnection, 086c0edcH

; 87   : 			break;
; 88   : 	}
; 89   : }

	ret	0
$LN2@InitEngine@9:

; 71   : 			break;
; 72   : 		case 3: //RH8
; 73   : 			ServerKillConnection = (void *)0x08090D84;

	mov	DWORD PTR ?ServerKillConnection@@3PAXA, 134811012 ; ServerKillConnection, 08090d84H

; 74   : 			PacketManager = (void *)0x089D20E0;

	mov	DWORD PTR ?PacketManager@@3PAXA, 144515296 ; PacketManager, 089d20e0H

; 75   : 			Bandwidth_Out = (BandwidthOut)0x083238EA;

	mov	DWORD PTR ?Bandwidth_Out@@3P6AHPAUsockaddr_in@@@ZA, 137509098 ; Bandwidth_Out, 083238eaH

; 76   : 			Get_Address = (GetAddress)0x08324566;

	mov	DWORD PTR ?Get_Address@@3P6APAUsockaddr_in@@XZA, 137512294 ; Get_Address, 08324566H

; 77   : 			Get_Remote_Host = (GetRemoteHost)0x0831E694;

	mov	DWORD PTR ?Get_Remote_Host@@3P6APADH@ZA, 137488020 ; Get_Remote_Host, 0831e694H

; 78   : 			ServerConnection = (char **)0x085E7C2C;

	mov	DWORD PTR ?ServerConnection@@3PAPADA, 140409900 ; ServerConnection, 085e7c2cH

; 87   : 			break;
; 88   : 	}
; 89   : }

	ret	0
$LN1@InitEngine@9:

; 79   : 			break;
; 80   : 		default:
; 81   : 			ServerKillConnection = (void *)0;

	xor	eax, eax
	mov	DWORD PTR ?ServerKillConnection@@3PAXA, eax ; ServerKillConnection

; 82   : 			PacketManager = (void *)0;

	mov	DWORD PTR ?PacketManager@@3PAXA, eax	; PacketManager

; 83   : 			Bandwidth_Out = (BandwidthOut)0;

	mov	DWORD PTR ?Bandwidth_Out@@3P6AHPAUsockaddr_in@@@ZA, eax ; Bandwidth_Out

; 84   : 			Get_Address = (GetAddress)0;

	mov	DWORD PTR ?Get_Address@@3P6APAUsockaddr_in@@XZA, eax ; Get_Address

; 85   : 			Get_Remote_Host = (GetRemoteHost)0;

	mov	DWORD PTR ?Get_Remote_Host@@3P6APADH@ZA, eax ; Get_Remote_Host

; 86   : 			ServerConnection = (char **)0;

	mov	DWORD PTR ?ServerConnection@@3PAPADA, eax ; ServerConnection

; 87   : 			break;
; 88   : 	}
; 89   : }

	ret	0
	npad	2
$LN10@InitEngine@9:
	DD	$LN5@InitEngine@9
	DD	$LN4@InitEngine@9
	DD	$LN3@InitEngine@9
	DD	$LN2@InitEngine@9
?InitEngineNet@@YAXI@Z ENDP				; InitEngineNet
END
