; Listing generated by Microsoft (R) Optimizing Compiler Version 15.00.30729.01 

	TITLE	c:\Users\Admin\Desktop\Projects\SEye_Server\engine_bhs.cpp
	.686P
	.XMM
	include listing.inc
	.model	flat

INCLUDELIB OLDNAMES

PUBLIC	??_R4?$VectorClass@PAE@@6B@			; VectorClass<unsigned char *>::`RTTI Complete Object Locator'
PUBLIC	??_R3?$VectorClass@PAE@@8			; VectorClass<unsigned char *>::`RTTI Class Hierarchy Descriptor'
PUBLIC	??_R2?$VectorClass@PAE@@8			; VectorClass<unsigned char *>::`RTTI Base Class Array'
PUBLIC	??_R1A@?0A@EA@?$VectorClass@PAE@@8		; VectorClass<unsigned char *>::`RTTI Base Class Descriptor at (0,-1,0,64)'
PUBLIC	??_R0?AV?$VectorClass@PAE@@@8			; VectorClass<unsigned char *> `RTTI Type Descriptor'
PUBLIC	?Length@?$VectorClass@PAE@@QAEHXZ		; VectorClass<unsigned char *>::Length
PUBLIC	??A?$VectorClass@PAE@@QAEAAPAEH@Z		; VectorClass<unsigned char *>::operator[]
PUBLIC	??8?$VectorClass@PAE@@UAE_NAAV0@@Z		; VectorClass<unsigned char *>::operator==
PUBLIC	?Resize@?$VectorClass@PAE@@UAE_NHPAPAE@Z	; VectorClass<unsigned char *>::Resize
PUBLIC	?Clear@?$VectorClass@PAE@@UAEXXZ		; VectorClass<unsigned char *>::Clear
PUBLIC	?ID@?$VectorClass@PAE@@UAEHAAPAE@Z		; VectorClass<unsigned char *>::ID
PUBLIC	?ID@?$VectorClass@PAE@@UAEHPAPAE@Z		; VectorClass<unsigned char *>::ID
PUBLIC	??1?$VectorClass@PAE@@UAE@XZ			; VectorClass<unsigned char *>::~VectorClass<unsigned char *>
PUBLIC	??_G?$VectorClass@PAE@@UAEPAXI@Z		; VectorClass<unsigned char *>::`scalar deleting destructor'
PUBLIC	??0?$VectorClass@PAE@@QAE@ABV0@@Z		; VectorClass<unsigned char *>::VectorClass<unsigned char *>
PUBLIC	?Get_Build_Time_Multiplier@@3P6AMH@ZA		; Get_Build_Time_Multiplier
PUBLIC	?Enable_Radar_Player@@3P6AXPAE_N@ZA		; Enable_Radar_Player
PUBLIC	?Update_PT_Data@@3P6AXXZA			; Update_PT_Data
PUBLIC	?Change_Time_Remaining@@3P6AXM@ZA		; Change_Time_Remaining
PUBLIC	?Set_Reticle_Texture1@@3P6AXPAEPBD@ZA		; Set_Reticle_Texture1
PUBLIC	?Enable_Stealth_Player@@3P6AXPAE0_N@ZA		; Enable_Stealth_Player
PUBLIC	?Is_Currently_Building@@3P6A_NH@ZA		; Is_Currently_Building
PUBLIC	?Create_2D_Sound_Player@@3P6AHPAEPBD@ZA		; Create_2D_Sound_Player
PUBLIC	?AddPowerupPurchaseMonHook@@3P6AHP6AXPAVBaseControllerClass@@PAEIIIPBD@Z2@ZA ; AddPowerupPurchaseMonHook
PUBLIC	?AddObjectCreateHook@@3P6AHPAUObjectCreateHookStruct@@@ZA ; AddObjectCreateHook
PUBLIC	?Display_Security_Dialog@@3P6AXPAE@ZA		; Display_Security_Dialog
PUBLIC	?Remove_Weapon@@3P6AXPAEPBD@ZA			; Remove_Weapon
PUBLIC	?AddPlayerJoinHook@@3P6AXP6AXHPBD@Z@ZA		; AddPlayerJoinHook
PUBLIC	?Set_Scope@@3P6AXPAEH@ZA			; Set_Scope
PUBLIC	?AddLoadLevelHook@@3P6AXP6AXXZ@ZA		; AddLoadLevelHook
PUBLIC	?AddPlayerLeaveHook@@3P6AXP6AXH@Z@ZA		; AddPlayerLeaveHook
PUBLIC	?GetCurrentMusicTrack@@3P6APBDXZA		; GetCurrentMusicTrack
PUBLIC	?Create_2D_WAV_Sound_Player@@3P6AHPAEPBD@ZA	; Create_2D_WAV_Sound_Player
PUBLIC	?Display_Float_Player@@3P6AXPAEMPBD@ZA		; Display_Float_Player
PUBLIC	?AddCRCHook@@3P6AXP6AXIH@Z@ZA			; AddCRCHook
PUBLIC	?Set_Obj_Radar_Blip_Color_Player@@3P6AXPAE0H@ZA	; Set_Obj_Radar_Blip_Color_Player
PUBLIC	?Get_Vehicle_Limit@@3P6AKXZA			; Get_Vehicle_Limit
PUBLIC	?Set_Fog_Density_Player@@3P6AXPAEM@ZA		; Set_Fog_Density_Player
PUBLIC	?AddVehiclePurchaseMonHook@@3P6AHP6AXPAVBaseControllerClass@@PAEIIIPBD@Z2@ZA ; AddVehiclePurchaseMonHook
PUBLIC	?Set_Obj_Radar_Blip_Shape_Player@@3P6AXPAE0H@ZA	; Set_Obj_Radar_Blip_Shape_Player
PUBLIC	?RemoveVehiclePurchaseHook@@3P6AXH@ZA		; RemoveVehiclePurchaseHook
PUBLIC	?RemoveCharacterPurchaseMonHook@@3P6AXH@ZA	; RemoveCharacterPurchaseMonHook
PUBLIC	?Set_Fog_Mode_Player@@3P6AXPAEI@ZA		; Set_Fog_Mode_Player
PUBLIC	?AddKeyHook@@3P6AHPAUKeyHookStruct@@@ZA		; AddKeyHook
PUBLIC	?Display_Int_Player@@3P6AXPAEHPBD@ZA		; Display_Int_Player
PUBLIC	?Set_Reticle_Texture2@@3P6AXPAEPBD@ZA		; Set_Reticle_Texture2
PUBLIC	?Set_Background_Music_Player@@3P6AXPAEPBD@ZA	; Set_Background_Music_Player
PUBLIC	?RemoveObjectCreateHook@@3P6AXH@ZA		; RemoveObjectCreateHook
PUBLIC	?AddConsoleOutputHook@@3P6AXP6AXPBD@Z@ZA	; AddConsoleOutputHook
PUBLIC	?Set_Screen_Fade_Opacity_Player@@3P6AXPAEMM@ZA	; Set_Screen_Fade_Opacity_Player
PUBLIC	?Create_3D_Sound_At_Bone_Player@@3P6AHPAEPBD01@ZA ; Create_3D_Sound_At_Bone_Player
PUBLIC	?Load_New_HUD_INI@@3P6AXPAEPBD@ZA		; Load_New_HUD_INI
PUBLIC	?RemoveVehiclePurchaseMonHook@@3P6AXH@ZA	; RemoveVehiclePurchaseMonHook
PUBLIC	?Create_Sound_Player@@3P6AHPAEPBDABUVector3@@0@ZA ; Create_Sound_Player
PUBLIC	?AddChatHook@@3P6AXP6AXHW4TextMessageEnum@@PB_W@Z@ZA ; AddChatHook
PUBLIC	?RemoveKeyHook@@3P6AXH@ZA			; RemoveKeyHook
PUBLIC	?Set_Wireframe_Mode@@3P6AXH@ZA			; Set_Wireframe_Mode
PUBLIC	?Force_Camera_Look_Player@@3P6AXPAEABUVector3@@@ZA ; Force_Camera_Look_Player
PUBLIC	?Set_Fog_Range_Player@@3P6AXPAEMMM@ZA		; Set_Fog_Range_Player
PUBLIC	?Clear_Info_Texture@@3P6AXPAE@ZA		; Clear_Info_Texture
PUBLIC	?Set_Fog_Color_Player@@3P6AXPAEIII@ZA		; Set_Fog_Color_Player
PUBLIC	?Enable_HUD_Player@@3P6AXPAE_N@ZA		; Enable_HUD_Player
PUBLIC	?Display_NOD_Player_Terminal_Player@@3P6AXPAE@ZA ; Display_NOD_Player_Terminal_Player
PUBLIC	?RemoveCharacterPurchaseHook@@3P6AXH@ZA		; RemoveCharacterPurchaseHook
PUBLIC	?Change_Time_Limit@@3P6AXH@ZA			; Change_Time_Limit
PUBLIC	?Send_Message_Player@@3P6AXPAEIIIPBD@ZA		; Send_Message_Player
PUBLIC	?Set_Currently_Building@@3P6AX_NH@ZA		; Set_Currently_Building
PUBLIC	?RemovePowerupPurchaseMonHook@@3P6AXH@ZA	; RemovePowerupPurchaseMonHook
PUBLIC	?AddCharacterPurchaseMonHook@@3P6AHP6AXPAVBaseControllerClass@@PAEIIIPBD@Z2@ZA ; AddCharacterPurchaseMonHook
PUBLIC	?Set_Vehicle_Limit@@3P6AXI@ZA			; Set_Vehicle_Limit
PUBLIC	?GetExplosionObj@@3P6APAEXZA			; GetExplosionObj
PUBLIC	?Set_Fog_Mode@@3P6AXI@ZA			; Set_Fog_Mode
PUBLIC	?AddVersionHook@@3P6AXP6AXHM@Z@ZA		; AddVersionHook
PUBLIC	?Set_Info_Texture@@3P6AXPAEPBD@ZA		; Set_Info_Texture
PUBLIC	?Create_3D_WAV_Sound_At_Bone_Player@@3P6AHPAEPBD01@ZA ; Create_3D_WAV_Sound_At_Bone_Player
PUBLIC	?Set_Fog_Enable_Player@@3P6AXPAE_N@ZA		; Set_Fog_Enable_Player
PUBLIC	?Set_Screen_Fade_Color_Player@@3P6AXPAEMMMM@ZA	; Set_Screen_Fade_Color_Player
PUBLIC	?AddGameOverHook@@3P6AXP6AXXZ@ZA		; AddGameOverHook
PUBLIC	?Set_Display_Color_Player@@3P6AXPAEEEE@ZA	; Set_Display_Color_Player
PUBLIC	?Display_Text_Player@@3P6AXPAEH@ZA		; Display_Text_Player
PUBLIC	?AddCharacterPurchaseHook@@3P6AHP6AHPAVBaseControllerClass@@PAEIIPBD@Z2@ZA ; AddCharacterPurchaseHook
PUBLIC	?Set_Fog_Density@@3P6AXM@ZA			; Set_Fog_Density
PUBLIC	?AddHostHook@@3P6AXP6AXHW4TextMessageEnum@@PBD@Z@ZA ; AddHostHook
PUBLIC	?RemovePowerupPurchaseHook@@3P6AXH@ZA		; RemovePowerupPurchaseHook
PUBLIC	?AddDataHook@@3P6AXP6AXHIPAI@Z@ZA		; AddDataHook
PUBLIC	?Set_Fog_Color@@3P6AXIII@ZA			; Set_Fog_Color
PUBLIC	?Set_HUD_Texture@@3P6AXPAEPBD@ZA		; Set_HUD_Texture
PUBLIC	?Display_GDI_Sidebar@@3P6AXPAE@ZA		; Display_GDI_Sidebar
PUBLIC	?Display_NOD_Sidebar@@3P6AXPAE@ZA		; Display_NOD_Sidebar
PUBLIC	?Stop_Background_Music_Player@@3P6AXPAE@ZA	; Stop_Background_Music_Player
PUBLIC	?Display_GDI_Player_Terminal_Player@@3P6AXPAE@ZA ; Display_GDI_Player_Terminal_Player
PUBLIC	?Change_Radar_Map@@3P6AXMMMPBD@ZA		; Change_Radar_Map
PUBLIC	?AddVehiclePurchaseHook@@3P6AHP6AHPAVBaseControllerClass@@PAEIIPBD@Z2@ZA ; AddVehiclePurchaseHook
PUBLIC	?Send_Message@@3P6AXIIIPBD@ZA			; Send_Message
PUBLIC	?Set_Shader_Number@@3P6AXPAEIM@ZA		; Set_Shader_Number
PUBLIC	?AddPowerupPurchaseHook@@3P6AHP6AHPAVBaseControllerClass@@PAEIIPBD@Z2@ZA ; AddPowerupPurchaseHook
PUBLIC	?Fade_Background_Music_Player@@3P6AXPAEPBDHH@ZA	; Fade_Background_Music_Player
PUBLIC	??_C@_0BO@HMNPFMNA@JFW_Stealth_Generator_Ignored?$AA@ ; `string'
PUBLIC	??_C@_0BJ@DJHLIANK@RA_Gap_Generator_Ignored?$AA@ ; `string'
PUBLIC	??_7?$VectorClass@PAE@@6B@			; VectorClass<unsigned char *>::`vftable'
EXTRN	??_E?$VectorClass@PAE@@UAEPAXI@Z:PROC		; VectorClass<unsigned char *>::`vector deleting destructor'
?Get_Build_Time_Multiplier@@3P6AMH@ZA DD 01H DUP (?)	; Get_Build_Time_Multiplier
?Enable_Radar_Player@@3P6AXPAE_N@ZA DD 01H DUP (?)	; Enable_Radar_Player
?Update_PT_Data@@3P6AXXZA DD 01H DUP (?)		; Update_PT_Data
?Change_Time_Remaining@@3P6AXM@ZA DD 01H DUP (?)	; Change_Time_Remaining
?Set_Reticle_Texture1@@3P6AXPAEPBD@ZA DD 01H DUP (?)	; Set_Reticle_Texture1
?Enable_Stealth_Player@@3P6AXPAE0_N@ZA DD 01H DUP (?)	; Enable_Stealth_Player
?Is_Currently_Building@@3P6A_NH@ZA DD 01H DUP (?)	; Is_Currently_Building
?Create_2D_Sound_Player@@3P6AHPAEPBD@ZA DD 01H DUP (?)	; Create_2D_Sound_Player
?AddPowerupPurchaseMonHook@@3P6AHP6AXPAVBaseControllerClass@@PAEIIIPBD@Z2@ZA DD 01H DUP (?) ; AddPowerupPurchaseMonHook
?AddObjectCreateHook@@3P6AHPAUObjectCreateHookStruct@@@ZA DD 01H DUP (?) ; AddObjectCreateHook
?Display_Security_Dialog@@3P6AXPAE@ZA DD 01H DUP (?)	; Display_Security_Dialog
?Remove_Weapon@@3P6AXPAEPBD@ZA DD 01H DUP (?)		; Remove_Weapon
?AddPlayerJoinHook@@3P6AXP6AXHPBD@Z@ZA DD 01H DUP (?)	; AddPlayerJoinHook
?Set_Scope@@3P6AXPAEH@ZA DD 01H DUP (?)			; Set_Scope
?AddLoadLevelHook@@3P6AXP6AXXZ@ZA DD 01H DUP (?)	; AddLoadLevelHook
?AddPlayerLeaveHook@@3P6AXP6AXH@Z@ZA DD 01H DUP (?)	; AddPlayerLeaveHook
?GetCurrentMusicTrack@@3P6APBDXZA DD 01H DUP (?)	; GetCurrentMusicTrack
?Create_2D_WAV_Sound_Player@@3P6AHPAEPBD@ZA DD 01H DUP (?) ; Create_2D_WAV_Sound_Player
?Display_Float_Player@@3P6AXPAEMPBD@ZA DD 01H DUP (?)	; Display_Float_Player
?AddCRCHook@@3P6AXP6AXIH@Z@ZA DD 01H DUP (?)		; AddCRCHook
?Set_Obj_Radar_Blip_Color_Player@@3P6AXPAE0H@ZA DD 01H DUP (?) ; Set_Obj_Radar_Blip_Color_Player
?Get_Vehicle_Limit@@3P6AKXZA DD 01H DUP (?)		; Get_Vehicle_Limit
?Set_Fog_Density_Player@@3P6AXPAEM@ZA DD 01H DUP (?)	; Set_Fog_Density_Player
?AddVehiclePurchaseMonHook@@3P6AHP6AXPAVBaseControllerClass@@PAEIIIPBD@Z2@ZA DD 01H DUP (?) ; AddVehiclePurchaseMonHook
?Set_Obj_Radar_Blip_Shape_Player@@3P6AXPAE0H@ZA DD 01H DUP (?) ; Set_Obj_Radar_Blip_Shape_Player
?RemoveVehiclePurchaseHook@@3P6AXH@ZA DD 01H DUP (?)	; RemoveVehiclePurchaseHook
?RemoveCharacterPurchaseMonHook@@3P6AXH@ZA DD 01H DUP (?) ; RemoveCharacterPurchaseMonHook
?Set_Fog_Mode_Player@@3P6AXPAEI@ZA DD 01H DUP (?)	; Set_Fog_Mode_Player
?AddKeyHook@@3P6AHPAUKeyHookStruct@@@ZA DD 01H DUP (?)	; AddKeyHook
?Display_Int_Player@@3P6AXPAEHPBD@ZA DD 01H DUP (?)	; Display_Int_Player
?Set_Reticle_Texture2@@3P6AXPAEPBD@ZA DD 01H DUP (?)	; Set_Reticle_Texture2
?Set_Background_Music_Player@@3P6AXPAEPBD@ZA DD 01H DUP (?) ; Set_Background_Music_Player
?RemoveObjectCreateHook@@3P6AXH@ZA DD 01H DUP (?)	; RemoveObjectCreateHook
?AddConsoleOutputHook@@3P6AXP6AXPBD@Z@ZA DD 01H DUP (?)	; AddConsoleOutputHook
?Set_Screen_Fade_Opacity_Player@@3P6AXPAEMM@ZA DD 01H DUP (?) ; Set_Screen_Fade_Opacity_Player
?Create_3D_Sound_At_Bone_Player@@3P6AHPAEPBD01@ZA DD 01H DUP (?) ; Create_3D_Sound_At_Bone_Player
?Load_New_HUD_INI@@3P6AXPAEPBD@ZA DD 01H DUP (?)	; Load_New_HUD_INI
?RemoveVehiclePurchaseMonHook@@3P6AXH@ZA DD 01H DUP (?)	; RemoveVehiclePurchaseMonHook
?Create_Sound_Player@@3P6AHPAEPBDABUVector3@@0@ZA DD 01H DUP (?) ; Create_Sound_Player
?AddChatHook@@3P6AXP6AXHW4TextMessageEnum@@PB_W@Z@ZA DD 01H DUP (?) ; AddChatHook
?RemoveKeyHook@@3P6AXH@ZA DD 01H DUP (?)		; RemoveKeyHook
?Set_Wireframe_Mode@@3P6AXH@ZA DD 01H DUP (?)		; Set_Wireframe_Mode
?Force_Camera_Look_Player@@3P6AXPAEABUVector3@@@ZA DD 01H DUP (?) ; Force_Camera_Look_Player
?Set_Fog_Range_Player@@3P6AXPAEMMM@ZA DD 01H DUP (?)	; Set_Fog_Range_Player
?Clear_Info_Texture@@3P6AXPAE@ZA DD 01H DUP (?)		; Clear_Info_Texture
?Set_Fog_Color_Player@@3P6AXPAEIII@ZA DD 01H DUP (?)	; Set_Fog_Color_Player
?Enable_HUD_Player@@3P6AXPAE_N@ZA DD 01H DUP (?)	; Enable_HUD_Player
?Display_NOD_Player_Terminal_Player@@3P6AXPAE@ZA DD 01H DUP (?) ; Display_NOD_Player_Terminal_Player
?RemoveCharacterPurchaseHook@@3P6AXH@ZA DD 01H DUP (?)	; RemoveCharacterPurchaseHook
?Change_Time_Limit@@3P6AXH@ZA DD 01H DUP (?)		; Change_Time_Limit
?Send_Message_Player@@3P6AXPAEIIIPBD@ZA DD 01H DUP (?)	; Send_Message_Player
?Set_Currently_Building@@3P6AX_NH@ZA DD 01H DUP (?)	; Set_Currently_Building
?RemovePowerupPurchaseMonHook@@3P6AXH@ZA DD 01H DUP (?)	; RemovePowerupPurchaseMonHook
?AddCharacterPurchaseMonHook@@3P6AHP6AXPAVBaseControllerClass@@PAEIIIPBD@Z2@ZA DD 01H DUP (?) ; AddCharacterPurchaseMonHook
?Set_Vehicle_Limit@@3P6AXI@ZA DD 01H DUP (?)		; Set_Vehicle_Limit
?GetExplosionObj@@3P6APAEXZA DD 01H DUP (?)		; GetExplosionObj
?Set_Fog_Mode@@3P6AXI@ZA DD 01H DUP (?)			; Set_Fog_Mode
?AddVersionHook@@3P6AXP6AXHM@Z@ZA DD 01H DUP (?)	; AddVersionHook
?Set_Info_Texture@@3P6AXPAEPBD@ZA DD 01H DUP (?)	; Set_Info_Texture
?Create_3D_WAV_Sound_At_Bone_Player@@3P6AHPAEPBD01@ZA DD 01H DUP (?) ; Create_3D_WAV_Sound_At_Bone_Player
?Set_Fog_Enable_Player@@3P6AXPAE_N@ZA DD 01H DUP (?)	; Set_Fog_Enable_Player
?Set_Screen_Fade_Color_Player@@3P6AXPAEMMMM@ZA DD 01H DUP (?) ; Set_Screen_Fade_Color_Player
?AddGameOverHook@@3P6AXP6AXXZ@ZA DD 01H DUP (?)		; AddGameOverHook
?Set_Display_Color_Player@@3P6AXPAEEEE@ZA DD 01H DUP (?) ; Set_Display_Color_Player
?Display_Text_Player@@3P6AXPAEH@ZA DD 01H DUP (?)	; Display_Text_Player
?AddCharacterPurchaseHook@@3P6AHP6AHPAVBaseControllerClass@@PAEIIPBD@Z2@ZA DD 01H DUP (?) ; AddCharacterPurchaseHook
?Set_Fog_Density@@3P6AXM@ZA DD 01H DUP (?)		; Set_Fog_Density
?AddHostHook@@3P6AXP6AXHW4TextMessageEnum@@PBD@Z@ZA DD 01H DUP (?) ; AddHostHook
?RemovePowerupPurchaseHook@@3P6AXH@ZA DD 01H DUP (?)	; RemovePowerupPurchaseHook
?AddDataHook@@3P6AXP6AXHIPAI@Z@ZA DD 01H DUP (?)	; AddDataHook
?Set_Fog_Color@@3P6AXIII@ZA DD 01H DUP (?)		; Set_Fog_Color
?Set_HUD_Texture@@3P6AXPAEPBD@ZA DD 01H DUP (?)		; Set_HUD_Texture
?Display_GDI_Sidebar@@3P6AXPAE@ZA DD 01H DUP (?)	; Display_GDI_Sidebar
?Display_NOD_Sidebar@@3P6AXPAE@ZA DD 01H DUP (?)	; Display_NOD_Sidebar
?Stop_Background_Music_Player@@3P6AXPAE@ZA DD 01H DUP (?) ; Stop_Background_Music_Player
?Display_GDI_Player_Terminal_Player@@3P6AXPAE@ZA DD 01H DUP (?) ; Display_GDI_Player_Terminal_Player
?Change_Radar_Map@@3P6AXMMMPBD@ZA DD 01H DUP (?)	; Change_Radar_Map
?AddVehiclePurchaseHook@@3P6AHP6AHPAVBaseControllerClass@@PAEIIPBD@Z2@ZA DD 01H DUP (?) ; AddVehiclePurchaseHook
?Send_Message@@3P6AXIIIPBD@ZA DD 01H DUP (?)		; Send_Message
?Set_Shader_Number@@3P6AXPAEIM@ZA DD 01H DUP (?)	; Set_Shader_Number
?AddPowerupPurchaseHook@@3P6AHP6AHPAVBaseControllerClass@@PAEIIPBD@Z2@ZA DD 01H DUP (?) ; AddPowerupPurchaseHook
?Fade_Background_Music_Player@@3P6AXPAEPBDHH@ZA DD 01H DUP (?) ; Fade_Background_Music_Player
;	COMDAT ??_7?$VectorClass@PAE@@6B@
CONST	SEGMENT
??_7?$VectorClass@PAE@@6B@ DD FLAT:??_R4?$VectorClass@PAE@@6B@ ; VectorClass<unsigned char *>::`vftable'
	DD	FLAT:??_E?$VectorClass@PAE@@UAEPAXI@Z
	DD	FLAT:??8?$VectorClass@PAE@@UAE_NAAV0@@Z
	DD	FLAT:?Resize@?$VectorClass@PAE@@UAE_NHPAPAE@Z
	DD	FLAT:?Clear@?$VectorClass@PAE@@UAEXXZ
	DD	FLAT:?ID@?$VectorClass@PAE@@UAEHPAPAE@Z
	DD	FLAT:?ID@?$VectorClass@PAE@@UAEHAAPAE@Z
CONST	ENDS
;	COMDAT ??_R4?$VectorClass@PAE@@6B@
rdata$r	SEGMENT
??_R4?$VectorClass@PAE@@6B@ DD 00H			; VectorClass<unsigned char *>::`RTTI Complete Object Locator'
	DD	00H
	DD	00H
	DD	FLAT:??_R0?AV?$VectorClass@PAE@@@8
	DD	FLAT:??_R3?$VectorClass@PAE@@8
rdata$r	ENDS
;	COMDAT ??_R3?$VectorClass@PAE@@8
rdata$r	SEGMENT
??_R3?$VectorClass@PAE@@8 DD 00H			; VectorClass<unsigned char *>::`RTTI Class Hierarchy Descriptor'
	DD	00H
	DD	01H
	DD	FLAT:??_R2?$VectorClass@PAE@@8
rdata$r	ENDS
;	COMDAT ??_R2?$VectorClass@PAE@@8
rdata$r	SEGMENT
??_R2?$VectorClass@PAE@@8 DD FLAT:??_R1A@?0A@EA@?$VectorClass@PAE@@8 ; VectorClass<unsigned char *>::`RTTI Base Class Array'
rdata$r	ENDS
;	COMDAT ??_R1A@?0A@EA@?$VectorClass@PAE@@8
rdata$r	SEGMENT
??_R1A@?0A@EA@?$VectorClass@PAE@@8 DD FLAT:??_R0?AV?$VectorClass@PAE@@@8 ; VectorClass<unsigned char *>::`RTTI Base Class Descriptor at (0,-1,0,64)'
	DD	00H
	DD	00H
	DD	0ffffffffH
	DD	00H
	DD	040H
	DD	FLAT:??_R3?$VectorClass@PAE@@8
rdata$r	ENDS
;	COMDAT ??_R0?AV?$VectorClass@PAE@@@8
_DATA	SEGMENT
??_R0?AV?$VectorClass@PAE@@@8 DD FLAT:??_7type_info@@6B@ ; VectorClass<unsigned char *> `RTTI Type Descriptor'
	DD	00H
	DB	'.?AV?$VectorClass@PAE@@', 00H
_DATA	ENDS
;	COMDAT ??_C@_0BJ@DJHLIANK@RA_Gap_Generator_Ignored?$AA@
CONST	SEGMENT
??_C@_0BJ@DJHLIANK@RA_Gap_Generator_Ignored?$AA@ DB 'RA_Gap_Generator_Ign'
	DB	'ored', 00H					; `string'
CONST	ENDS
;	COMDAT ??_C@_0BO@HMNPFMNA@JFW_Stealth_Generator_Ignored?$AA@
CONST	SEGMENT
??_C@_0BO@HMNPFMNA@JFW_Stealth_Generator_Ignored?$AA@ DB 'JFW_Stealth_Gen'
	DB	'erator_Ignored', 00H			; `string'
; Function compile flags: /Ogtpy
; File c:\users\admin\desktop\projects\seye_server\engine_vector.h
;	COMDAT ?ID@?$VectorClass@PAE@@UAEHPAPAE@Z
_TEXT	SEGMENT
_ptr$ = 8						; size = 4
?ID@?$VectorClass@PAE@@UAEHPAPAE@Z PROC			; VectorClass<unsigned char *>::ID, COMDAT
; _this$ = ecx

; 53   : 		return 0;

	xor	eax, eax

; 54   : 	}

	ret	4
?ID@?$VectorClass@PAE@@UAEHPAPAE@Z ENDP			; VectorClass<unsigned char *>::ID
; Function compile flags: /Ogtpy
_TEXT	ENDS
;	COMDAT ?ID@?$VectorClass@PAE@@UAEHAAPAE@Z
_TEXT	SEGMENT
_object$ = 8						; size = 4
?ID@?$VectorClass@PAE@@UAEHAAPAE@Z PROC			; VectorClass<unsigned char *>::ID, COMDAT
; _this$ = ecx

; 49   : 		return 0;

	xor	eax, eax

; 50   : 	}

	ret	4
?ID@?$VectorClass@PAE@@UAEHAAPAE@Z ENDP			; VectorClass<unsigned char *>::ID
; Function compile flags: /Ogtpy
_TEXT	ENDS
;	COMDAT ?Clear@?$VectorClass@PAE@@UAEXXZ
_TEXT	SEGMENT
?Clear@?$VectorClass@PAE@@UAEXXZ PROC			; VectorClass<unsigned char *>::Clear, COMDAT
; _this$ = ecx

; 46   : 	}

	ret	0
?Clear@?$VectorClass@PAE@@UAEXXZ ENDP			; VectorClass<unsigned char *>::Clear
; Function compile flags: /Ogtpy
_TEXT	ENDS
;	COMDAT ?Resize@?$VectorClass@PAE@@UAE_NHPAPAE@Z
_TEXT	SEGMENT
_newsize$ = 8						; size = 4
_array$ = 12						; size = 4
?Resize@?$VectorClass@PAE@@UAE_NHPAPAE@Z PROC		; VectorClass<unsigned char *>::Resize, COMDAT
; _this$ = ecx

; 42   : 		return false;

	xor	al, al

; 43   : 	}

	ret	8
?Resize@?$VectorClass@PAE@@UAE_NHPAPAE@Z ENDP		; VectorClass<unsigned char *>::Resize
; Function compile flags: /Ogtpy
_TEXT	ENDS
;	COMDAT ??8?$VectorClass@PAE@@UAE_NAAV0@@Z
_TEXT	SEGMENT
_vector$ = 8						; size = 4
??8?$VectorClass@PAE@@UAE_NAAV0@@Z PROC			; VectorClass<unsigned char *>::operator==, COMDAT
; _this$ = ecx

; 38   : 		return false;

	xor	al, al

; 39   : 	}

	ret	4
??8?$VectorClass@PAE@@UAE_NAAV0@@Z ENDP			; VectorClass<unsigned char *>::operator==
; Function compile flags: /Ogtpy
_TEXT	ENDS
;	COMDAT ??A?$VectorClass@PAE@@QAEAAPAEH@Z
_TEXT	SEGMENT
??A?$VectorClass@PAE@@QAEAAPAEH@Z PROC			; VectorClass<unsigned char *>::operator[], COMDAT
; _this$ = eax
; _index$ = edx

; 34   : 		return Vector[index];

	mov	ecx, DWORD PTR [eax+4]
	lea	eax, DWORD PTR [ecx+edx*4]

; 35   : 	}

	ret	0
??A?$VectorClass@PAE@@QAEAAPAEH@Z ENDP			; VectorClass<unsigned char *>::operator[]
; Function compile flags: /Ogtpy
_TEXT	ENDS
;	COMDAT ?Length@?$VectorClass@PAE@@QAEHXZ
_TEXT	SEGMENT
?Length@?$VectorClass@PAE@@QAEHXZ PROC			; VectorClass<unsigned char *>::Length, COMDAT
; _this$ = eax

; 30   : 		return VectorMax;

	mov	eax, DWORD PTR [eax+8]

; 31   : 	}

	ret	0
?Length@?$VectorClass@PAE@@QAEHXZ ENDP			; VectorClass<unsigned char *>::Length
; Function compile flags: /Ogtpy
_TEXT	ENDS
;	COMDAT ??1?$VectorClass@PAE@@UAE@XZ
_TEXT	SEGMENT
??1?$VectorClass@PAE@@UAE@XZ PROC			; VectorClass<unsigned char *>::~VectorClass<unsigned char *>, COMDAT
; _this$ = ecx

; 26   : 	{

	mov	DWORD PTR [ecx], OFFSET ??_7?$VectorClass@PAE@@6B@

; 27   : 	}

	ret	0
??1?$VectorClass@PAE@@UAE@XZ ENDP			; VectorClass<unsigned char *>::~VectorClass<unsigned char *>
; Function compile flags: /Ogtpy
_TEXT	ENDS
;	COMDAT ??_G?$VectorClass@PAE@@UAEPAXI@Z
_TEXT	SEGMENT
___flags$ = 8						; size = 4
??_G?$VectorClass@PAE@@UAEPAXI@Z PROC			; VectorClass<unsigned char *>::`scalar deleting destructor', COMDAT
; _this$ = ecx
	test	BYTE PTR ___flags$[esp-4], 1
	push	esi
	mov	esi, ecx
	mov	DWORD PTR [esi], OFFSET ??_7?$VectorClass@PAE@@6B@
	je	SHORT $LN8@scalar
	push	esi
	call	DWORD PTR ?RenDelete@@3P6AXPAX@ZA	; RenDelete
	add	esp, 4
$LN8@scalar:
	mov	eax, esi
	pop	esi
	ret	4
??_G?$VectorClass@PAE@@UAEPAXI@Z ENDP			; VectorClass<unsigned char *>::`scalar deleting destructor'
; Function compile flags: /Ogtpy
_TEXT	ENDS
;	COMDAT ??0?$VectorClass@PAE@@QAE@ABV0@@Z
_TEXT	SEGMENT
??0?$VectorClass@PAE@@QAE@ABV0@@Z PROC			; VectorClass<unsigned char *>::VectorClass<unsigned char *>, COMDAT
; _this$ = eax
; ___that$ = ecx
	mov	DWORD PTR [eax], OFFSET ??_7?$VectorClass@PAE@@6B@
	mov	edx, DWORD PTR [ecx+4]
	mov	DWORD PTR [eax+4], edx
	mov	edx, DWORD PTR [ecx+8]
	mov	DWORD PTR [eax+8], edx
	mov	dl, BYTE PTR [ecx+12]
	mov	BYTE PTR [eax+12], dl
	mov	cl, BYTE PTR [ecx+13]
	mov	BYTE PTR [eax+13], cl
	ret	0
??0?$VectorClass@PAE@@QAE@ABV0@@Z ENDP			; VectorClass<unsigned char *>::VectorClass<unsigned char *>
END
