; Listing generated by Microsoft (R) Optimizing Compiler Version 15.00.30729.01 

	TITLE	c:\Users\Admin\Desktop\Projects\SEye_Server\gmcommandclass.cpp
	.686P
	.XMM
	include listing.inc
	.model	flat

INCLUDELIB OLDNAMES

PUBLIC	??_R4length_error@std@@6B@			; std::length_error::`RTTI Complete Object Locator'
PUBLIC	??_R3length_error@std@@8			; std::length_error::`RTTI Class Hierarchy Descriptor'
PUBLIC	??_R2length_error@std@@8			; std::length_error::`RTTI Base Class Array'
PUBLIC	??_R1A@?0A@EA@length_error@std@@8		; std::length_error::`RTTI Base Class Descriptor at (0,-1,0,64)'
PUBLIC	??_R4logic_error@std@@6B@			; std::logic_error::`RTTI Complete Object Locator'
PUBLIC	??_R3logic_error@std@@8				; std::logic_error::`RTTI Class Hierarchy Descriptor'
PUBLIC	??_R2logic_error@std@@8				; std::logic_error::`RTTI Base Class Array'
PUBLIC	??_R1A@?0A@EA@logic_error@std@@8		; std::logic_error::`RTTI Base Class Descriptor at (0,-1,0,64)'
PUBLIC	??4?$basic_string@DU?$char_traits@D@std@@V?$allocator@D@2@@std@@QAEAAV01@PBD@Z ; std::basic_string<char,std::char_traits<char>,std::allocator<char> >::operator=
PUBLIC	??0?$basic_string@DU?$char_traits@D@std@@V?$allocator@D@2@@std@@QAE@XZ ; std::basic_string<char,std::char_traits<char>,std::allocator<char> >::basic_string<char,std::char_traits<char>,std::allocator<char> >
PUBLIC	??0ChatCommandInfo@@QAE@XZ			; ChatCommandInfo::ChatCommandInfo
PUBLIC	??0?$allocator@PAUChatCommandInfo@@@std@@QAE@XZ	; std::allocator<ChatCommandInfo *>::allocator<ChatCommandInfo *>
PUBLIC	??2@YAPAXIPAX@Z					; operator new
PUBLIC	??3@YAXPAX0@Z					; operator delete
PUBLIC	??0_Aux_cont@std@@QAE@QBV_Container_base_aux@1@@Z ; std::_Aux_cont::_Aux_cont
PUBLIC	??0_Container_base_aux@std@@QAE@XZ		; std::_Container_base_aux::_Container_base_aux
PUBLIC	??$_Allocate@V_Aux_cont@std@@@std@@YAPAV_Aux_cont@0@IPAV10@@Z ; std::_Allocate<std::_Aux_cont>
PUBLIC	?allocate@?$allocator@V_Aux_cont@std@@@std@@QAEPAV_Aux_cont@2@I@Z ; std::allocator<std::_Aux_cont>::allocate
PUBLIC	??$?0PAUChatCommandInfo@@@?$allocator@V_Aux_cont@std@@@std@@QAE@ABV?$allocator@PAUChatCommandInfo@@@1@@Z ; std::allocator<std::_Aux_cont>::allocator<std::_Aux_cont><ChatCommandInfo *>
PUBLIC	??0?$_Container_base_aux_alloc_real@V?$allocator@PAUChatCommandInfo@@@std@@@std@@IAE@V?$allocator@PAUChatCommandInfo@@@1@@Z ; std::_Container_base_aux_alloc_real<std::allocator<ChatCommandInfo *> >::_Container_base_aux_alloc_real<std::allocator<ChatCommandInfo *> >
PUBLIC	??0?$allocator@PAUChatCommandInfo@@@std@@QAE@ABV01@@Z ; std::allocator<ChatCommandInfo *>::allocator<ChatCommandInfo *>
PUBLIC	??0?$_Vector_val@PAUChatCommandInfo@@V?$allocator@PAUChatCommandInfo@@@std@@@std@@IAE@V?$allocator@PAUChatCommandInfo@@@1@@Z ; std::_Vector_val<ChatCommandInfo *,std::allocator<ChatCommandInfo *> >::_Vector_val<ChatCommandInfo *,std::allocator<ChatCommandInfo *> >
PUBLIC	??1_Container_base_aux@std@@QAE@XZ		; std::_Container_base_aux::~_Container_base_aux
PUBLIC	?deallocate@?$allocator@V_Aux_cont@std@@@std@@QAEXPAV_Aux_cont@2@I@Z ; std::allocator<std::_Aux_cont>::deallocate
PUBLIC	??1?$_Container_base_aux_alloc_real@V?$allocator@PAUChatCommandInfo@@@std@@@std@@IAE@XZ ; std::_Container_base_aux_alloc_real<std::allocator<ChatCommandInfo *> >::~_Container_base_aux_alloc_real<std::allocator<ChatCommandInfo *> >
PUBLIC	??1?$_Vector_val@PAUChatCommandInfo@@V?$allocator@PAUChatCommandInfo@@@std@@@std@@QAE@XZ ; std::_Vector_val<ChatCommandInfo *,std::allocator<ChatCommandInfo *> >::~_Vector_val<ChatCommandInfo *,std::allocator<ChatCommandInfo *> >
PUBLIC	?_Buy@?$vector@PAUChatCommandInfo@@V?$allocator@PAUChatCommandInfo@@@std@@@std@@IAE_NI@Z ; std::vector<ChatCommandInfo *,std::allocator<ChatCommandInfo *> >::_Buy
PUBLIC	??0?$vector@PAUChatCommandInfo@@V?$allocator@PAUChatCommandInfo@@@std@@@std@@QAE@XZ ; std::vector<ChatCommandInfo *,std::allocator<ChatCommandInfo *> >::vector<ChatCommandInfo *,std::allocator<ChatCommandInfo *> >
PUBLIC	?end@?$vector@PAUChatCommandInfo@@V?$allocator@PAUChatCommandInfo@@@std@@@std@@QAE?AV?$_Vector_iterator@PAUChatCommandInfo@@V?$allocator@PAUChatCommandInfo@@@std@@@2@XZ ; std::vector<ChatCommandInfo *,std::allocator<ChatCommandInfo *> >::end
PUBLIC	?_Set_container@_Iterator_base_aux@std@@QAEXQBV_Container_base_aux@2@@Z ; std::_Iterator_base_aux::_Set_container
PUBLIC	??0_Iterator_base_aux@std@@QAE@XZ		; std::_Iterator_base_aux::_Iterator_base_aux
PUBLIC	??0?$_Iterator_with_base@Urandom_access_iterator_tag@std@@PAUChatCommandInfo@@HPBQAU3@ABQAU3@V_Iterator_base_aux@2@@std@@QAE@XZ ; std::_Iterator_with_base<std::random_access_iterator_tag,ChatCommandInfo *,int,ChatCommandInfo * const *,ChatCommandInfo * const &,std::_Iterator_base_aux>::_Iterator_with_base<std::random_access_iterator_tag,ChatCommandInfo *,int,ChatCommandInfo * const *,ChatCommandInfo * const &,std::_Iterator_base_aux>
PUBLIC	??0?$_Ranit@PAUChatCommandInfo@@HPBQAU1@ABQAU1@@std@@QAE@XZ ; std::_Ranit<ChatCommandInfo *,int,ChatCommandInfo * const *,ChatCommandInfo * const &>::_Ranit<ChatCommandInfo *,int,ChatCommandInfo * const *,ChatCommandInfo * const &>
PUBLIC	??0?$_Vector_const_iterator@PAUChatCommandInfo@@V?$allocator@PAUChatCommandInfo@@@std@@@std@@QAE@PAPAUChatCommandInfo@@PBV_Container_base_aux@1@@Z ; std::_Vector_const_iterator<ChatCommandInfo *,std::allocator<ChatCommandInfo *> >::_Vector_const_iterator<ChatCommandInfo *,std::allocator<ChatCommandInfo *> >
PUBLIC	??0?$_Vector_iterator@PAUChatCommandInfo@@V?$allocator@PAUChatCommandInfo@@@std@@@std@@QAE@PAPAUChatCommandInfo@@PBV_Container_base_aux@1@@Z ; std::_Vector_iterator<ChatCommandInfo *,std::allocator<ChatCommandInfo *> >::_Vector_iterator<ChatCommandInfo *,std::allocator<ChatCommandInfo *> >
PUBLIC	?begin@?$vector@PAUChatCommandInfo@@V?$allocator@PAUChatCommandInfo@@@std@@@std@@QAE?AV?$_Vector_iterator@PAUChatCommandInfo@@V?$allocator@PAUChatCommandInfo@@@std@@@2@XZ ; std::vector<ChatCommandInfo *,std::allocator<ChatCommandInfo *> >::begin
PUBLIC	?deallocate@?$allocator@PAUChatCommandInfo@@@std@@QAEXPAPAUChatCommandInfo@@I@Z ; std::allocator<ChatCommandInfo *>::deallocate
PUBLIC	??$_Allocate@PAUChatCommandInfo@@@std@@YAPAPAUChatCommandInfo@@IPAPAU1@@Z ; std::_Allocate<ChatCommandInfo *>
PUBLIC	?allocate@?$allocator@PAUChatCommandInfo@@@std@@QAEPAPAUChatCommandInfo@@I@Z ; std::allocator<ChatCommandInfo *>::allocate
PUBLIC	?capacity@?$vector@PAUChatCommandInfo@@V?$allocator@PAUChatCommandInfo@@@std@@@std@@QBEIXZ ; std::vector<ChatCommandInfo *,std::allocator<ChatCommandInfo *> >::capacity
PUBLIC	?size@?$vector@PAUChatCommandInfo@@V?$allocator@PAUChatCommandInfo@@@std@@@std@@QBEIXZ ; std::vector<ChatCommandInfo *,std::allocator<ChatCommandInfo *> >::size
PUBLIC	?max_size@?$allocator@PAUChatCommandInfo@@@std@@QBEIXZ ; std::allocator<ChatCommandInfo *>::max_size
PUBLIC	?max_size@?$vector@PAUChatCommandInfo@@V?$allocator@PAUChatCommandInfo@@@std@@@std@@QBEIXZ ; std::vector<ChatCommandInfo *,std::allocator<ChatCommandInfo *> >::max_size
PUBLIC	??$_Destroy_range@V?$allocator@PAUChatCommandInfo@@@std@@@std@@YAXPAPAUChatCommandInfo@@0AAV?$allocator@PAUChatCommandInfo@@@0@U_Scalar_ptr_iterator_tag@0@@Z ; std::_Destroy_range<std::allocator<ChatCommandInfo *> >
PUBLIC	??$_Destroy_range@V?$allocator@PAUChatCommandInfo@@@std@@@std@@YAXPAPAUChatCommandInfo@@0AAV?$allocator@PAUChatCommandInfo@@@0@@Z ; std::_Destroy_range<std::allocator<ChatCommandInfo *> >
PUBLIC	?_Destroy@?$vector@PAUChatCommandInfo@@V?$allocator@PAUChatCommandInfo@@@std@@@std@@IAEXPAPAUChatCommandInfo@@0@Z ; std::vector<ChatCommandInfo *,std::allocator<ChatCommandInfo *> >::_Destroy
PUBLIC	??0logic_error@std@@QAE@ABV?$basic_string@DU?$char_traits@D@std@@V?$allocator@D@2@@1@@Z ; std::logic_error::logic_error
PUBLIC	??0length_error@std@@QAE@ABV?$basic_string@DU?$char_traits@D@std@@V?$allocator@D@2@@1@@Z ; std::length_error::length_error
PUBLIC	??0logic_error@std@@QAE@ABV01@@Z		; std::logic_error::logic_error
PUBLIC	?what@logic_error@std@@UBEPBDXZ			; std::logic_error::what
PUBLIC	??_Glogic_error@std@@UAEPAXI@Z			; std::logic_error::`scalar deleting destructor'
PUBLIC	??1logic_error@std@@UAE@XZ			; std::logic_error::~logic_error
PUBLIC	??1length_error@std@@UAE@XZ			; std::length_error::~length_error
PUBLIC	??_Glength_error@std@@UAEPAXI@Z			; std::length_error::`scalar deleting destructor'
PUBLIC	??0length_error@std@@QAE@ABV01@@Z		; std::length_error::length_error
PUBLIC	?_Xlen@?$vector@PAUChatCommandInfo@@V?$allocator@PAUChatCommandInfo@@@std@@@std@@KAXXZ ; std::vector<ChatCommandInfo *,std::allocator<ChatCommandInfo *> >::_Xlen
PUBLIC	??$_Uninit_copy@PAPAUChatCommandInfo@@PAPAU1@V?$allocator@PAUChatCommandInfo@@@std@@@std@@YAPAPAUChatCommandInfo@@PAPAU1@00AAV?$allocator@PAUChatCommandInfo@@@0@U_Scalar_ptr_iterator_tag@0@U_Range_checked_iterator_tag@0@@Z ; std::_Uninit_copy<ChatCommandInfo * *,ChatCommandInfo * *,std::allocator<ChatCommandInfo *> >
PUBLIC	??$unchecked_uninitialized_copy@PAPAUChatCommandInfo@@PAPAU1@V?$allocator@PAUChatCommandInfo@@@std@@@stdext@@YAPAPAUChatCommandInfo@@PAPAU1@00AAV?$allocator@PAUChatCommandInfo@@@std@@@Z ; stdext::unchecked_uninitialized_copy<ChatCommandInfo * *,ChatCommandInfo * *,std::allocator<ChatCommandInfo *> >
PUBLIC	??$_Uninit_move@PAPAUChatCommandInfo@@PAPAU1@V?$allocator@PAUChatCommandInfo@@@std@@U_Undefined_move_tag@3@@std@@YAPAPAUChatCommandInfo@@PAPAU1@00AAV?$allocator@PAUChatCommandInfo@@@0@U_Undefined_move_tag@0@U_Range_checked_iterator_tag@0@@Z ; std::_Uninit_move<ChatCommandInfo * *,ChatCommandInfo * *,std::allocator<ChatCommandInfo *>,std::_Undefined_move_tag>
PUBLIC	??$_Unchecked_uninitialized_move@PAPAUChatCommandInfo@@PAPAU1@V?$allocator@PAUChatCommandInfo@@@std@@@stdext@@YAPAPAUChatCommandInfo@@PAPAU1@00AAV?$allocator@PAUChatCommandInfo@@@std@@@Z ; stdext::_Unchecked_uninitialized_move<ChatCommandInfo * *,ChatCommandInfo * *,std::allocator<ChatCommandInfo *> >
PUBLIC	??$_Umove@PAPAUChatCommandInfo@@@?$vector@PAUChatCommandInfo@@V?$allocator@PAUChatCommandInfo@@@std@@@std@@IAEPAPAUChatCommandInfo@@PAPAU2@00@Z ; std::vector<ChatCommandInfo *,std::allocator<ChatCommandInfo *> >::_Umove<ChatCommandInfo * *>
PUBLIC	??$_Fill@PAPAUChatCommandInfo@@PAU1@@std@@YAXPAPAUChatCommandInfo@@0ABQAU1@@Z ; std::_Fill<ChatCommandInfo * *,ChatCommandInfo *>
PUBLIC	??$fill@PAPAUChatCommandInfo@@PAU1@@std@@YAXPAPAUChatCommandInfo@@0ABQAU1@@Z ; std::fill<ChatCommandInfo * *,ChatCommandInfo *>
PUBLIC	??$_Iter_random@PAPAUChatCommandInfo@@PAPAU1@@std@@YA?AUrandom_access_iterator_tag@0@ABQAPAUChatCommandInfo@@0@Z ; std::_Iter_random<ChatCommandInfo * *,ChatCommandInfo * *>
PUBLIC	??$_Move_cat@PAPAUChatCommandInfo@@@std@@YA?AU_Undefined_move_tag@0@ABQAPAUChatCommandInfo@@@Z ; std::_Move_cat<ChatCommandInfo * *>
PUBLIC	??$_Copy_backward_opt@PAPAUChatCommandInfo@@PAPAU1@Urandom_access_iterator_tag@std@@@std@@YAPAPAUChatCommandInfo@@PAPAU1@00Urandom_access_iterator_tag@0@U_Scalar_ptr_iterator_tag@0@U_Range_checked_iterator_tag@0@@Z ; std::_Copy_backward_opt<ChatCommandInfo * *,ChatCommandInfo * *,std::random_access_iterator_tag>
PUBLIC	??$_Move_backward_opt@PAPAUChatCommandInfo@@PAPAU1@Urandom_access_iterator_tag@std@@U_Undefined_move_tag@3@@std@@YAPAPAUChatCommandInfo@@PAPAU1@00Urandom_access_iterator_tag@0@U_Undefined_move_tag@0@U_Range_checked_iterator_tag@0@@Z ; std::_Move_backward_opt<ChatCommandInfo * *,ChatCommandInfo * *,std::random_access_iterator_tag,std::_Undefined_move_tag>
PUBLIC	??$_Unchecked_move_backward@PAPAUChatCommandInfo@@PAPAU1@@stdext@@YAPAPAUChatCommandInfo@@PAPAU1@00@Z ; stdext::_Unchecked_move_backward<ChatCommandInfo * *,ChatCommandInfo * *>
PUBLIC	?_Insert_n@?$vector@PAUChatCommandInfo@@V?$allocator@PAUChatCommandInfo@@@std@@@std@@IAEXV?$_Vector_const_iterator@PAUChatCommandInfo@@V?$allocator@PAUChatCommandInfo@@@std@@@2@IABQAUChatCommandInfo@@@Z ; std::vector<ChatCommandInfo *,std::allocator<ChatCommandInfo *> >::_Insert_n
PUBLIC	??G?$_Vector_const_iterator@PAUChatCommandInfo@@V?$allocator@PAUChatCommandInfo@@@std@@@std@@QBEHABV01@@Z ; std::_Vector_const_iterator<ChatCommandInfo *,std::allocator<ChatCommandInfo *> >::operator-
PUBLIC	??Y?$_Vector_const_iterator@PAUChatCommandInfo@@V?$allocator@PAUChatCommandInfo@@@std@@@std@@QAEAAV01@H@Z ; std::_Vector_const_iterator<ChatCommandInfo *,std::allocator<ChatCommandInfo *> >::operator+=
PUBLIC	??Y?$_Vector_iterator@PAUChatCommandInfo@@V?$allocator@PAUChatCommandInfo@@@std@@@std@@QAEAAV01@H@Z ; std::_Vector_iterator<ChatCommandInfo *,std::allocator<ChatCommandInfo *> >::operator+=
PUBLIC	??H?$_Vector_iterator@PAUChatCommandInfo@@V?$allocator@PAUChatCommandInfo@@@std@@@std@@QBE?AV01@H@Z ; std::_Vector_iterator<ChatCommandInfo *,std::allocator<ChatCommandInfo *> >::operator+
PUBLIC	?insert@?$vector@PAUChatCommandInfo@@V?$allocator@PAUChatCommandInfo@@@std@@@std@@QAE?AV?$_Vector_iterator@PAUChatCommandInfo@@V?$allocator@PAUChatCommandInfo@@@std@@@2@V?$_Vector_const_iterator@PAUChatCommandInfo@@V?$allocator@PAUChatCommandInfo@@@std@@@2@ABQAUChatCommandInfo@@@Z ; std::vector<ChatCommandInfo *,std::allocator<ChatCommandInfo *> >::insert
PUBLIC	??$_Ptr_cat@PAPAUChatCommandInfo@@PAPAU1@@std@@YA?AU_Scalar_ptr_iterator_tag@0@AAPAPAUChatCommandInfo@@0@Z ; std::_Ptr_cat<ChatCommandInfo * *,ChatCommandInfo * *>
PUBLIC	??$_Iter_cat@PAPAUChatCommandInfo@@@std@@YA?AUrandom_access_iterator_tag@0@ABQAPAUChatCommandInfo@@@Z ; std::_Iter_cat<ChatCommandInfo * *>
PUBLIC	??$_Checked_base@PAPAUChatCommandInfo@@@std@@YAPAPAUChatCommandInfo@@AAPAPAU1@U_Unchanged_checked_iterator_base_type_tag@0@@Z ; std::_Checked_base<ChatCommandInfo * *>
PUBLIC	??$_Checked_base@PAPAUChatCommandInfo@@@std@@YAPAPAUChatCommandInfo@@AAPAPAU1@@Z ; std::_Checked_base<ChatCommandInfo * *>
PUBLIC	??$_Fill_n@PAPAUChatCommandInfo@@IPAU1@@std@@YAXPAPAUChatCommandInfo@@IABQAU1@U_Range_checked_iterator_tag@0@@Z ; std::_Fill_n<ChatCommandInfo * *,unsigned int,ChatCommandInfo *>
PUBLIC	??$_Fill_n@PAPAUChatCommandInfo@@IPAU1@@std@@YAXPAPAUChatCommandInfo@@IABQAU1@Urandom_access_iterator_tag@0@U_Range_checked_iterator_tag@0@@Z ; std::_Fill_n<ChatCommandInfo * *,unsigned int,ChatCommandInfo *>
PUBLIC	??$unchecked_fill_n@PAPAUChatCommandInfo@@IPAU1@@stdext@@YAXPAPAUChatCommandInfo@@IABQAU1@@Z ; stdext::unchecked_fill_n<ChatCommandInfo * *,unsigned int,ChatCommandInfo *>
PUBLIC	??$_Uninit_fill_n@PAPAUChatCommandInfo@@IPAU1@V?$allocator@PAUChatCommandInfo@@@std@@@std@@YAXPAPAUChatCommandInfo@@IABQAU1@AAV?$allocator@PAUChatCommandInfo@@@0@U_Scalar_ptr_iterator_tag@0@U_Range_checked_iterator_tag@0@@Z ; std::_Uninit_fill_n<ChatCommandInfo * *,unsigned int,ChatCommandInfo *,std::allocator<ChatCommandInfo *> >
PUBLIC	??$unchecked_uninitialized_fill_n@PAPAUChatCommandInfo@@IPAU1@V?$allocator@PAUChatCommandInfo@@@std@@@stdext@@YAXPAPAUChatCommandInfo@@IABQAU1@AAV?$allocator@PAUChatCommandInfo@@@std@@@Z ; stdext::unchecked_uninitialized_fill_n<ChatCommandInfo * *,unsigned int,ChatCommandInfo *,std::allocator<ChatCommandInfo *> >
PUBLIC	?_Ufill@?$vector@PAUChatCommandInfo@@V?$allocator@PAUChatCommandInfo@@@std@@@std@@IAEPAPAUChatCommandInfo@@PAPAU3@IABQAU3@@Z ; std::vector<ChatCommandInfo *,std::allocator<ChatCommandInfo *> >::_Ufill
PUBLIC	?push_back@?$vector@PAUChatCommandInfo@@V?$allocator@PAUChatCommandInfo@@@std@@@std@@QAEXABQAUChatCommandInfo@@@Z ; std::vector<ChatCommandInfo *,std::allocator<ChatCommandInfo *> >::push_back
PUBLIC	?_Same_container@_Iterator_base_aux@std@@QBE_NABV12@@Z ; std::_Iterator_base_aux::_Same_container
PUBLIC	??8?$_Vector_const_iterator@PAUChatCommandInfo@@V?$allocator@PAUChatCommandInfo@@@std@@@std@@QBE_NABV01@@Z ; std::_Vector_const_iterator<ChatCommandInfo *,std::allocator<ChatCommandInfo *> >::operator==
PUBLIC	??9?$_Vector_const_iterator@PAUChatCommandInfo@@V?$allocator@PAUChatCommandInfo@@@std@@@std@@QBE_NABV01@@Z ; std::_Vector_const_iterator<ChatCommandInfo *,std::allocator<ChatCommandInfo *> >::operator!=
PUBLIC	??D?$_Vector_const_iterator@PAUChatCommandInfo@@V?$allocator@PAUChatCommandInfo@@@std@@@std@@QBEABQAUChatCommandInfo@@XZ ; std::_Vector_const_iterator<ChatCommandInfo *,std::allocator<ChatCommandInfo *> >::operator*
PUBLIC	??D?$_Vector_iterator@PAUChatCommandInfo@@V?$allocator@PAUChatCommandInfo@@@std@@@std@@QBEAAPAUChatCommandInfo@@XZ ; std::_Vector_iterator<ChatCommandInfo *,std::allocator<ChatCommandInfo *> >::operator*
PUBLIC	?_Getcont@_Aux_cont@std@@QBEPBV_Container_base_aux@2@XZ ; std::_Aux_cont::_Getcont
PUBLIC	?_Getmycont@_Iterator_base_aux@std@@QBEPBV_Container_base_aux@2@XZ ; std::_Iterator_base_aux::_Getmycont
PUBLIC	?_Has_container@_Iterator_base_aux@std@@QBE_NXZ	; std::_Iterator_base_aux::_Has_container
PUBLIC	??E?$_Vector_const_iterator@PAUChatCommandInfo@@V?$allocator@PAUChatCommandInfo@@@std@@@std@@QAEAAV01@XZ ; std::_Vector_const_iterator<ChatCommandInfo *,std::allocator<ChatCommandInfo *> >::operator++
PUBLIC	??E?$_Vector_iterator@PAUChatCommandInfo@@V?$allocator@PAUChatCommandInfo@@@std@@@std@@QAEAAV01@XZ ; std::_Vector_iterator<ChatCommandInfo *,std::allocator<ChatCommandInfo *> >::operator++
PUBLIC	??E?$_Vector_iterator@PAUChatCommandInfo@@V?$allocator@PAUChatCommandInfo@@@std@@@std@@QAE?AV01@H@Z ; std::_Vector_iterator<ChatCommandInfo *,std::allocator<ChatCommandInfo *> >::operator++
PUBLIC	??_R0?AVlogic_error@std@@@8			; std::logic_error `RTTI Type Descriptor'
PUBLIC	__CT??_R0?AVlogic_error@std@@@8??0logic_error@std@@QAE@ABV01@@Z40
PUBLIC	??_C@_0GH@JAJKEBMD@ppage?5?$CFd?5Insufficient?5parameters@ ; `string'
PUBLIC	?List@ChatCommandList@@2PAV?$vector@PAUChatCommandInfo@@V?$allocator@PAUChatCommandInfo@@@std@@@std@@A ; ChatCommandList::List
PUBLIC	??_C@_0BD@OLBABOEK@vector?$DMT?$DO?5too?5long?$AA@ ; `string'
PUBLIC	??_R0?AVlength_error@std@@@8			; std::length_error `RTTI Type Descriptor'
PUBLIC	__CT??_R0?AVlength_error@std@@@8??0length_error@std@@QAE@ABV01@@Z40
PUBLIC	__CTA3?AVlength_error@std@@
PUBLIC	__TI3?AVlength_error@std@@
PUBLIC	??_7logic_error@std@@6B@			; std::logic_error::`vftable'
PUBLIC	??_7length_error@std@@6B@			; std::length_error::`vftable'
EXTRN	??0exception@std@@QAE@XZ:PROC			; std::exception::exception
EXTRN	??_Elogic_error@std@@UAEPAXI@Z:PROC		; std::logic_error::`vector deleting destructor'
EXTRN	??_Elength_error@std@@UAEPAXI@Z:PROC		; std::length_error::`vector deleting destructor'
EXTRN	__invalid_parameter_noinfo:PROC
?List@ChatCommandList@@2PAV?$vector@PAUChatCommandInfo@@V?$allocator@PAUChatCommandInfo@@@std@@@std@@A DD 01H DUP (?) ; ChatCommandList::List
;	COMDAT ??_7length_error@std@@6B@
CONST	SEGMENT
??_7length_error@std@@6B@ DD FLAT:??_R4length_error@std@@6B@ ; std::length_error::`vftable'
	DD	FLAT:??_Elength_error@std@@UAEPAXI@Z
	DD	FLAT:?what@logic_error@std@@UBEPBDXZ
CONST	ENDS
;	COMDAT ??_R4length_error@std@@6B@
rdata$r	SEGMENT
??_R4length_error@std@@6B@ DD 00H			; std::length_error::`RTTI Complete Object Locator'
	DD	00H
	DD	00H
	DD	FLAT:??_R0?AVlength_error@std@@@8
	DD	FLAT:??_R3length_error@std@@8
rdata$r	ENDS
;	COMDAT ??_R3length_error@std@@8
rdata$r	SEGMENT
??_R3length_error@std@@8 DD 00H				; std::length_error::`RTTI Class Hierarchy Descriptor'
	DD	00H
	DD	03H
	DD	FLAT:??_R2length_error@std@@8
rdata$r	ENDS
;	COMDAT ??_R2length_error@std@@8
rdata$r	SEGMENT
??_R2length_error@std@@8 DD FLAT:??_R1A@?0A@EA@length_error@std@@8 ; std::length_error::`RTTI Base Class Array'
	DD	FLAT:??_R1A@?0A@EA@logic_error@std@@8
	DD	FLAT:??_R1A@?0A@EA@exception@std@@8
rdata$r	ENDS
;	COMDAT ??_R1A@?0A@EA@length_error@std@@8
rdata$r	SEGMENT
??_R1A@?0A@EA@length_error@std@@8 DD FLAT:??_R0?AVlength_error@std@@@8 ; std::length_error::`RTTI Base Class Descriptor at (0,-1,0,64)'
	DD	02H
	DD	00H
	DD	0ffffffffH
	DD	00H
	DD	040H
	DD	FLAT:??_R3length_error@std@@8
rdata$r	ENDS
;	COMDAT ??_7logic_error@std@@6B@
CONST	SEGMENT
??_7logic_error@std@@6B@ DD FLAT:??_R4logic_error@std@@6B@ ; std::logic_error::`vftable'
	DD	FLAT:??_Elogic_error@std@@UAEPAXI@Z
	DD	FLAT:?what@logic_error@std@@UBEPBDXZ
CONST	ENDS
;	COMDAT ??_R4logic_error@std@@6B@
rdata$r	SEGMENT
??_R4logic_error@std@@6B@ DD 00H			; std::logic_error::`RTTI Complete Object Locator'
	DD	00H
	DD	00H
	DD	FLAT:??_R0?AVlogic_error@std@@@8
	DD	FLAT:??_R3logic_error@std@@8
rdata$r	ENDS
;	COMDAT ??_R3logic_error@std@@8
rdata$r	SEGMENT
??_R3logic_error@std@@8 DD 00H				; std::logic_error::`RTTI Class Hierarchy Descriptor'
	DD	00H
	DD	02H
	DD	FLAT:??_R2logic_error@std@@8
rdata$r	ENDS
;	COMDAT ??_R2logic_error@std@@8
rdata$r	SEGMENT
??_R2logic_error@std@@8 DD FLAT:??_R1A@?0A@EA@logic_error@std@@8 ; std::logic_error::`RTTI Base Class Array'
	DD	FLAT:??_R1A@?0A@EA@exception@std@@8
rdata$r	ENDS
;	COMDAT ??_R1A@?0A@EA@logic_error@std@@8
rdata$r	SEGMENT
??_R1A@?0A@EA@logic_error@std@@8 DD FLAT:??_R0?AVlogic_error@std@@@8 ; std::logic_error::`RTTI Base Class Descriptor at (0,-1,0,64)'
	DD	01H
	DD	00H
	DD	0ffffffffH
	DD	00H
	DD	040H
	DD	FLAT:??_R3logic_error@std@@8
rdata$r	ENDS
;	COMDAT __TI3?AVlength_error@std@@
xdata$x	SEGMENT
__TI3?AVlength_error@std@@ DD 00H
	DD	FLAT:??1length_error@std@@UAE@XZ
	DD	00H
	DD	FLAT:__CTA3?AVlength_error@std@@
xdata$x	ENDS
;	COMDAT __CTA3?AVlength_error@std@@
xdata$x	SEGMENT
__CTA3?AVlength_error@std@@ DD 03H
	DD	FLAT:__CT??_R0?AVlength_error@std@@@8??0length_error@std@@QAE@ABV01@@Z40
	DD	FLAT:__CT??_R0?AVlogic_error@std@@@8??0logic_error@std@@QAE@ABV01@@Z40
	DD	FLAT:__CT??_R0?AVexception@std@@@8??0exception@std@@QAE@ABV01@@Z12
xdata$x	ENDS
;	COMDAT __CT??_R0?AVlength_error@std@@@8??0length_error@std@@QAE@ABV01@@Z40
xdata$x	SEGMENT
__CT??_R0?AVlength_error@std@@@8??0length_error@std@@QAE@ABV01@@Z40 DD 00H
	DD	FLAT:??_R0?AVlength_error@std@@@8
	DD	00H
	DD	0ffffffffH
	ORG $+4
	DD	028H
	DD	FLAT:??0length_error@std@@QAE@ABV01@@Z
xdata$x	ENDS
;	COMDAT ??_R0?AVlength_error@std@@@8
_DATA	SEGMENT
??_R0?AVlength_error@std@@@8 DD FLAT:??_7type_info@@6B@	; std::length_error `RTTI Type Descriptor'
	DD	00H
	DB	'.?AVlength_error@std@@', 00H
_DATA	ENDS
;	COMDAT ??_C@_0BD@OLBABOEK@vector?$DMT?$DO?5too?5long?$AA@
CONST	SEGMENT
??_C@_0BD@OLBABOEK@vector?$DMT?$DO?5too?5long?$AA@ DB 'vector<T> too long'
	DB	00H						; `string'
CONST	ENDS
;	COMDAT ??_C@_0GH@JAJKEBMD@ppage?5?$CFd?5Insufficient?5parameters@
CONST	SEGMENT
??_C@_0GH@JAJKEBMD@ppage?5?$CFd?5Insufficient?5parameters@ DB 'ppage %d I'
	DB	'nsufficient parameters. This command requires atleast %d para'
	DB	'meter(s), you only supplied %d.', 00H	; `string'
CONST	ENDS
;	COMDAT __CT??_R0?AVlogic_error@std@@@8??0logic_error@std@@QAE@ABV01@@Z40
xdata$x	SEGMENT
__CT??_R0?AVlogic_error@std@@@8??0logic_error@std@@QAE@ABV01@@Z40 DD 00H
	DD	FLAT:??_R0?AVlogic_error@std@@@8
	DD	00H
	DD	0ffffffffH
	ORG $+4
	DD	028H
	DD	FLAT:??0logic_error@std@@QAE@ABV01@@Z
xdata$x	ENDS
;	COMDAT ??_R0?AVlogic_error@std@@@8
_DATA	SEGMENT
??_R0?AVlogic_error@std@@@8 DD FLAT:??_7type_info@@6B@	; std::logic_error `RTTI Type Descriptor'
	DD	00H
	DB	'.?AVlogic_error@std@@', 00H
__bad_alloc_Message DD FLAT:??_C@_0P@GHFPNOJB@bad?5allocation?$AA@
; Function compile flags: /Ogtpy
; File c:\program files\microsoft visual studio 9.0\vc\include\xutility
;	COMDAT ??$_Checked_base@PAPAUChatCommandInfo@@@std@@YAPAPAUChatCommandInfo@@AAPAPAU1@U_Unchanged_checked_iterator_base_type_tag@0@@Z
_TEXT	SEGMENT
___formal$ = 8						; size = 1
??$_Checked_base@PAPAUChatCommandInfo@@@std@@YAPAPAUChatCommandInfo@@AAPAPAU1@U_Unchanged_checked_iterator_base_type_tag@0@@Z PROC ; std::_Checked_base<ChatCommandInfo * *>, COMDAT
; __It$ = eax

; 1147 : 		return _It;

	mov	eax, DWORD PTR [eax]

; 1148 : 	}

	ret	0
??$_Checked_base@PAPAUChatCommandInfo@@@std@@YAPAPAUChatCommandInfo@@AAPAPAU1@U_Unchanged_checked_iterator_base_type_tag@0@@Z ENDP ; std::_Checked_base<ChatCommandInfo * *>
; Function compile flags: /Ogtpy
; File c:\program files\microsoft visual studio 9.0\vc\include\xmemory
_TEXT	ENDS
;	COMDAT ??$_Destroy_range@V?$allocator@PAUChatCommandInfo@@@std@@@std@@YAXPAPAUChatCommandInfo@@0AAV?$allocator@PAUChatCommandInfo@@@0@U_Scalar_ptr_iterator_tag@0@@Z
_TEXT	SEGMENT
___formal$ = 8						; size = 1
??$_Destroy_range@V?$allocator@PAUChatCommandInfo@@@std@@@std@@YAXPAPAUChatCommandInfo@@0AAV?$allocator@PAUChatCommandInfo@@@0@U_Scalar_ptr_iterator_tag@0@@Z PROC ; std::_Destroy_range<std::allocator<ChatCommandInfo *> >, COMDAT

; 242  : 	}

	ret	0
??$_Destroy_range@V?$allocator@PAUChatCommandInfo@@@std@@@std@@YAXPAPAUChatCommandInfo@@0AAV?$allocator@PAUChatCommandInfo@@@0@U_Scalar_ptr_iterator_tag@0@@Z ENDP ; std::_Destroy_range<std::allocator<ChatCommandInfo *> >
; Function compile flags: /Ogtpy
; File c:\program files\microsoft visual studio 9.0\vc\include\xutility
_TEXT	ENDS
;	COMDAT ??$_Iter_random@PAPAUChatCommandInfo@@PAPAU1@@std@@YA?AUrandom_access_iterator_tag@0@ABQAPAUChatCommandInfo@@0@Z
_TEXT	SEGMENT
??$_Iter_random@PAPAUChatCommandInfo@@PAPAU1@@std@@YA?AUrandom_access_iterator_tag@0@ABQAPAUChatCommandInfo@@0@Z PROC ; std::_Iter_random<ChatCommandInfo * *,ChatCommandInfo * *>, COMDAT
; ___$ReturnUdt$ = eax

; 994  : 	typename _Iter_random_helper<
; 995  : 		iterator_traits<_Iter1>::iterator_category, 
; 996  : 		iterator_traits<_Iter2>::iterator_category>::_Iter_random_cat _Cat;
; 997  : 	return (_Cat);
; 998  : 	}

	ret	0
??$_Iter_random@PAPAUChatCommandInfo@@PAPAU1@@std@@YA?AUrandom_access_iterator_tag@0@ABQAPAUChatCommandInfo@@0@Z ENDP ; std::_Iter_random<ChatCommandInfo * *,ChatCommandInfo * *>
; Function compile flags: /Ogtpy
_TEXT	ENDS
;	COMDAT ??$_Checked_base@PAPAUChatCommandInfo@@@std@@YAPAPAUChatCommandInfo@@AAPAPAU1@@Z
_TEXT	SEGMENT
??$_Checked_base@PAPAUChatCommandInfo@@@std@@YAPAPAUChatCommandInfo@@AAPAPAU1@@Z PROC ; std::_Checked_base<ChatCommandInfo * *>, COMDAT
; __It$ = eax

; 1164 : 		typename _Checked_iterator_base_helper<_Iter>::_Checked_iterator_base_type_tag _Base_tag;
; 1165 : 		return _Checked_base(_It, _Base_tag);

	mov	eax, DWORD PTR [eax]

; 1166 : 	}

	ret	0
??$_Checked_base@PAPAUChatCommandInfo@@@std@@YAPAPAUChatCommandInfo@@AAPAPAU1@@Z ENDP ; std::_Checked_base<ChatCommandInfo * *>
; Function compile flags: /Ogtpy
_TEXT	ENDS
;	COMDAT ??$_Ptr_cat@PAPAUChatCommandInfo@@PAPAU1@@std@@YA?AU_Scalar_ptr_iterator_tag@0@AAPAPAUChatCommandInfo@@0@Z
_TEXT	SEGMENT
__Cat$ = -1						; size = 1
??$_Ptr_cat@PAPAUChatCommandInfo@@PAPAU1@@std@@YA?AU_Scalar_ptr_iterator_tag@0@AAPAPAUChatCommandInfo@@0@Z PROC ; std::_Ptr_cat<ChatCommandInfo * *,ChatCommandInfo * *>, COMDAT

; 1509 : 	{

	push	ecx

; 1510 : 	typename _Ptr_cat_helper<_T1, _T2>::_Ptr_cat _Cat;
; 1511 : 	return (_Cat);

	mov	al, BYTE PTR __Cat$[esp+4]

; 1512 : 	}

	pop	ecx
	ret	0
??$_Ptr_cat@PAPAUChatCommandInfo@@PAPAU1@@std@@YA?AU_Scalar_ptr_iterator_tag@0@AAPAPAUChatCommandInfo@@0@Z ENDP ; std::_Ptr_cat<ChatCommandInfo * *,ChatCommandInfo * *>
; Function compile flags: /Ogtpy
; File c:\program files\microsoft visual studio 9.0\vc\include\xmemory
_TEXT	ENDS
;	COMDAT ??$_Destroy_range@V?$allocator@PAUChatCommandInfo@@@std@@@std@@YAXPAPAUChatCommandInfo@@0AAV?$allocator@PAUChatCommandInfo@@@0@@Z
_TEXT	SEGMENT
??$_Destroy_range@V?$allocator@PAUChatCommandInfo@@@std@@@std@@YAXPAPAUChatCommandInfo@@0AAV?$allocator@PAUChatCommandInfo@@@0@@Z PROC ; std::_Destroy_range<std::allocator<ChatCommandInfo *> >, COMDAT

; 225  : 	_Destroy_range(_First, _Last, _Al, _Ptr_cat(_First, _Last));
; 226  : 	}

	ret	0
??$_Destroy_range@V?$allocator@PAUChatCommandInfo@@@std@@@std@@YAXPAPAUChatCommandInfo@@0AAV?$allocator@PAUChatCommandInfo@@@0@@Z ENDP ; std::_Destroy_range<std::allocator<ChatCommandInfo *> >
; Function compile flags: /Ogtpy
_TEXT	ENDS
;	COMDAT ?deallocate@?$allocator@PAUChatCommandInfo@@@std@@QAEXPAPAUChatCommandInfo@@I@Z
_TEXT	SEGMENT
?deallocate@?$allocator@PAUChatCommandInfo@@@std@@QAEXPAPAUChatCommandInfo@@I@Z PROC ; std::allocator<ChatCommandInfo *>::deallocate, COMDAT
; __Ptr$ = eax

; 140  : 		::operator delete(_Ptr);

	push	eax
	call	DWORD PTR ?RenDelete@@3P6AXPAX@ZA	; RenDelete
	pop	ecx

; 141  : 		}

	ret	0
?deallocate@?$allocator@PAUChatCommandInfo@@@std@@QAEXPAPAUChatCommandInfo@@I@Z ENDP ; std::allocator<ChatCommandInfo *>::deallocate
; Function compile flags: /Ogtpy
; File c:\program files\microsoft visual studio 9.0\vc\include\vector
_TEXT	ENDS
;	COMDAT ?_Destroy@?$vector@PAUChatCommandInfo@@V?$allocator@PAUChatCommandInfo@@@std@@@std@@IAEXPAPAUChatCommandInfo@@0@Z
_TEXT	SEGMENT
?_Destroy@?$vector@PAUChatCommandInfo@@V?$allocator@PAUChatCommandInfo@@@std@@@std@@IAEXPAPAUChatCommandInfo@@0@Z PROC ; std::vector<ChatCommandInfo *,std::allocator<ChatCommandInfo *> >::_Destroy, COMDAT

; 1119 : 		_Destroy_range(_First, _Last, this->_Alval);
; 1120 : 		}

	ret	0
?_Destroy@?$vector@PAUChatCommandInfo@@V?$allocator@PAUChatCommandInfo@@@std@@@std@@IAEXPAPAUChatCommandInfo@@0@Z ENDP ; std::vector<ChatCommandInfo *,std::allocator<ChatCommandInfo *> >::_Destroy
; Function compile flags: /Ogtpy
; File c:\program files\microsoft visual studio 9.0\vc\include\xmemory
_TEXT	ENDS
;	COMDAT ?deallocate@?$allocator@V_Aux_cont@std@@@std@@QAEXPAV_Aux_cont@2@I@Z
_TEXT	SEGMENT
?deallocate@?$allocator@V_Aux_cont@std@@@std@@QAEXPAV_Aux_cont@2@I@Z PROC ; std::allocator<std::_Aux_cont>::deallocate, COMDAT
; __Ptr$ = eax

; 140  : 		::operator delete(_Ptr);

	push	eax
	call	DWORD PTR ?RenDelete@@3P6AXPAX@ZA	; RenDelete
	pop	ecx

; 141  : 		}

	ret	0
?deallocate@?$allocator@V_Aux_cont@std@@@std@@QAEXPAV_Aux_cont@2@I@Z ENDP ; std::allocator<std::_Aux_cont>::deallocate
; Function compile flags: /Ogtpy
; File c:\program files\microsoft visual studio 9.0\vc\include\xutility
_TEXT	ENDS
;	COMDAT ?_Has_container@_Iterator_base_aux@std@@QBE_NXZ
_TEXT	SEGMENT
?_Has_container@_Iterator_base_aux@std@@QBE_NXZ PROC	; std::_Iterator_base_aux::_Has_container, COMDAT
; _this$ = ecx

; 468  : 		return _Myaux != 0;

	xor	eax, eax
	cmp	DWORD PTR [ecx], eax
	setne	al

; 469  : 		}

	ret	0
?_Has_container@_Iterator_base_aux@std@@QBE_NXZ ENDP	; std::_Iterator_base_aux::_Has_container
; Function compile flags: /Ogtpy
_TEXT	ENDS
;	COMDAT ?_Same_container@_Iterator_base_aux@std@@QBE_NABV12@@Z
_TEXT	SEGMENT
?_Same_container@_Iterator_base_aux@std@@QBE_NABV12@@Z PROC ; std::_Iterator_base_aux::_Same_container, COMDAT
; _this$ = eax
; __Other$ = edx

; 463  : 		return _Myaux == _Other._Myaux;

	mov	ecx, DWORD PTR [eax]
	xor	eax, eax
	cmp	ecx, DWORD PTR [edx]
	sete	al

; 464  : 		}

	ret	0
?_Same_container@_Iterator_base_aux@std@@QBE_NABV12@@Z ENDP ; std::_Iterator_base_aux::_Same_container
; Function compile flags: /Ogtpy
_TEXT	ENDS
;	COMDAT ?_Set_container@_Iterator_base_aux@std@@QAEXQBV_Container_base_aux@2@@Z
_TEXT	SEGMENT
?_Set_container@_Iterator_base_aux@std@@QAEXQBV_Container_base_aux@2@@Z PROC ; std::_Iterator_base_aux::_Set_container, COMDAT
; _this$ = edx
; __Pcont$ = eax

; 453  : 		_Myaux = _Pcont->_Myownedaux;

	mov	ecx, DWORD PTR [eax]
	mov	DWORD PTR [edx], ecx

; 454  : 		}

	ret	0
?_Set_container@_Iterator_base_aux@std@@QAEXQBV_Container_base_aux@2@@Z ENDP ; std::_Iterator_base_aux::_Set_container
; Function compile flags: /Ogtpy
_TEXT	ENDS
;	COMDAT ??0_Iterator_base_aux@std@@QAE@XZ
_TEXT	SEGMENT
??0_Iterator_base_aux@std@@QAE@XZ PROC			; std::_Iterator_base_aux::_Iterator_base_aux, COMDAT
; _this$ = eax

; 448  : 	_Iterator_base_aux()

	mov	DWORD PTR [eax], 0
	ret	0
??0_Iterator_base_aux@std@@QAE@XZ ENDP			; std::_Iterator_base_aux::_Iterator_base_aux
; Function compile flags: /Ogtpy
_TEXT	ENDS
;	COMDAT ??1_Container_base_aux@std@@QAE@XZ
_TEXT	SEGMENT
??1_Container_base_aux@std@@QAE@XZ PROC			; std::_Container_base_aux::~_Container_base_aux, COMDAT

; 403  : 		// Do nothing: ~_Container_base_aux_alloc_real() previously destroyed the aux object.
; 404  : 		}

	ret	0
??1_Container_base_aux@std@@QAE@XZ ENDP			; std::_Container_base_aux::~_Container_base_aux
; Function compile flags: /Ogtpy
_TEXT	ENDS
;	COMDAT ?_Getcont@_Aux_cont@std@@QBEPBV_Container_base_aux@2@XZ
_TEXT	SEGMENT
?_Getcont@_Aux_cont@std@@QBEPBV_Container_base_aux@2@XZ PROC ; std::_Aux_cont::_Getcont, COMDAT
; _this$ = eax

; 369  : 		return _Mycontainer;

	mov	eax, DWORD PTR [eax]

; 370  : 		}

	ret	0
?_Getcont@_Aux_cont@std@@QBEPBV_Container_base_aux@2@XZ ENDP ; std::_Aux_cont::_Getcont
; Function compile flags: /Ogtpy
; File c:\program files\microsoft visual studio 9.0\vc\include\new
_TEXT	ENDS
;	COMDAT ??3@YAXPAX0@Z
_TEXT	SEGMENT
___formal$ = 8						; size = 4
___formal$ = 12						; size = 4
??3@YAXPAX0@Z PROC					; operator delete, COMDAT

; 64   : 	}

	ret	0
??3@YAXPAX0@Z ENDP					; operator delete
; Function compile flags: /Ogtpy
_TEXT	ENDS
;	COMDAT ??2@YAPAXIPAX@Z
_TEXT	SEGMENT
___formal$ = 8						; size = 4
__Where$ = 12						; size = 4
??2@YAPAXIPAX@Z PROC					; operator new, COMDAT

; 59   : 	return (_Where);

	mov	eax, DWORD PTR __Where$[esp-4]

; 60   : 	}

	ret	0
??2@YAPAXIPAX@Z ENDP					; operator new
; Function compile flags: /Ogtpy
;	COMDAT ??0?$_Iterator_with_base@Urandom_access_iterator_tag@std@@PAUChatCommandInfo@@HPBQAU3@ABQAU3@V_Iterator_base_aux@2@@std@@QAE@XZ
_TEXT	SEGMENT
??0?$_Iterator_with_base@Urandom_access_iterator_tag@std@@PAUChatCommandInfo@@HPBQAU3@ABQAU3@V_Iterator_base_aux@2@@std@@QAE@XZ PROC ; std::_Iterator_with_base<std::random_access_iterator_tag,ChatCommandInfo *,int,ChatCommandInfo * const *,ChatCommandInfo * const &,std::_Iterator_base_aux>::_Iterator_with_base<std::random_access_iterator_tag,ChatCommandInfo *,int,ChatCommandInfo * const *,ChatCommandInfo * const &,std::_Iterator_base_aux>, COMDAT
; _this$ = eax
	mov	DWORD PTR [eax], 0
	ret	0
??0?$_Iterator_with_base@Urandom_access_iterator_tag@std@@PAUChatCommandInfo@@HPBQAU3@ABQAU3@V_Iterator_base_aux@2@@std@@QAE@XZ ENDP ; std::_Iterator_with_base<std::random_access_iterator_tag,ChatCommandInfo *,int,ChatCommandInfo * const *,ChatCommandInfo * const &,std::_Iterator_base_aux>::_Iterator_with_base<std::random_access_iterator_tag,ChatCommandInfo *,int,ChatCommandInfo * const *,ChatCommandInfo * const &,std::_Iterator_base_aux>
; Function compile flags: /Ogtpy
_TEXT	ENDS
;	COMDAT ??0?$_Ranit@PAUChatCommandInfo@@HPBQAU1@ABQAU1@@std@@QAE@XZ
_TEXT	SEGMENT
??0?$_Ranit@PAUChatCommandInfo@@HPBQAU1@ABQAU1@@std@@QAE@XZ PROC ; std::_Ranit<ChatCommandInfo *,int,ChatCommandInfo * const *,ChatCommandInfo * const &>::_Ranit<ChatCommandInfo *,int,ChatCommandInfo * const *,ChatCommandInfo * const &>, COMDAT
; _this$ = eax
	mov	DWORD PTR [eax], 0
	ret	0
??0?$_Ranit@PAUChatCommandInfo@@HPBQAU1@ABQAU1@@std@@QAE@XZ ENDP ; std::_Ranit<ChatCommandInfo *,int,ChatCommandInfo * const *,ChatCommandInfo * const &>::_Ranit<ChatCommandInfo *,int,ChatCommandInfo * const *,ChatCommandInfo * const &>
; Function compile flags: /Ogtpy
; File c:\program files\microsoft visual studio 9.0\vc\include\vector
_TEXT	ENDS
;	COMDAT ??0?$_Vector_const_iterator@PAUChatCommandInfo@@V?$allocator@PAUChatCommandInfo@@@std@@@std@@QAE@PAPAUChatCommandInfo@@PBV_Container_base_aux@1@@Z
_TEXT	SEGMENT
__Ptr$ = 8						; size = 4
??0?$_Vector_const_iterator@PAUChatCommandInfo@@V?$allocator@PAUChatCommandInfo@@@std@@@std@@QAE@PAPAUChatCommandInfo@@PBV_Container_base_aux@1@@Z PROC ; std::_Vector_const_iterator<ChatCommandInfo *,std::allocator<ChatCommandInfo *> >::_Vector_const_iterator<ChatCommandInfo *,std::allocator<ChatCommandInfo *> >, COMDAT
; _this$ = edi
; __Pvector$ = esi

; 76   : 	_Vector_const_iterator(_Tptr _Ptr, const _Container_base *_Pvector)

	push	ebx
	mov	ebx, DWORD PTR __Ptr$[esp]
	mov	DWORD PTR [edi], 0

; 77   : 		{	// construct with pointer _Ptr
; 78   : 		_SCL_SECURE_VALIDATE(_Pvector != NULL && ((_Myvec *)_Pvector)->_Myfirst <= _Ptr && _Ptr <= ((_Myvec *)_Pvector)->_Mylast);

	test	esi, esi
	je	SHORT $LN4@Vector_con
	cmp	DWORD PTR [esi+12], ebx
	ja	SHORT $LN4@Vector_con
	cmp	ebx, DWORD PTR [esi+16]
	jbe	SHORT $LN3@Vector_con
$LN4@Vector_con:
	call	__invalid_parameter_noinfo
$LN3@Vector_con:

; 79   : 		this->_Set_container(_Pvector);

	mov	eax, DWORD PTR [esi]
	mov	DWORD PTR [edi], eax

; 80   : 		_Myptr = _Ptr;

	mov	DWORD PTR [edi+4], ebx

; 81   : 		}

	mov	eax, edi
	pop	ebx
	ret	4
??0?$_Vector_const_iterator@PAUChatCommandInfo@@V?$allocator@PAUChatCommandInfo@@@std@@@std@@QAE@PAPAUChatCommandInfo@@PBV_Container_base_aux@1@@Z ENDP ; std::_Vector_const_iterator<ChatCommandInfo *,std::allocator<ChatCommandInfo *> >::_Vector_const_iterator<ChatCommandInfo *,std::allocator<ChatCommandInfo *> >
; Function compile flags: /Ogtpy
_TEXT	ENDS
;	COMDAT ??8?$_Vector_const_iterator@PAUChatCommandInfo@@V?$allocator@PAUChatCommandInfo@@@std@@@std@@QBE_NABV01@@Z
_TEXT	SEGMENT
??8?$_Vector_const_iterator@PAUChatCommandInfo@@V?$allocator@PAUChatCommandInfo@@@std@@@std@@QBE_NABV01@@Z PROC ; std::_Vector_const_iterator<ChatCommandInfo *,std::allocator<ChatCommandInfo *> >::operator==, COMDAT
; _this$ = edi
; __Right$ = esi

; 204  : 
; 205  :  #if _HAS_ITERATOR_DEBUGGING
; 206  : 		_Compat(_Right);
; 207  :  #else
; 208  : 		_SCL_SECURE_VALIDATE(this->_Has_container() && this->_Same_container(_Right));

	mov	eax, DWORD PTR [edi]
	test	eax, eax
	je	SHORT $LN4@operator@7
	cmp	eax, DWORD PTR [esi]
	je	SHORT $LN3@operator@7
$LN4@operator@7:
	call	__invalid_parameter_noinfo
$LN3@operator@7:

; 209  :  #endif /* _HAS_ITERATOR_DEBUGGING */
; 210  : 
; 211  : 		return (_Myptr == _Right._Myptr);

	mov	eax, DWORD PTR [edi+4]
	xor	ecx, ecx
	cmp	eax, DWORD PTR [esi+4]
	sete	cl
	mov	al, cl

; 212  : 		}

	ret	0
??8?$_Vector_const_iterator@PAUChatCommandInfo@@V?$allocator@PAUChatCommandInfo@@@std@@@std@@QBE_NABV01@@Z ENDP ; std::_Vector_const_iterator<ChatCommandInfo *,std::allocator<ChatCommandInfo *> >::operator==
; Function compile flags: /Ogtpy
_TEXT	ENDS
;	COMDAT ??0?$_Vector_iterator@PAUChatCommandInfo@@V?$allocator@PAUChatCommandInfo@@@std@@@std@@QAE@PAPAUChatCommandInfo@@PBV_Container_base_aux@1@@Z
_TEXT	SEGMENT
__Ptr$ = 8						; size = 4
??0?$_Vector_iterator@PAUChatCommandInfo@@V?$allocator@PAUChatCommandInfo@@@std@@@std@@QAE@PAPAUChatCommandInfo@@PBV_Container_base_aux@1@@Z PROC ; std::_Vector_iterator<ChatCommandInfo *,std::allocator<ChatCommandInfo *> >::_Vector_iterator<ChatCommandInfo *,std::allocator<ChatCommandInfo *> >, COMDAT
; _this$ = edi
; __Pvector$ = esi

; 327  : 		{	// construct with pointer _Ptr

	push	ebx
	mov	ebx, DWORD PTR __Ptr$[esp]
	mov	DWORD PTR [edi], 0
	test	esi, esi
	je	SHORT $LN6@Vector_ite
	cmp	DWORD PTR [esi+12], ebx
	ja	SHORT $LN6@Vector_ite
	cmp	ebx, DWORD PTR [esi+16]
	jbe	SHORT $LN5@Vector_ite
$LN6@Vector_ite:
	call	__invalid_parameter_noinfo
$LN5@Vector_ite:
	mov	eax, DWORD PTR [esi]
	mov	DWORD PTR [edi], eax
	mov	DWORD PTR [edi+4], ebx

; 328  : 		}

	mov	eax, edi
	pop	ebx
	ret	4
??0?$_Vector_iterator@PAUChatCommandInfo@@V?$allocator@PAUChatCommandInfo@@@std@@@std@@QAE@PAPAUChatCommandInfo@@PBV_Container_base_aux@1@@Z ENDP ; std::_Vector_iterator<ChatCommandInfo *,std::allocator<ChatCommandInfo *> >::_Vector_iterator<ChatCommandInfo *,std::allocator<ChatCommandInfo *> >
; Function compile flags: /Ogtpy
; File c:\program files\microsoft visual studio 9.0\vc\include\xutility
_TEXT	ENDS
;	COMDAT ??1?$_Container_base_aux_alloc_real@V?$allocator@PAUChatCommandInfo@@@std@@@std@@IAE@XZ
_TEXT	SEGMENT
??1?$_Container_base_aux_alloc_real@V?$allocator@PAUChatCommandInfo@@@std@@@std@@IAE@XZ PROC ; std::_Container_base_aux_alloc_real<std::allocator<ChatCommandInfo *> >::~_Container_base_aux_alloc_real<std::allocator<ChatCommandInfo *> >, COMDAT
; _this$ = eax

; 437  : 		_Myownedaux->~_Aux_cont();
; 438  : 
; 439  : 		_Alaux.deallocate(_Myownedaux, 1);

	mov	ecx, DWORD PTR [eax]
	push	ecx
	call	DWORD PTR ?RenDelete@@3P6AXPAX@ZA	; RenDelete
	pop	ecx

; 440  : 		}

	ret	0
??1?$_Container_base_aux_alloc_real@V?$allocator@PAUChatCommandInfo@@@std@@@std@@IAE@XZ ENDP ; std::_Container_base_aux_alloc_real<std::allocator<ChatCommandInfo *> >::~_Container_base_aux_alloc_real<std::allocator<ChatCommandInfo *> >
; Function compile flags: /Ogtpy
_TEXT	ENDS
;	COMDAT ??1?$_Vector_val@PAUChatCommandInfo@@V?$allocator@PAUChatCommandInfo@@@std@@@std@@QAE@XZ
_TEXT	SEGMENT
??1?$_Vector_val@PAUChatCommandInfo@@V?$allocator@PAUChatCommandInfo@@@std@@@std@@QAE@XZ PROC ; std::_Vector_val<ChatCommandInfo *,std::allocator<ChatCommandInfo *> >::~_Vector_val<ChatCommandInfo *,std::allocator<ChatCommandInfo *> >, COMDAT
; _this$ = eax
	mov	ecx, DWORD PTR [eax]
	push	ecx
	call	DWORD PTR ?RenDelete@@3P6AXPAX@ZA	; RenDelete
	pop	ecx
	ret	0
??1?$_Vector_val@PAUChatCommandInfo@@V?$allocator@PAUChatCommandInfo@@@std@@@std@@QAE@XZ ENDP ; std::_Vector_val<ChatCommandInfo *,std::allocator<ChatCommandInfo *> >::~_Vector_val<ChatCommandInfo *,std::allocator<ChatCommandInfo *> >
; Function compile flags: /Ogtpy
; File c:\program files\microsoft visual studio 9.0\vc\include\vector
_TEXT	ENDS
;	COMDAT ??9?$_Vector_const_iterator@PAUChatCommandInfo@@V?$allocator@PAUChatCommandInfo@@@std@@@std@@QBE_NABV01@@Z
_TEXT	SEGMENT
??9?$_Vector_const_iterator@PAUChatCommandInfo@@V?$allocator@PAUChatCommandInfo@@@std@@@std@@QBE_NABV01@@Z PROC ; std::_Vector_const_iterator<ChatCommandInfo *,std::allocator<ChatCommandInfo *> >::operator!=, COMDAT
; _this$ = edi
; __Right$ = esi

; 216  : 		return (!(*this == _Right));

	mov	eax, DWORD PTR [edi]
	test	eax, eax
	je	SHORT $LN6@operator@8
	cmp	eax, DWORD PTR [esi]
	je	SHORT $LN5@operator@8
$LN6@operator@8:
	call	__invalid_parameter_noinfo
$LN5@operator@8:
	mov	eax, DWORD PTR [edi+4]
	xor	ecx, ecx
	cmp	eax, DWORD PTR [esi+4]
	setne	cl
	mov	al, cl

; 217  : 		}

	ret	0
??9?$_Vector_const_iterator@PAUChatCommandInfo@@V?$allocator@PAUChatCommandInfo@@@std@@@std@@QBE_NABV01@@Z ENDP ; std::_Vector_const_iterator<ChatCommandInfo *,std::allocator<ChatCommandInfo *> >::operator!=
; Function compile flags: /Ogtpy
_TEXT	ENDS
;	COMDAT ?end@?$vector@PAUChatCommandInfo@@V?$allocator@PAUChatCommandInfo@@@std@@@std@@QAE?AV?$_Vector_iterator@PAUChatCommandInfo@@V?$allocator@PAUChatCommandInfo@@@std@@@2@XZ
_TEXT	SEGMENT
?end@?$vector@PAUChatCommandInfo@@V?$allocator@PAUChatCommandInfo@@@std@@@std@@QAE?AV?$_Vector_iterator@PAUChatCommandInfo@@V?$allocator@PAUChatCommandInfo@@@std@@@2@XZ PROC ; std::vector<ChatCommandInfo *,std::allocator<ChatCommandInfo *> >::end, COMDAT
; _this$ = edi
; ___$ReturnUdt$ = esi

; 650  : 		{	// return iterator for end of mutable sequence

	push	ebx

; 651  : 		return (iterator(_Mylast, this));

	mov	ebx, DWORD PTR [edi+16]
	mov	DWORD PTR [esi], 0
	cmp	DWORD PTR [edi+12], ebx
	jbe	SHORT $LN7@end
	call	__invalid_parameter_noinfo
$LN7@end:
	mov	eax, DWORD PTR [edi]
	mov	DWORD PTR [esi], eax
	mov	DWORD PTR [esi+4], ebx
	mov	eax, esi
	pop	ebx

; 652  : 		}

	ret	0
?end@?$vector@PAUChatCommandInfo@@V?$allocator@PAUChatCommandInfo@@@std@@@std@@QAE?AV?$_Vector_iterator@PAUChatCommandInfo@@V?$allocator@PAUChatCommandInfo@@@std@@@2@XZ ENDP ; std::vector<ChatCommandInfo *,std::allocator<ChatCommandInfo *> >::end
; Function compile flags: /Ogtpy
_TEXT	ENDS
;	COMDAT ?begin@?$vector@PAUChatCommandInfo@@V?$allocator@PAUChatCommandInfo@@@std@@@std@@QAE?AV?$_Vector_iterator@PAUChatCommandInfo@@V?$allocator@PAUChatCommandInfo@@@std@@@2@XZ
_TEXT	SEGMENT
?begin@?$vector@PAUChatCommandInfo@@V?$allocator@PAUChatCommandInfo@@@std@@@std@@QAE?AV?$_Vector_iterator@PAUChatCommandInfo@@V?$allocator@PAUChatCommandInfo@@@std@@@2@XZ PROC ; std::vector<ChatCommandInfo *,std::allocator<ChatCommandInfo *> >::begin, COMDAT
; _this$ = edi
; ___$ReturnUdt$ = esi

; 640  : 		{	// return iterator for beginning of mutable sequence

	push	ebx

; 641  : 		return (iterator(_Myfirst, this));

	mov	ebx, DWORD PTR [edi+12]
	mov	DWORD PTR [esi], 0
	cmp	ebx, DWORD PTR [edi+16]
	jbe	SHORT $LN7@begin@2
	call	__invalid_parameter_noinfo
$LN7@begin@2:
	mov	eax, DWORD PTR [edi]
	mov	DWORD PTR [esi], eax
	mov	DWORD PTR [esi+4], ebx
	mov	eax, esi
	pop	ebx

; 642  : 		}

	ret	0
?begin@?$vector@PAUChatCommandInfo@@V?$allocator@PAUChatCommandInfo@@@std@@@std@@QAE?AV?$_Vector_iterator@PAUChatCommandInfo@@V?$allocator@PAUChatCommandInfo@@@std@@@2@XZ ENDP ; std::vector<ChatCommandInfo *,std::allocator<ChatCommandInfo *> >::begin
; Function compile flags: /Ogtpy
; File c:\program files\microsoft visual studio 9.0\vc\include\stdexcept
_TEXT	ENDS
;	COMDAT ?what@logic_error@std@@UBEPBDXZ
_TEXT	SEGMENT
?what@logic_error@std@@UBEPBDXZ PROC			; std::logic_error::what, COMDAT
; _this$ = ecx

; 35   : 		return (_Str.c_str());

	cmp	DWORD PTR [ecx+36], 16			; 00000010H
	jb	SHORT $LN7@what@2
	mov	eax, DWORD PTR [ecx+16]

; 36   : 		}

	ret	0

; 35   : 		return (_Str.c_str());

$LN7@what@2:
	lea	eax, DWORD PTR [ecx+16]

; 36   : 		}

	ret	0
?what@logic_error@std@@UBEPBDXZ ENDP			; std::logic_error::what
; Function compile flags: /Ogtpy
; File c:\program files\microsoft visual studio 9.0\vc\include\xutility
_TEXT	ENDS
;	COMDAT ?_Getmycont@_Iterator_base_aux@std@@QBEPBV_Container_base_aux@2@XZ
_TEXT	SEGMENT
?_Getmycont@_Iterator_base_aux@std@@QBEPBV_Container_base_aux@2@XZ PROC ; std::_Iterator_base_aux::_Getmycont, COMDAT
; _this$ = eax

; 458  : 		return _Myaux ? _Myaux->_Getcont() : 0;

	mov	eax, DWORD PTR [eax]
	test	eax, eax
	je	SHORT $LN3@Getmycont
	mov	eax, DWORD PTR [eax]

; 459  : 		}

	ret	0
$LN3@Getmycont:

; 458  : 		return _Myaux ? _Myaux->_Getcont() : 0;

	xor	eax, eax

; 459  : 		}

	ret	0
?_Getmycont@_Iterator_base_aux@std@@QBEPBV_Container_base_aux@2@XZ ENDP ; std::_Iterator_base_aux::_Getmycont
; Function compile flags: /Ogtpy
; File c:\program files\microsoft visual studio 9.0\vc\include\vector
;	COMDAT ??E?$_Vector_const_iterator@PAUChatCommandInfo@@V?$allocator@PAUChatCommandInfo@@@std@@@std@@QAEAAV01@XZ
_TEXT	SEGMENT
??E?$_Vector_const_iterator@PAUChatCommandInfo@@V?$allocator@PAUChatCommandInfo@@@std@@@std@@QAEAAV01@XZ PROC ; std::_Vector_const_iterator<ChatCommandInfo *,std::allocator<ChatCommandInfo *> >::operator++, COMDAT
; _this$ = esi

; 116  : 		_SCL_SECURE_VALIDATE(this->_Has_container());

	mov	eax, DWORD PTR [esi]
	test	eax, eax
	jne	SHORT $LN19@operator@10
	call	__invalid_parameter_noinfo

; 117  : 		_SCL_SECURE_VALIDATE_RANGE(_Myptr < ((_Myvec *)(this->_Getmycont()))->_Mylast);

	mov	eax, DWORD PTR [esi]
	test	eax, eax
	je	SHORT $LN15@operator@10
$LN19@operator@10:
	mov	eax, DWORD PTR [eax]
	jmp	SHORT $LN16@operator@10
$LN15@operator@10:
	xor	eax, eax
$LN16@operator@10:
	mov	ecx, DWORD PTR [esi+4]
	cmp	ecx, DWORD PTR [eax+16]
	jb	SHORT $LN20@operator@10
	call	__invalid_parameter_noinfo
$LN20@operator@10:

; 118  : 
; 119  :  #if _HAS_ITERATOR_DEBUGGING
; 120  : 		if (this->_Mycont == 0
; 121  : 			|| ((_Myvec *)this->_Mycont)->_Mylast <= _Myptr)
; 122  : 			_DEBUG_ERROR("vector iterator not incrementable");
; 123  :  #endif /* _HAS_ITERATOR_DEBUGGING */
; 124  : 
; 125  : 		++_Myptr;

	add	DWORD PTR [esi+4], 4

; 126  : 		return (*this);

	mov	eax, esi

; 127  : 		}

	ret	0
??E?$_Vector_const_iterator@PAUChatCommandInfo@@V?$allocator@PAUChatCommandInfo@@@std@@@std@@QAEAAV01@XZ ENDP ; std::_Vector_const_iterator<ChatCommandInfo *,std::allocator<ChatCommandInfo *> >::operator++
; Function compile flags: /Ogtpy
_TEXT	ENDS
;	COMDAT ??D?$_Vector_const_iterator@PAUChatCommandInfo@@V?$allocator@PAUChatCommandInfo@@@std@@@std@@QBEABQAUChatCommandInfo@@XZ
_TEXT	SEGMENT
??D?$_Vector_const_iterator@PAUChatCommandInfo@@V?$allocator@PAUChatCommandInfo@@@std@@@std@@QBEABQAUChatCommandInfo@@XZ PROC ; std::_Vector_const_iterator<ChatCommandInfo *,std::allocator<ChatCommandInfo *> >::operator*, COMDAT
; _this$ = esi

; 92   : 
; 93   :  #if _HAS_ITERATOR_DEBUGGING
; 94   : 		if (this->_Mycont == 0
; 95   : 			|| _Myptr < ((_Myvec *)this->_Mycont)->_Myfirst
; 96   : 			|| ((_Myvec *)this->_Mycont)->_Mylast <= _Myptr)
; 97   : 			{
; 98   : 			_DEBUG_ERROR("vector iterator not dereferencable");
; 99   : 			_SCL_SECURE_OUT_OF_RANGE;
; 100  : 			}
; 101  :  #else
; 102  :  		_SCL_SECURE_VALIDATE(this->_Has_container());

	mov	eax, DWORD PTR [esi]
	test	eax, eax
	jne	SHORT $LN19@operator@11
	call	__invalid_parameter_noinfo

; 103  : 		_SCL_SECURE_VALIDATE_RANGE(_Myptr < ((_Myvec *)(this->_Getmycont()))->_Mylast);

	mov	eax, DWORD PTR [esi]
	test	eax, eax
	je	SHORT $LN15@operator@11
$LN19@operator@11:
	mov	eax, DWORD PTR [eax]
	jmp	SHORT $LN16@operator@11
$LN15@operator@11:
	xor	eax, eax
$LN16@operator@11:
	mov	ecx, DWORD PTR [esi+4]
	cmp	ecx, DWORD PTR [eax+16]
	jb	SHORT $LN20@operator@11
	call	__invalid_parameter_noinfo

; 104  :  #endif /* _HAS_ITERATOR_DEBUGGING */
; 105  : 
; 106  : 		return (*_Myptr);

	mov	eax, DWORD PTR [esi+4]

; 107  : 		}

	ret	0
$LN20@operator@11:

; 104  :  #endif /* _HAS_ITERATOR_DEBUGGING */
; 105  : 
; 106  : 		return (*_Myptr);

	mov	eax, ecx

; 107  : 		}

	ret	0
??D?$_Vector_const_iterator@PAUChatCommandInfo@@V?$allocator@PAUChatCommandInfo@@@std@@@std@@QBEABQAUChatCommandInfo@@XZ ENDP ; std::_Vector_const_iterator<ChatCommandInfo *,std::allocator<ChatCommandInfo *> >::operator*
; Function compile flags: /Ogtpy
; File c:\program files\microsoft visual studio 9.0\vc\include\xstring
_TEXT	ENDS
;	COMDAT ??0?$basic_string@DU?$char_traits@D@std@@V?$allocator@D@2@@std@@QAE@XZ
_TEXT	SEGMENT
??0?$basic_string@DU?$char_traits@D@std@@V?$allocator@D@2@@std@@QAE@XZ PROC ; std::basic_string<char,std::char_traits<char>,std::allocator<char> >::basic_string<char,std::char_traits<char>,std::allocator<char> >, COMDAT
; _this$ = eax

; 566  : 		_Tidy();

	xor	ecx, ecx
	mov	DWORD PTR [eax+24], 15			; 0000000fH
	mov	DWORD PTR [eax+20], ecx
	mov	BYTE PTR [eax+4], cl

; 567  : 		}

	ret	0
??0?$basic_string@DU?$char_traits@D@std@@V?$allocator@D@2@@std@@QAE@XZ ENDP ; std::basic_string<char,std::char_traits<char>,std::allocator<char> >::basic_string<char,std::char_traits<char>,std::allocator<char> >
; Function compile flags: /Ogtpy
; File c:\program files\microsoft visual studio 9.0\vc\include\stdexcept
_TEXT	ENDS
;	COMDAT ??1logic_error@std@@UAE@XZ
_TEXT	SEGMENT
??1logic_error@std@@UAE@XZ PROC				; std::logic_error::~logic_error, COMDAT
; _this$ = ecx

; 30   : 		{	// destroy the object

	push	esi
	mov	esi, ecx
	mov	DWORD PTR [esi], OFFSET ??_7logic_error@std@@6B@

; 31   : 		}

	cmp	DWORD PTR [esi+36], 16			; 00000010H
	jb	SHORT $LN21@logic_erro
	mov	eax, DWORD PTR [esi+16]
	push	eax
	call	DWORD PTR ?RenDelete@@3P6AXPAX@ZA	; RenDelete
	add	esp, 4
$LN21@logic_erro:
	xor	eax, eax
	mov	DWORD PTR [esi+36], 15			; 0000000fH
	mov	DWORD PTR [esi+32], eax
	mov	BYTE PTR [esi+16], al
	mov	ecx, esi
	pop	esi
	jmp	??1exception@std@@UAE@XZ		; std::exception::~exception
??1logic_error@std@@UAE@XZ ENDP				; std::logic_error::~logic_error
;	COMDAT xdata$x
xdata$x	SEGMENT
__unwindtable$??0logic_error@std@@QAE@ABV01@@Z DD 0ffffffffH
	DD	FLAT:__unwindfunclet$??0logic_error@std@@QAE@ABV01@@Z$0
__ehfuncinfo$??0logic_error@std@@QAE@ABV01@@Z DD 019930522H
	DD	01H
	DD	FLAT:__unwindtable$??0logic_error@std@@QAE@ABV01@@Z
	DD	2 DUP(00H)
	DD	2 DUP(00H)
	DD	00H
	DD	01H
; Function compile flags: /Ogtpy
xdata$x	ENDS
;	COMDAT ??0logic_error@std@@QAE@ABV01@@Z
_TEXT	SEGMENT
_this$ = -16						; size = 4
__$EHRec$ = -12						; size = 12
___that$ = 8						; size = 4
??0logic_error@std@@QAE@ABV01@@Z PROC			; std::logic_error::logic_error, COMDAT
; _this$ = ecx
	push	-1
	push	__ehhandler$??0logic_error@std@@QAE@ABV01@@Z
	mov	eax, DWORD PTR fs:0
	push	eax
	mov	DWORD PTR fs:0, esp
	push	ecx
	push	esi
	push	edi
	mov	edi, DWORD PTR ___that$[esp+20]
	mov	esi, ecx
	push	edi
	mov	DWORD PTR _this$[esp+28], esi
	call	??0exception@std@@QAE@ABV01@@Z		; std::exception::exception
	xor	edx, edx
	mov	DWORD PTR __$EHRec$[esp+32], edx
	push	-1
	lea	ecx, DWORD PTR [esi+12]
	mov	DWORD PTR [esi], OFFSET ??_7logic_error@std@@6B@
	lea	eax, DWORD PTR [edi+12]
	push	edx
	mov	DWORD PTR [ecx+24], 15			; 0000000fH
	mov	DWORD PTR [ecx+20], edx
	push	eax
	mov	BYTE PTR [ecx+4], dl
	call	?assign@?$basic_string@DU?$char_traits@D@std@@V?$allocator@D@2@@std@@QAEAAV12@ABV12@II@Z ; std::basic_string<char,std::char_traits<char>,std::allocator<char> >::assign
	mov	ecx, DWORD PTR __$EHRec$[esp+24]
	pop	edi
	mov	eax, esi
	pop	esi
	mov	DWORD PTR fs:0, ecx
	add	esp, 16					; 00000010H
	ret	4
_TEXT	ENDS
;	COMDAT text$x
text$x	SEGMENT
__unwindfunclet$??0logic_error@std@@QAE@ABV01@@Z$0:
	mov	ecx, DWORD PTR _this$[ebp]
	jmp	??1exception@std@@UAE@XZ		; std::exception::~exception
__ehhandler$??0logic_error@std@@QAE@ABV01@@Z:
	mov	eax, OFFSET __ehfuncinfo$??0logic_error@std@@QAE@ABV01@@Z
	jmp	___CxxFrameHandler3
text$x	ENDS
??0logic_error@std@@QAE@ABV01@@Z ENDP			; std::logic_error::logic_error
; Function compile flags: /Ogtpy
;	COMDAT ??1length_error@std@@UAE@XZ
_TEXT	SEGMENT
??1length_error@std@@UAE@XZ PROC			; std::length_error::~length_error, COMDAT
; _this$ = ecx

; 109  : 		{	// destroy the object

	push	esi
	mov	esi, ecx

; 110  : 		}

	mov	DWORD PTR [esi], OFFSET ??_7logic_error@std@@6B@
	cmp	DWORD PTR [esi+36], 16			; 00000010H
	jb	SHORT $LN23@length_err
	mov	eax, DWORD PTR [esi+16]
	push	eax
	call	DWORD PTR ?RenDelete@@3P6AXPAX@ZA	; RenDelete
	add	esp, 4
$LN23@length_err:
	xor	eax, eax
	mov	DWORD PTR [esi+36], 15			; 0000000fH
	mov	DWORD PTR [esi+32], eax
	mov	BYTE PTR [esi+16], al
	mov	ecx, esi
	pop	esi
	jmp	??1exception@std@@UAE@XZ		; std::exception::~exception
??1length_error@std@@UAE@XZ ENDP			; std::length_error::~length_error
; Function compile flags: /Ogtpy
_TEXT	ENDS
;	COMDAT ??_Glogic_error@std@@UAEPAXI@Z
_TEXT	SEGMENT
___flags$ = 8						; size = 4
??_Glogic_error@std@@UAEPAXI@Z PROC			; std::logic_error::`scalar deleting destructor', COMDAT
; _this$ = ecx
	push	esi
	mov	esi, ecx
	mov	DWORD PTR [esi], OFFSET ??_7logic_error@std@@6B@
	cmp	DWORD PTR [esi+36], 16			; 00000010H
	jb	SHORT $LN24@scalar@36
	mov	eax, DWORD PTR [esi+16]
	push	eax
	call	DWORD PTR ?RenDelete@@3P6AXPAX@ZA	; RenDelete
	add	esp, 4
$LN24@scalar@36:
	xor	eax, eax
	mov	DWORD PTR [esi+36], 15			; 0000000fH
	mov	DWORD PTR [esi+32], eax
	mov	ecx, esi
	mov	BYTE PTR [esi+16], al
	call	??1exception@std@@UAE@XZ		; std::exception::~exception
	test	BYTE PTR ___flags$[esp], 1
	je	SHORT $LN36@scalar@36
	push	esi
	call	DWORD PTR ?RenDelete@@3P6AXPAX@ZA	; RenDelete
	add	esp, 4
$LN36@scalar@36:
	mov	eax, esi
	pop	esi
	ret	4
??_Glogic_error@std@@UAEPAXI@Z ENDP			; std::logic_error::`scalar deleting destructor'
_TEXT	ENDS
;	COMDAT xdata$x
; File c:\program files\microsoft visual studio 9.0\vc\include\iosfwd
xdata$x	SEGMENT
__unwindtable$??0logic_error@std@@QAE@ABV?$basic_string@DU?$char_traits@D@std@@V?$allocator@D@2@@1@@Z DD 0ffffffffH
	DD	FLAT:__unwindfunclet$??0logic_error@std@@QAE@ABV?$basic_string@DU?$char_traits@D@std@@V?$allocator@D@2@@1@@Z$0
__ehfuncinfo$??0logic_error@std@@QAE@ABV?$basic_string@DU?$char_traits@D@std@@V?$allocator@D@2@@1@@Z DD 019930522H
	DD	01H
	DD	FLAT:__unwindtable$??0logic_error@std@@QAE@ABV?$basic_string@DU?$char_traits@D@std@@V?$allocator@D@2@@1@@Z
	DD	2 DUP(00H)
	DD	2 DUP(00H)
	DD	00H
	DD	01H
; Function compile flags: /Ogtpy
; File c:\program files\microsoft visual studio 9.0\vc\include\stdexcept
xdata$x	ENDS
;	COMDAT ??0logic_error@std@@QAE@ABV?$basic_string@DU?$char_traits@D@std@@V?$allocator@D@2@@1@@Z
_TEXT	SEGMENT
_this$ = -16						; size = 4
__$EHRec$ = -12						; size = 12
__Message$ = 8						; size = 4
??0logic_error@std@@QAE@ABV?$basic_string@DU?$char_traits@D@std@@V?$allocator@D@2@@1@@Z PROC ; std::logic_error::logic_error, COMDAT
; _this$ = ecx

; 26   : 		{	// construct from message string

	push	-1
	push	__ehhandler$??0logic_error@std@@QAE@ABV?$basic_string@DU?$char_traits@D@std@@V?$allocator@D@2@@1@@Z
	mov	eax, DWORD PTR fs:0
	push	eax
	mov	DWORD PTR fs:0, esp
	push	ecx
	push	esi
	mov	esi, ecx
	mov	DWORD PTR _this$[esp+20], esi
	call	??0exception@std@@QAE@XZ		; std::exception::exception
	xor	eax, eax
	mov	DWORD PTR __$EHRec$[esp+28], eax
	lea	ecx, DWORD PTR [esi+12]
	mov	DWORD PTR [esi], OFFSET ??_7logic_error@std@@6B@
	push	-1
	mov	DWORD PTR [ecx+20], eax
	mov	DWORD PTR [ecx+24], 15			; 0000000fH
	push	eax
	mov	BYTE PTR [ecx+4], al
	mov	eax, DWORD PTR __Message$[esp+24]
	push	eax
	call	?assign@?$basic_string@DU?$char_traits@D@std@@V?$allocator@D@2@@std@@QAEAAV12@ABV12@II@Z ; std::basic_string<char,std::char_traits<char>,std::allocator<char> >::assign

; 27   : 		}

	mov	ecx, DWORD PTR __$EHRec$[esp+20]
	mov	eax, esi
	pop	esi
	mov	DWORD PTR fs:0, ecx
	add	esp, 16					; 00000010H
	ret	4
_TEXT	ENDS
;	COMDAT text$x
text$x	SEGMENT
__unwindfunclet$??0logic_error@std@@QAE@ABV?$basic_string@DU?$char_traits@D@std@@V?$allocator@D@2@@1@@Z$0:
	mov	ecx, DWORD PTR _this$[ebp]
	jmp	??1exception@std@@UAE@XZ		; std::exception::~exception
__ehhandler$??0logic_error@std@@QAE@ABV?$basic_string@DU?$char_traits@D@std@@V?$allocator@D@2@@1@@Z:
	mov	eax, OFFSET __ehfuncinfo$??0logic_error@std@@QAE@ABV?$basic_string@DU?$char_traits@D@std@@V?$allocator@D@2@@1@@Z
	jmp	___CxxFrameHandler3
text$x	ENDS
??0logic_error@std@@QAE@ABV?$basic_string@DU?$char_traits@D@std@@V?$allocator@D@2@@1@@Z ENDP ; std::logic_error::logic_error
; Function compile flags: /Ogtpy
;	COMDAT ??0length_error@std@@QAE@ABV01@@Z
_TEXT	SEGMENT
___that$ = 8						; size = 4
??0length_error@std@@QAE@ABV01@@Z PROC			; std::length_error::length_error, COMDAT
; _this$ = ecx
	mov	eax, DWORD PTR ___that$[esp-4]
	push	esi
	push	eax
	mov	esi, ecx
	call	??0logic_error@std@@QAE@ABV01@@Z
	mov	DWORD PTR [esi], OFFSET ??_7length_error@std@@6B@
	mov	eax, esi
	pop	esi
	ret	4
??0length_error@std@@QAE@ABV01@@Z ENDP			; std::length_error::length_error
; Function compile flags: /Ogtpy
; File c:\program files\microsoft visual studio 9.0\vc\include\xstring
_TEXT	ENDS
;	COMDAT ??4?$basic_string@DU?$char_traits@D@std@@V?$allocator@D@2@@std@@QAEAAV01@PBD@Z
_TEXT	SEGMENT
__Ptr$ = 8						; size = 4
??4?$basic_string@DU?$char_traits@D@std@@V?$allocator@D@2@@std@@QAEAAV01@PBD@Z PROC ; std::basic_string<char,std::char_traits<char>,std::allocator<char> >::operator=, COMDAT
; _this$ = ecx

; 920  : 		{	// assign [_Ptr, <null>)

	push	esi

; 921  : 		return (assign(_Ptr));

	mov	esi, DWORD PTR __Ptr$[esp]
	mov	eax, esi
	push	edi
	lea	edi, DWORD PTR [eax+1]
	npad	5
$LL7@operator@12:
	mov	dl, BYTE PTR [eax]
	inc	eax
	test	dl, dl
	jne	SHORT $LL7@operator@12
	sub	eax, edi
	push	eax
	push	esi
	call	?assign@?$basic_string@DU?$char_traits@D@std@@V?$allocator@D@2@@std@@QAEAAV12@PBDI@Z ; std::basic_string<char,std::char_traits<char>,std::allocator<char> >::assign
	pop	edi
	pop	esi

; 922  : 		}

	ret	4
??4?$basic_string@DU?$char_traits@D@std@@V?$allocator@D@2@@std@@QAEAAV01@PBD@Z ENDP ; std::basic_string<char,std::char_traits<char>,std::allocator<char> >::operator=
; Function compile flags: /Ogtpy
_TEXT	ENDS
;	COMDAT ??_Glength_error@std@@UAEPAXI@Z
_TEXT	SEGMENT
___flags$ = 8						; size = 4
??_Glength_error@std@@UAEPAXI@Z PROC			; std::length_error::`scalar deleting destructor', COMDAT
; _this$ = ecx
	push	esi
	mov	esi, ecx
	mov	DWORD PTR [esi], OFFSET ??_7logic_error@std@@6B@
	cmp	DWORD PTR [esi+36], 16			; 00000010H
	jb	SHORT $LN26@scalar@40
	mov	eax, DWORD PTR [esi+16]
	push	eax
	call	DWORD PTR ?RenDelete@@3P6AXPAX@ZA	; RenDelete
	add	esp, 4
$LN26@scalar@40:
	xor	eax, eax
	mov	DWORD PTR [esi+36], 15			; 0000000fH
	mov	DWORD PTR [esi+32], eax
	mov	ecx, esi
	mov	BYTE PTR [esi+16], al
	call	??1exception@std@@UAE@XZ		; std::exception::~exception
	test	BYTE PTR ___flags$[esp], 1
	je	SHORT $LN38@scalar@40
	push	esi
	call	DWORD PTR ?RenDelete@@3P6AXPAX@ZA	; RenDelete
	add	esp, 4
$LN38@scalar@40:
	mov	eax, esi
	pop	esi
	ret	4
??_Glength_error@std@@UAEPAXI@Z ENDP			; std::length_error::`scalar deleting destructor'
; Function compile flags: /Ogtpy
; File c:\program files\microsoft visual studio 9.0\vc\include\stdexcept
_TEXT	ENDS
;	COMDAT ??0length_error@std@@QAE@ABV?$basic_string@DU?$char_traits@D@std@@V?$allocator@D@2@@1@@Z
_TEXT	SEGMENT
__Message$ = 8						; size = 4
??0length_error@std@@QAE@ABV?$basic_string@DU?$char_traits@D@std@@V?$allocator@D@2@@1@@Z PROC ; std::length_error::length_error, COMDAT
; _this$ = ecx

; 105  : 		{	// construct from message string

	mov	eax, DWORD PTR __Message$[esp-4]
	push	esi
	push	eax
	mov	esi, ecx
	call	??0logic_error@std@@QAE@ABV?$basic_string@DU?$char_traits@D@std@@V?$allocator@D@2@@1@@Z ; std::logic_error::logic_error
	mov	DWORD PTR [esi], OFFSET ??_7length_error@std@@6B@

; 106  : 		}

	mov	eax, esi
	pop	esi
	ret	4
??0length_error@std@@QAE@ABV?$basic_string@DU?$char_traits@D@std@@V?$allocator@D@2@@1@@Z ENDP ; std::length_error::length_error
END
