; Listing generated by Microsoft (R) Optimizing Compiler Version 15.00.30729.01 

	TITLE	c:\Users\Admin\Desktop\Projects\SEye_Server\gmfunc.cpp
	.686P
	.XMM
	include listing.inc
	.model	flat

INCLUDELIB OLDNAMES

PUBLIC	??_R4?$numpunct@D@std@@6B@			; std::numpunct<char>::`RTTI Complete Object Locator'
PUBLIC	??_R3?$numpunct@D@std@@8			; std::numpunct<char>::`RTTI Class Hierarchy Descriptor'
PUBLIC	??_R2?$numpunct@D@std@@8			; std::numpunct<char>::`RTTI Base Class Array'
PUBLIC	??_R1A@?0A@EA@?$numpunct@D@std@@8		; std::numpunct<char>::`RTTI Base Class Descriptor at (0,-1,0,64)'
PUBLIC	??_R0?AV?$numpunct@D@std@@@8			; std::numpunct<char> `RTTI Type Descriptor'
PUBLIC	??_R4?$codecvt@DDH@std@@6B@			; std::codecvt<char,char,int>::`RTTI Complete Object Locator'
PUBLIC	??_R3?$codecvt@DDH@std@@8			; std::codecvt<char,char,int>::`RTTI Class Hierarchy Descriptor'
PUBLIC	??_R2?$codecvt@DDH@std@@8			; std::codecvt<char,char,int>::`RTTI Base Class Array'
PUBLIC	??_R1A@?0A@EA@?$codecvt@DDH@std@@8		; std::codecvt<char,char,int>::`RTTI Base Class Descriptor at (0,-1,0,64)'
PUBLIC	??_R0?AV?$codecvt@DDH@std@@@8			; std::codecvt<char,char,int> `RTTI Type Descriptor'
PUBLIC	??_R4?$num_put@DV?$ostreambuf_iterator@DU?$char_traits@D@std@@@std@@@std@@6B@ ; std::num_put<char,std::ostreambuf_iterator<char,std::char_traits<char> > >::`RTTI Complete Object Locator'
PUBLIC	??_R3?$num_put@DV?$ostreambuf_iterator@DU?$char_traits@D@std@@@std@@@std@@8 ; std::num_put<char,std::ostreambuf_iterator<char,std::char_traits<char> > >::`RTTI Class Hierarchy Descriptor'
PUBLIC	??_R2?$num_put@DV?$ostreambuf_iterator@DU?$char_traits@D@std@@@std@@@std@@8 ; std::num_put<char,std::ostreambuf_iterator<char,std::char_traits<char> > >::`RTTI Base Class Array'
PUBLIC	??_R1A@?0A@EA@?$num_put@DV?$ostreambuf_iterator@DU?$char_traits@D@std@@@std@@@std@@8 ; std::num_put<char,std::ostreambuf_iterator<char,std::char_traits<char> > >::`RTTI Base Class Descriptor at (0,-1,0,64)'
PUBLIC	??_R0?AV?$num_put@DV?$ostreambuf_iterator@DU?$char_traits@D@std@@@std@@@std@@@8 ; std::num_put<char,std::ostreambuf_iterator<char,std::char_traits<char> > > `RTTI Type Descriptor'
PUBLIC	??_R4failure@ios_base@std@@6B@			; std::ios_base::failure::`RTTI Complete Object Locator'
PUBLIC	??_R3failure@ios_base@std@@8			; std::ios_base::failure::`RTTI Class Hierarchy Descriptor'
PUBLIC	??_R2failure@ios_base@std@@8			; std::ios_base::failure::`RTTI Base Class Array'
PUBLIC	??_R1A@?0A@EA@failure@ios_base@std@@8		; std::ios_base::failure::`RTTI Base Class Descriptor at (0,-1,0,64)'
PUBLIC	??_R4?$ctype@D@std@@6B@				; std::ctype<char>::`RTTI Complete Object Locator'
PUBLIC	??_R3?$ctype@D@std@@8				; std::ctype<char>::`RTTI Class Hierarchy Descriptor'
PUBLIC	??_R2?$ctype@D@std@@8				; std::ctype<char>::`RTTI Base Class Array'
PUBLIC	??_R1A@?0A@EA@?$ctype@D@std@@8			; std::ctype<char>::`RTTI Base Class Descriptor at (0,-1,0,64)'
PUBLIC	??_R0?AV?$ctype@D@std@@@8			; std::ctype<char> `RTTI Type Descriptor'
PUBLIC	??_R4ctype_base@std@@6B@			; std::ctype_base::`RTTI Complete Object Locator'
PUBLIC	??_R3ctype_base@std@@8				; std::ctype_base::`RTTI Class Hierarchy Descriptor'
PUBLIC	??_R2ctype_base@std@@8				; std::ctype_base::`RTTI Base Class Array'
PUBLIC	??_R1A@?0A@EA@ctype_base@std@@8			; std::ctype_base::`RTTI Base Class Descriptor at (0,-1,0,64)'
PUBLIC	??_R0?AUctype_base@std@@@8			; std::ctype_base `RTTI Type Descriptor'
PUBLIC	??_R4codecvt_base@std@@6B@			; std::codecvt_base::`RTTI Complete Object Locator'
PUBLIC	??_R3codecvt_base@std@@8			; std::codecvt_base::`RTTI Class Hierarchy Descriptor'
PUBLIC	??_R2codecvt_base@std@@8			; std::codecvt_base::`RTTI Base Class Array'
PUBLIC	??_R1A@?0A@EA@codecvt_base@std@@8		; std::codecvt_base::`RTTI Base Class Descriptor at (0,-1,0,64)'
PUBLIC	??_R0?AVcodecvt_base@std@@@8			; std::codecvt_base `RTTI Type Descriptor'
PUBLIC	??_R4facet@locale@std@@6B@			; std::locale::facet::`RTTI Complete Object Locator'
PUBLIC	??_R3facet@locale@std@@8			; std::locale::facet::`RTTI Class Hierarchy Descriptor'
PUBLIC	??_R2facet@locale@std@@8			; std::locale::facet::`RTTI Base Class Array'
PUBLIC	??_R1A@?0A@EA@facet@locale@std@@8		; std::locale::facet::`RTTI Base Class Descriptor at (0,-1,0,64)'
PUBLIC	??_R0?AVfacet@locale@std@@@8			; std::locale::facet `RTTI Type Descriptor'
PUBLIC	??_R4runtime_error@std@@6B@			; std::runtime_error::`RTTI Complete Object Locator'
PUBLIC	??_R3runtime_error@std@@8			; std::runtime_error::`RTTI Class Hierarchy Descriptor'
PUBLIC	??_R2runtime_error@std@@8			; std::runtime_error::`RTTI Base Class Array'
PUBLIC	??_R1A@?0A@EA@runtime_error@std@@8		; std::runtime_error::`RTTI Base Class Descriptor at (0,-1,0,64)'
PUBLIC	??_R4?$basic_ofstream@DU?$char_traits@D@std@@@std@@6B@ ; std::basic_ofstream<char,std::char_traits<char> >::`RTTI Complete Object Locator'
PUBLIC	??_R3?$basic_ofstream@DU?$char_traits@D@std@@@std@@8 ; std::basic_ofstream<char,std::char_traits<char> >::`RTTI Class Hierarchy Descriptor'
PUBLIC	??_R2?$basic_ofstream@DU?$char_traits@D@std@@@std@@8 ; std::basic_ofstream<char,std::char_traits<char> >::`RTTI Base Class Array'
PUBLIC	??_R1A@?0A@EA@?$basic_ofstream@DU?$char_traits@D@std@@@std@@8 ; std::basic_ofstream<char,std::char_traits<char> >::`RTTI Base Class Descriptor at (0,-1,0,64)'
PUBLIC	??_R0?AV?$basic_ofstream@DU?$char_traits@D@std@@@std@@@8 ; std::basic_ofstream<char,std::char_traits<char> > `RTTI Type Descriptor'
PUBLIC	??_R4?$basic_filebuf@DU?$char_traits@D@std@@@std@@6B@ ; std::basic_filebuf<char,std::char_traits<char> >::`RTTI Complete Object Locator'
PUBLIC	??_R3?$basic_filebuf@DU?$char_traits@D@std@@@std@@8 ; std::basic_filebuf<char,std::char_traits<char> >::`RTTI Class Hierarchy Descriptor'
PUBLIC	??_R2?$basic_filebuf@DU?$char_traits@D@std@@@std@@8 ; std::basic_filebuf<char,std::char_traits<char> >::`RTTI Base Class Array'
PUBLIC	??_R1A@?0A@EA@?$basic_filebuf@DU?$char_traits@D@std@@@std@@8 ; std::basic_filebuf<char,std::char_traits<char> >::`RTTI Base Class Descriptor at (0,-1,0,64)'
PUBLIC	??_R0?AV?$basic_filebuf@DU?$char_traits@D@std@@@std@@@8 ; std::basic_filebuf<char,std::char_traits<char> > `RTTI Type Descriptor'
PUBLIC	??_R4?$basic_stringstream@DU?$char_traits@D@std@@V?$allocator@D@2@@std@@6B@ ; std::basic_stringstream<char,std::char_traits<char>,std::allocator<char> >::`RTTI Complete Object Locator'
PUBLIC	??_R3?$basic_stringstream@DU?$char_traits@D@std@@V?$allocator@D@2@@std@@8 ; std::basic_stringstream<char,std::char_traits<char>,std::allocator<char> >::`RTTI Class Hierarchy Descriptor'
PUBLIC	??_R2?$basic_stringstream@DU?$char_traits@D@std@@V?$allocator@D@2@@std@@8 ; std::basic_stringstream<char,std::char_traits<char>,std::allocator<char> >::`RTTI Base Class Array'
PUBLIC	??_R1A@?0A@EA@?$basic_stringstream@DU?$char_traits@D@std@@V?$allocator@D@2@@std@@8 ; std::basic_stringstream<char,std::char_traits<char>,std::allocator<char> >::`RTTI Base Class Descriptor at (0,-1,0,64)'
PUBLIC	??_R0?AV?$basic_stringstream@DU?$char_traits@D@std@@V?$allocator@D@2@@std@@@8 ; std::basic_stringstream<char,std::char_traits<char>,std::allocator<char> > `RTTI Type Descriptor'
PUBLIC	??_R4?$basic_stringbuf@DU?$char_traits@D@std@@V?$allocator@D@2@@std@@6B@ ; std::basic_stringbuf<char,std::char_traits<char>,std::allocator<char> >::`RTTI Complete Object Locator'
PUBLIC	??_R3?$basic_stringbuf@DU?$char_traits@D@std@@V?$allocator@D@2@@std@@8 ; std::basic_stringbuf<char,std::char_traits<char>,std::allocator<char> >::`RTTI Class Hierarchy Descriptor'
PUBLIC	??_R2?$basic_stringbuf@DU?$char_traits@D@std@@V?$allocator@D@2@@std@@8 ; std::basic_stringbuf<char,std::char_traits<char>,std::allocator<char> >::`RTTI Base Class Array'
PUBLIC	??_R1A@?0A@EA@?$basic_stringbuf@DU?$char_traits@D@std@@V?$allocator@D@2@@std@@8 ; std::basic_stringbuf<char,std::char_traits<char>,std::allocator<char> >::`RTTI Base Class Descriptor at (0,-1,0,64)'
PUBLIC	??_R0?AV?$basic_stringbuf@DU?$char_traits@D@std@@V?$allocator@D@2@@std@@@8 ; std::basic_stringbuf<char,std::char_traits<char>,std::allocator<char> > `RTTI Type Descriptor'
PUBLIC	??_R4?$basic_iostream@DU?$char_traits@D@std@@@std@@6B@ ; std::basic_iostream<char,std::char_traits<char> >::`RTTI Complete Object Locator'
PUBLIC	??_R3?$basic_iostream@DU?$char_traits@D@std@@@std@@8 ; std::basic_iostream<char,std::char_traits<char> >::`RTTI Class Hierarchy Descriptor'
PUBLIC	??_R2?$basic_iostream@DU?$char_traits@D@std@@@std@@8 ; std::basic_iostream<char,std::char_traits<char> >::`RTTI Base Class Array'
PUBLIC	??_R17?0A@EA@?$basic_ostream@DU?$char_traits@D@std@@@std@@8 ; std::basic_ostream<char,std::char_traits<char> >::`RTTI Base Class Descriptor at (8,-1,0,64)'
PUBLIC	??_R1A@?0A@EA@?$basic_iostream@DU?$char_traits@D@std@@@std@@8 ; std::basic_iostream<char,std::char_traits<char> >::`RTTI Base Class Descriptor at (0,-1,0,64)'
PUBLIC	??_R0?AV?$basic_iostream@DU?$char_traits@D@std@@@std@@@8 ; std::basic_iostream<char,std::char_traits<char> > `RTTI Type Descriptor'
PUBLIC	??_R4?$basic_ostream@DU?$char_traits@D@std@@@std@@6B@ ; std::basic_ostream<char,std::char_traits<char> >::`RTTI Complete Object Locator'
PUBLIC	??_R3?$basic_ostream@DU?$char_traits@D@std@@@std@@8 ; std::basic_ostream<char,std::char_traits<char> >::`RTTI Class Hierarchy Descriptor'
PUBLIC	??_R2?$basic_ostream@DU?$char_traits@D@std@@@std@@8 ; std::basic_ostream<char,std::char_traits<char> >::`RTTI Base Class Array'
PUBLIC	??_R1A@?0A@EA@?$basic_ostream@DU?$char_traits@D@std@@@std@@8 ; std::basic_ostream<char,std::char_traits<char> >::`RTTI Base Class Descriptor at (0,-1,0,64)'
PUBLIC	??_R0?AV?$basic_ostream@DU?$char_traits@D@std@@@std@@@8 ; std::basic_ostream<char,std::char_traits<char> > `RTTI Type Descriptor'
PUBLIC	??_R4?$basic_istream@DU?$char_traits@D@std@@@std@@6B@ ; std::basic_istream<char,std::char_traits<char> >::`RTTI Complete Object Locator'
PUBLIC	??_R3?$basic_istream@DU?$char_traits@D@std@@@std@@8 ; std::basic_istream<char,std::char_traits<char> >::`RTTI Class Hierarchy Descriptor'
PUBLIC	??_R2?$basic_istream@DU?$char_traits@D@std@@@std@@8 ; std::basic_istream<char,std::char_traits<char> >::`RTTI Base Class Array'
PUBLIC	??_R13A@3EA@?$_Iosb@H@std@@8			; std::_Iosb<int>::`RTTI Base Class Descriptor at (4,0,4,64)'
PUBLIC	??_R1A@A@3EA@ios_base@std@@8			; std::ios_base::`RTTI Base Class Descriptor at (0,0,4,64)'
PUBLIC	??_R1A@A@3FA@?$basic_ios@DU?$char_traits@D@std@@@std@@8 ; std::basic_ios<char,std::char_traits<char> >::`RTTI Base Class Descriptor at (0,0,4,80)'
PUBLIC	??_R1A@?0A@EA@?$basic_istream@DU?$char_traits@D@std@@@std@@8 ; std::basic_istream<char,std::char_traits<char> >::`RTTI Base Class Descriptor at (0,-1,0,64)'
PUBLIC	??_R0?AV?$basic_istream@DU?$char_traits@D@std@@@std@@@8 ; std::basic_istream<char,std::char_traits<char> > `RTTI Type Descriptor'
PUBLIC	??_R4?$basic_streambuf@DU?$char_traits@D@std@@@std@@6B@ ; std::basic_streambuf<char,std::char_traits<char> >::`RTTI Complete Object Locator'
PUBLIC	??_R3?$basic_streambuf@DU?$char_traits@D@std@@@std@@8 ; std::basic_streambuf<char,std::char_traits<char> >::`RTTI Class Hierarchy Descriptor'
PUBLIC	??_R2?$basic_streambuf@DU?$char_traits@D@std@@@std@@8 ; std::basic_streambuf<char,std::char_traits<char> >::`RTTI Base Class Array'
PUBLIC	??_R1A@?0A@EA@?$basic_streambuf@DU?$char_traits@D@std@@@std@@8 ; std::basic_streambuf<char,std::char_traits<char> >::`RTTI Base Class Descriptor at (0,-1,0,64)'
PUBLIC	??_R0?AV?$basic_streambuf@DU?$char_traits@D@std@@@std@@@8 ; std::basic_streambuf<char,std::char_traits<char> > `RTTI Type Descriptor'
PUBLIC	??_R4?$basic_ios@DU?$char_traits@D@std@@@std@@6B@ ; std::basic_ios<char,std::char_traits<char> >::`RTTI Complete Object Locator'
PUBLIC	??_R3?$basic_ios@DU?$char_traits@D@std@@@std@@8	; std::basic_ios<char,std::char_traits<char> >::`RTTI Class Hierarchy Descriptor'
PUBLIC	??_R2?$basic_ios@DU?$char_traits@D@std@@@std@@8	; std::basic_ios<char,std::char_traits<char> >::`RTTI Base Class Array'
PUBLIC	??_R1A@?0A@EA@?$basic_ios@DU?$char_traits@D@std@@@std@@8 ; std::basic_ios<char,std::char_traits<char> >::`RTTI Base Class Descriptor at (0,-1,0,64)'
PUBLIC	??_R0?AV?$basic_ios@DU?$char_traits@D@std@@@std@@@8 ; std::basic_ios<char,std::char_traits<char> > `RTTI Type Descriptor'
PUBLIC	??_R4ios_base@std@@6B@				; std::ios_base::`RTTI Complete Object Locator'
PUBLIC	??_R3ios_base@std@@8				; std::ios_base::`RTTI Class Hierarchy Descriptor'
PUBLIC	??_R2ios_base@std@@8				; std::ios_base::`RTTI Base Class Array'
PUBLIC	??_R13?0A@EA@?$_Iosb@H@std@@8			; std::_Iosb<int>::`RTTI Base Class Descriptor at (4,-1,0,64)'
PUBLIC	??_R3?$_Iosb@H@std@@8				; std::_Iosb<int>::`RTTI Class Hierarchy Descriptor'
PUBLIC	??_R2?$_Iosb@H@std@@8				; std::_Iosb<int>::`RTTI Base Class Array'
PUBLIC	??_R1A@?0A@EA@?$_Iosb@H@std@@8			; std::_Iosb<int>::`RTTI Base Class Descriptor at (0,-1,0,64)'
PUBLIC	??_R0?AV?$_Iosb@H@std@@@8			; std::_Iosb<int> `RTTI Type Descriptor'
PUBLIC	??_R1A@?0A@EA@ios_base@std@@8			; std::ios_base::`RTTI Base Class Descriptor at (0,-1,0,64)'
PUBLIC	??_R0?AVios_base@std@@@8			; std::ios_base `RTTI Type Descriptor'
PUBLIC	??0INIWrapper@@QAE@PBD@Z			; INIWrapper::INIWrapper
PUBLIC	??4INIWrapper@@QAEAAV0@PBD@Z			; INIWrapper::operator=
PUBLIC	??1INIWrapper@@QAE@XZ				; INIWrapper::~INIWrapper
PUBLIC	?end@?$basic_string@DU?$char_traits@D@std@@V?$allocator@D@2@@std@@QAE?AV?$_String_iterator@DU?$char_traits@D@std@@V?$allocator@D@2@@2@XZ ; std::basic_string<char,std::char_traits<char>,std::allocator<char> >::end
PUBLIC	??$_Iter_random@V?$_String_iterator@DU?$char_traits@D@std@@V?$allocator@D@2@@std@@V12@@std@@YA?AUrandom_access_iterator_tag@0@ABV?$_String_iterator@DU?$char_traits@D@std@@V?$allocator@D@2@@0@0@Z ; std::_Iter_random<std::_String_iterator<char,std::char_traits<char>,std::allocator<char> >,std::_String_iterator<char,std::char_traits<char>,std::allocator<char> > >
PUBLIC	??Y?$_String_const_iterator@DU?$char_traits@D@std@@V?$allocator@D@2@@std@@QAEAAV01@H@Z ; std::_String_const_iterator<char,std::char_traits<char>,std::allocator<char> >::operator+=
PUBLIC	??Y?$_String_iterator@DU?$char_traits@D@std@@V?$allocator@D@2@@std@@QAEAAV01@H@Z ; std::_String_iterator<char,std::char_traits<char>,std::allocator<char> >::operator+=
PUBLIC	??H?$_String_iterator@DU?$char_traits@D@std@@V?$allocator@D@2@@std@@QBE?AV01@H@Z ; std::_String_iterator<char,std::char_traits<char>,std::allocator<char> >::operator+
PUBLIC	?_Checked_iterator_base@?$_String_iterator@DU?$char_traits@D@std@@V?$allocator@D@2@@std@@QBEPADXZ ; std::_String_iterator<char,std::char_traits<char>,std::allocator<char> >::_Checked_iterator_base
PUBLIC	??$_Checked_base@V?$_String_iterator@DU?$char_traits@D@std@@V?$allocator@D@2@@std@@U_Different_checked_iterator_base_type_tag@2@@std@@YAPADAAV?$_String_iterator@DU?$char_traits@D@std@@V?$allocator@D@2@@0@U_Different_checked_iterator_base_type_tag@0@@Z ; std::_Checked_base<std::_String_iterator<char,std::char_traits<char>,std::allocator<char> >,std::_Different_checked_iterator_base_type_tag>
PUBLIC	??$_Checked_base@V?$_String_iterator@DU?$char_traits@D@std@@V?$allocator@D@2@@std@@@std@@YAPADAAV?$_String_iterator@DU?$char_traits@D@std@@V?$allocator@D@2@@0@@Z ; std::_Checked_base<std::_String_iterator<char,std::char_traits<char>,std::allocator<char> > >
PUBLIC	??$_Transform@PADPADP6AHH@ZUforward_iterator_tag@std@@@std@@YAPADPAD00P6AHH@ZUforward_iterator_tag@0@U_Range_checked_iterator_tag@0@@Z ; std::_Transform<char *,char *,int (__cdecl*)(int),std::forward_iterator_tag>
PUBLIC	??$_Transform@PADV?$_String_iterator@DU?$char_traits@D@std@@V?$allocator@D@2@@std@@P6AHH@Z@std@@YA?AV?$_String_iterator@DU?$char_traits@D@std@@V?$allocator@D@2@@0@PAD0V10@P6AHH@ZUrandom_access_iterator_tag@0@U_Range_checked_iterator_tag@0@@Z ; std::_Transform<char *,std::_String_iterator<char,std::char_traits<char>,std::allocator<char> >,int (__cdecl*)(int)>
PUBLIC	??$transform@V?$_String_iterator@DU?$char_traits@D@std@@V?$allocator@D@2@@std@@V12@P6AHH@Z@std@@YA?AV?$_String_iterator@DU?$char_traits@D@std@@V?$allocator@D@2@@0@V10@00P6AHH@Z@Z ; std::transform<std::_String_iterator<char,std::char_traits<char>,std::allocator<char> >,std::_String_iterator<char,std::char_traits<char>,std::allocator<char> >,int (__cdecl*)(int)>
PUBLIC	?append@?$basic_string@DU?$char_traits@D@std@@V?$allocator@D@2@@std@@QAEAAV12@ABV12@@Z ; std::basic_string<char,std::char_traits<char>,std::allocator<char> >::append
PUBLIC	??Y?$basic_string@DU?$char_traits@D@std@@V?$allocator@D@2@@std@@QAEAAV01@ABV01@@Z ; std::basic_string<char,std::char_traits<char>,std::allocator<char> >::operator+=
PUBLIC	?append@?$basic_string@DU?$char_traits@D@std@@V?$allocator@D@2@@std@@QAEAAV12@PBD@Z ; std::basic_string<char,std::char_traits<char>,std::allocator<char> >::append
PUBLIC	??Y?$basic_string@DU?$char_traits@D@std@@V?$allocator@D@2@@std@@QAEAAV01@PBD@Z ; std::basic_string<char,std::char_traits<char>,std::allocator<char> >::operator+=
PUBLIC	??$?HDU?$char_traits@D@std@@V?$allocator@D@1@@std@@YA?AV?$basic_string@DU?$char_traits@D@std@@V?$allocator@D@2@@0@ABV10@PBD@Z ; std::operator+<char,std::char_traits<char>,std::allocator<char> >
PUBLIC	?replace@?$basic_string@DU?$char_traits@D@std@@V?$allocator@D@2@@std@@QAEAAV12@IIABV12@II@Z ; std::basic_string<char,std::char_traits<char>,std::allocator<char> >::replace
PUBLIC	?replace@?$basic_string@DU?$char_traits@D@std@@V?$allocator@D@2@@std@@QAEAAV12@IIABV12@@Z ; std::basic_string<char,std::char_traits<char>,std::allocator<char> >::replace
PUBLIC	?find@?$char_traits@D@std@@SAPBDPBDIABD@Z	; std::char_traits<char>::find
PUBLIC	?find@?$basic_string@DU?$char_traits@D@std@@V?$allocator@D@2@@std@@QBEIPBDII@Z ; std::basic_string<char,std::char_traits<char>,std::allocator<char> >::find
PUBLIC	?find@?$basic_string@DU?$char_traits@D@std@@V?$allocator@D@2@@std@@QBEIABV12@I@Z ; std::basic_string<char,std::char_traits<char>,std::allocator<char> >::find
PUBLIC	??4?$basic_string@DU?$char_traits@D@std@@V?$allocator@D@2@@std@@QAEAAV01@ABV01@@Z ; std::basic_string<char,std::char_traits<char>,std::allocator<char> >::operator=
PUBLIC	??CINIWrapper@@QBEPAVINIClass@@XZ		; INIWrapper::operator->
PUBLIC	?_Init@?$num_put@DV?$ostreambuf_iterator@DU?$char_traits@D@std@@@std@@@std@@IAEXABV_Locinfo@2@@Z ; std::num_put<char,std::ostreambuf_iterator<char,std::char_traits<char> > >::_Init
PUBLIC	?assign@?$basic_string@DU?$char_traits@D@std@@V?$allocator@D@2@@std@@QAEAAV12@ABV12@@Z ; std::basic_string<char,std::char_traits<char>,std::allocator<char> >::assign
PUBLIC	?_Put@?$num_put@DV?$ostreambuf_iterator@DU?$char_traits@D@std@@@std@@@std@@ABA?AV?$ostreambuf_iterator@DU?$char_traits@D@std@@@2@V32@PBDI@Z ; std::num_put<char,std::ostreambuf_iterator<char,std::char_traits<char> > >::_Put
PUBLIC	?falsename@?$numpunct@D@std@@QBE?AV?$basic_string@DU?$char_traits@D@std@@V?$allocator@D@2@@2@XZ ; std::numpunct<char>::falsename
PUBLIC	?truename@?$numpunct@D@std@@QBE?AV?$basic_string@DU?$char_traits@D@std@@V?$allocator@D@2@@2@XZ ; std::numpunct<char>::truename
PUBLIC	?do_put@?$num_put@DV?$ostreambuf_iterator@DU?$char_traits@D@std@@@std@@@std@@MBE?AV?$ostreambuf_iterator@DU?$char_traits@D@std@@@2@V32@AAVios_base@2@D_N@Z ; std::num_put<char,std::ostreambuf_iterator<char,std::char_traits<char> > >::do_put
PUBLIC	?do_put@?$num_put@DV?$ostreambuf_iterator@DU?$char_traits@D@std@@@std@@@std@@MBE?AV?$ostreambuf_iterator@DU?$char_traits@D@std@@@2@V32@AAVios_base@2@DJ@Z ; std::num_put<char,std::ostreambuf_iterator<char,std::char_traits<char> > >::do_put
PUBLIC	?do_put@?$num_put@DV?$ostreambuf_iterator@DU?$char_traits@D@std@@@std@@@std@@MBE?AV?$ostreambuf_iterator@DU?$char_traits@D@std@@@2@V32@AAVios_base@2@DK@Z ; std::num_put<char,std::ostreambuf_iterator<char,std::char_traits<char> > >::do_put
PUBLIC	?do_put@?$num_put@DV?$ostreambuf_iterator@DU?$char_traits@D@std@@@std@@@std@@MBE?AV?$ostreambuf_iterator@DU?$char_traits@D@std@@@2@V32@AAVios_base@2@D_J@Z ; std::num_put<char,std::ostreambuf_iterator<char,std::char_traits<char> > >::do_put
PUBLIC	?_Ifmt@?$num_put@DV?$ostreambuf_iterator@DU?$char_traits@D@std@@@std@@@std@@ABAPADPADPBDH@Z ; std::num_put<char,std::ostreambuf_iterator<char,std::char_traits<char> > >::_Ifmt
PUBLIC	?do_put@?$num_put@DV?$ostreambuf_iterator@DU?$char_traits@D@std@@@std@@@std@@MBE?AV?$ostreambuf_iterator@DU?$char_traits@D@std@@@2@V32@AAVios_base@2@D_K@Z ; std::num_put<char,std::ostreambuf_iterator<char,std::char_traits<char> > >::do_put
PUBLIC	?do_put@?$num_put@DV?$ostreambuf_iterator@DU?$char_traits@D@std@@@std@@@std@@MBE?AV?$ostreambuf_iterator@DU?$char_traits@D@std@@@2@V32@AAVios_base@2@DN@Z ; std::num_put<char,std::ostreambuf_iterator<char,std::char_traits<char> > >::do_put
PUBLIC	?precision@ios_base@std@@QBEHXZ			; std::ios_base::precision
PUBLIC	?_Ffmt@?$num_put@DV?$ostreambuf_iterator@DU?$char_traits@D@std@@@std@@@std@@ABAPADPADDH@Z ; std::num_put<char,std::ostreambuf_iterator<char,std::char_traits<char> > >::_Ffmt
PUBLIC	?append@?$basic_string@DU?$char_traits@D@std@@V?$allocator@D@2@@std@@QAEAAV12@ABV12@II@Z ; std::basic_string<char,std::char_traits<char>,std::allocator<char> >::append
PUBLIC	?append@?$basic_string@DU?$char_traits@D@std@@V?$allocator@D@2@@std@@QAEAAV12@PBDI@Z ; std::basic_string<char,std::char_traits<char>,std::allocator<char> >::append
PUBLIC	?insert@?$basic_string@DU?$char_traits@D@std@@V?$allocator@D@2@@std@@QAEAAV12@IID@Z ; std::basic_string<char,std::char_traits<char>,std::allocator<char> >::insert
PUBLIC	??A?$basic_string@DU?$char_traits@D@std@@V?$allocator@D@2@@std@@QAEAADI@Z ; std::basic_string<char,std::char_traits<char>,std::allocator<char> >::operator[]
PUBLIC	?decimal_point@?$numpunct@D@std@@QBEDXZ		; std::numpunct<char>::decimal_point
PUBLIC	?_Fput@?$num_put@DV?$ostreambuf_iterator@DU?$char_traits@D@std@@@std@@@std@@ABA?AV?$ostreambuf_iterator@DU?$char_traits@D@std@@@2@V32@AAVios_base@2@DPBDIIII@Z ; std::num_put<char,std::ostreambuf_iterator<char,std::char_traits<char> > >::_Fput
PUBLIC	?do_put@?$num_put@DV?$ostreambuf_iterator@DU?$char_traits@D@std@@@std@@@std@@MBE?AV?$ostreambuf_iterator@DU?$char_traits@D@std@@@2@V32@AAVios_base@2@DO@Z ; std::num_put<char,std::ostreambuf_iterator<char,std::char_traits<char> > >::do_put
PUBLIC	?_Putc@?$num_put@DV?$ostreambuf_iterator@DU?$char_traits@D@std@@@std@@@std@@ABA?AV?$ostreambuf_iterator@DU?$char_traits@D@std@@@2@V32@PBDI@Z ; std::num_put<char,std::ostreambuf_iterator<char,std::char_traits<char> > >::_Putc
PUBLIC	?_Putgrouped@?$num_put@DV?$ostreambuf_iterator@DU?$char_traits@D@std@@@std@@@std@@ABA?AV?$ostreambuf_iterator@DU?$char_traits@D@std@@@2@V32@PBDID@Z ; std::num_put<char,std::ostreambuf_iterator<char,std::char_traits<char> > >::_Putgrouped
PUBLIC	??4?$ostreambuf_iterator@DU?$char_traits@D@std@@@std@@QAEAAV01@D@Z ; std::ostreambuf_iterator<char,std::char_traits<char> >::operator=
PUBLIC	??D?$ostreambuf_iterator@DU?$char_traits@D@std@@@std@@QAEAAV01@XZ ; std::ostreambuf_iterator<char,std::char_traits<char> >::operator*
PUBLIC	??E?$ostreambuf_iterator@DU?$char_traits@D@std@@@std@@QAEAAV01@XZ ; std::ostreambuf_iterator<char,std::char_traits<char> >::operator++
PUBLIC	?_Rep@?$num_put@DV?$ostreambuf_iterator@DU?$char_traits@D@std@@@std@@@std@@ABA?AV?$ostreambuf_iterator@DU?$char_traits@D@std@@@2@V32@DI@Z ; std::num_put<char,std::ostreambuf_iterator<char,std::char_traits<char> > >::_Rep
PUBLIC	?_Getcvt@_Locinfo@std@@QBE?AU_Cvtvec@@XZ	; std::_Locinfo::_Getcvt
PUBLIC	?_Getlconv@_Locinfo@std@@QBEPBUlconv@@XZ	; std::_Locinfo::_Getlconv
PUBLIC	?_Getfalse@_Locinfo@std@@QBEPBDXZ		; std::_Locinfo::_Getfalse
PUBLIC	?_Gettrue@_Locinfo@std@@QBEPBDXZ		; std::_Locinfo::_Gettrue
PUBLIC	??$_Maklocchr@D@std@@YADDPADABU_Cvtvec@@@Z	; std::_Maklocchr<char>
PUBLIC	??$_Maklocstr@D@std@@YAPADPBDPADABU_Cvtvec@@@Z	; std::_Maklocstr<char>
PUBLIC	?_Init@?$numpunct@D@std@@IAEXABV_Locinfo@2@_N@Z	; std::numpunct<char>::_Init
PUBLIC	?do_decimal_point@?$numpunct@D@std@@MBEDXZ	; std::numpunct<char>::do_decimal_point
PUBLIC	?do_thousands_sep@?$numpunct@D@std@@MBEDXZ	; std::numpunct<char>::do_thousands_sep
PUBLIC	?do_grouping@?$numpunct@D@std@@MBE?AV?$basic_string@DU?$char_traits@D@std@@V?$allocator@D@2@@2@XZ ; std::numpunct<char>::do_grouping
PUBLIC	?do_falsename@?$numpunct@D@std@@MBE?AV?$basic_string@DU?$char_traits@D@std@@V?$allocator@D@2@@2@XZ ; std::numpunct<char>::do_falsename
PUBLIC	?do_truename@?$numpunct@D@std@@MBE?AV?$basic_string@DU?$char_traits@D@std@@V?$allocator@D@2@@2@XZ ; std::numpunct<char>::do_truename
PUBLIC	?_Tidy@?$numpunct@D@std@@AAEXXZ			; std::numpunct<char>::_Tidy
PUBLIC	??1?$numpunct@D@std@@MAE@XZ			; std::numpunct<char>::~numpunct<char>
PUBLIC	??_G?$numpunct@D@std@@MAEPAXI@Z			; std::numpunct<char>::`scalar deleting destructor'
PUBLIC	??0?$numpunct@D@std@@QAE@ABV_Locinfo@1@I_N@Z	; std::numpunct<char>::numpunct<char>
PUBLIC	?_Getcat@?$numpunct@D@std@@SAIPAPBVfacet@locale@2@PBV42@@Z ; std::numpunct<char>::_Getcat
PUBLIC	??$use_facet@V?$numpunct@D@std@@@std@@YAABV?$numpunct@D@0@ABVlocale@0@@Z ; std::use_facet<std::numpunct<char> >
PUBLIC	?thousands_sep@?$numpunct@D@std@@QBEDXZ		; std::numpunct<char>::thousands_sep
PUBLIC	?grouping@?$numpunct@D@std@@QBE?AV?$basic_string@DU?$char_traits@D@std@@V?$allocator@D@2@@2@XZ ; std::numpunct<char>::grouping
PUBLIC	?_Iput@?$num_put@DV?$ostreambuf_iterator@DU?$char_traits@D@std@@@std@@@std@@ABA?AV?$ostreambuf_iterator@DU?$char_traits@D@std@@@2@V32@AAVios_base@2@DPADI@Z ; std::num_put<char,std::ostreambuf_iterator<char,std::char_traits<char> > >::_Iput
PUBLIC	?do_put@?$num_put@DV?$ostreambuf_iterator@DU?$char_traits@D@std@@@std@@@std@@MBE?AV?$ostreambuf_iterator@DU?$char_traits@D@std@@@2@V32@AAVios_base@2@DPBX@Z ; std::num_put<char,std::ostreambuf_iterator<char,std::char_traits<char> > >::do_put
PUBLIC	??1?$num_put@DV?$ostreambuf_iterator@DU?$char_traits@D@std@@@std@@@std@@MAE@XZ ; std::num_put<char,std::ostreambuf_iterator<char,std::char_traits<char> > >::~num_put<char,std::ostreambuf_iterator<char,std::char_traits<char> > >
PUBLIC	??_G?$num_put@DV?$ostreambuf_iterator@DU?$char_traits@D@std@@@std@@@std@@MAEPAXI@Z ; std::num_put<char,std::ostreambuf_iterator<char,std::char_traits<char> > >::`scalar deleting destructor'
PUBLIC	??0?$num_put@DV?$ostreambuf_iterator@DU?$char_traits@D@std@@@std@@@std@@QAE@ABV_Locinfo@1@I@Z ; std::num_put<char,std::ostreambuf_iterator<char,std::char_traits<char> > >::num_put<char,std::ostreambuf_iterator<char,std::char_traits<char> > >
PUBLIC	?_Getcat@?$num_put@DV?$ostreambuf_iterator@DU?$char_traits@D@std@@@std@@@std@@SAIPAPBVfacet@locale@2@PBV42@@Z ; std::num_put<char,std::ostreambuf_iterator<char,std::char_traits<char> > >::_Getcat
PUBLIC	??$use_facet@V?$num_put@DV?$ostreambuf_iterator@DU?$char_traits@D@std@@@std@@@std@@@std@@YAABV?$num_put@DV?$ostreambuf_iterator@DU?$char_traits@D@std@@@std@@@0@ABVlocale@0@@Z ; std::use_facet<std::num_put<char,std::ostreambuf_iterator<char,std::char_traits<char> > > >
PUBLIC	?put@?$num_put@DV?$ostreambuf_iterator@DU?$char_traits@D@std@@@std@@@std@@QBE?AV?$ostreambuf_iterator@DU?$char_traits@D@std@@@2@V32@AAVios_base@2@DJ@Z ; std::num_put<char,std::ostreambuf_iterator<char,std::char_traits<char> > >::put
PUBLIC	??0?$ostreambuf_iterator@DU?$char_traits@D@std@@@std@@QAE@PAV?$basic_streambuf@DU?$char_traits@D@std@@@1@@Z ; std::ostreambuf_iterator<char,std::char_traits<char> >::ostreambuf_iterator<char,std::char_traits<char> >
PUBLIC	?failed@?$ostreambuf_iterator@DU?$char_traits@D@std@@@std@@QBE_NXZ ; std::ostreambuf_iterator<char,std::char_traits<char> >::failed
PUBLIC	??6?$basic_ostream@DU?$char_traits@D@std@@@std@@QAEAAV01@H@Z ; std::basic_ostream<char,std::char_traits<char> >::operator<<
PUBLIC	??0?$basic_ostream@DU?$char_traits@D@std@@@std@@QAE@W4_Uninitialized@1@_N@Z ; std::basic_ostream<char,std::char_traits<char> >::basic_ostream<char,std::char_traits<char> >
PUBLIC	??0?$basic_istream@DU?$char_traits@D@std@@@std@@QAE@PAV?$basic_streambuf@DU?$char_traits@D@std@@@1@_N@Z ; std::basic_istream<char,std::char_traits<char> >::basic_istream<char,std::char_traits<char> >
PUBLIC	??0?$basic_iostream@DU?$char_traits@D@std@@@std@@QAE@PAV?$basic_streambuf@DU?$char_traits@D@std@@@1@@Z ; std::basic_iostream<char,std::char_traits<char> >::basic_iostream<char,std::char_traits<char> >
PUBLIC	?_Init@?$basic_stringbuf@DU?$char_traits@D@std@@V?$allocator@D@2@@std@@IAEXPBDIH@Z ; std::basic_stringbuf<char,std::char_traits<char>,std::allocator<char> >::_Init
PUBLIC	?_Getstate@?$basic_stringbuf@DU?$char_traits@D@std@@V?$allocator@D@2@@std@@AAEHH@Z ; std::basic_stringbuf<char,std::char_traits<char>,std::allocator<char> >::_Getstate
PUBLIC	??0?$basic_stringbuf@DU?$char_traits@D@std@@V?$allocator@D@2@@std@@QAE@H@Z ; std::basic_stringbuf<char,std::char_traits<char>,std::allocator<char> >::basic_stringbuf<char,std::char_traits<char>,std::allocator<char> >
PUBLIC	??0?$basic_stringstream@DU?$char_traits@D@std@@V?$allocator@D@2@@std@@QAE@H@Z ; std::basic_stringstream<char,std::char_traits<char>,std::allocator<char> >::basic_stringstream<char,std::char_traits<char>,std::allocator<char> >
PUBLIC	??0?$basic_string@DU?$char_traits@D@std@@V?$allocator@D@2@@std@@QAE@PBDI@Z ; std::basic_string<char,std::char_traits<char>,std::allocator<char> >::basic_string<char,std::char_traits<char>,std::allocator<char> >
PUBLIC	?str@?$basic_stringbuf@DU?$char_traits@D@std@@V?$allocator@D@2@@std@@QBE?AV?$basic_string@DU?$char_traits@D@std@@V?$allocator@D@2@@2@XZ ; std::basic_stringbuf<char,std::char_traits<char>,std::allocator<char> >::str
PUBLIC	?str@?$basic_stringstream@DU?$char_traits@D@std@@V?$allocator@D@2@@std@@QBE?AV?$basic_string@DU?$char_traits@D@std@@V?$allocator@D@2@@2@XZ ; std::basic_stringstream<char,std::char_traits<char>,std::allocator<char> >::str
PUBLIC	??_D?$basic_istream@DU?$char_traits@D@std@@@std@@QAEXXZ ; std::basic_istream<char,std::char_traits<char> >::`vbase destructor'
PUBLIC	??_G?$basic_istream@DU?$char_traits@D@std@@@std@@UAEPAXI@Z ; std::basic_istream<char,std::char_traits<char> >::`scalar deleting destructor'
PUBLIC	??1?$basic_istream@DU?$char_traits@D@std@@@std@@UAE@XZ ; std::basic_istream<char,std::char_traits<char> >::~basic_istream<char,std::char_traits<char> >
PUBLIC	??_D?$basic_iostream@DU?$char_traits@D@std@@@std@@QAEXXZ ; std::basic_iostream<char,std::char_traits<char> >::`vbase destructor'
PUBLIC	??_G?$basic_iostream@DU?$char_traits@D@std@@@std@@UAEPAXI@Z ; std::basic_iostream<char,std::char_traits<char> >::`scalar deleting destructor'
PUBLIC	??1?$basic_iostream@DU?$char_traits@D@std@@@std@@UAE@XZ ; std::basic_iostream<char,std::char_traits<char> >::~basic_iostream<char,std::char_traits<char> >
PUBLIC	?_Tidy@?$basic_stringbuf@DU?$char_traits@D@std@@V?$allocator@D@2@@std@@IAEXXZ ; std::basic_stringbuf<char,std::char_traits<char>,std::allocator<char> >::_Tidy
PUBLIC	?overflow@?$basic_stringbuf@DU?$char_traits@D@std@@V?$allocator@D@2@@std@@MAEHH@Z ; std::basic_stringbuf<char,std::char_traits<char>,std::allocator<char> >::overflow
PUBLIC	?eq@?$char_traits@D@std@@SA_NABD0@Z		; std::char_traits<char>::eq
PUBLIC	?pbackfail@?$basic_stringbuf@DU?$char_traits@D@std@@V?$allocator@D@2@@std@@MAEHH@Z ; std::basic_stringbuf<char,std::char_traits<char>,std::allocator<char> >::pbackfail
PUBLIC	?underflow@?$basic_stringbuf@DU?$char_traits@D@std@@V?$allocator@D@2@@std@@MAEHXZ ; std::basic_stringbuf<char,std::char_traits<char>,std::allocator<char> >::underflow
PUBLIC	?seekoff@?$basic_stringbuf@DU?$char_traits@D@std@@V?$allocator@D@2@@std@@MAE?AV?$fpos@H@2@JHH@Z ; std::basic_stringbuf<char,std::char_traits<char>,std::allocator<char> >::seekoff
PUBLIC	?pbase@?$basic_streambuf@DU?$char_traits@D@std@@@std@@IBEPADXZ ; std::basic_streambuf<char,std::char_traits<char> >::pbase
PUBLIC	?setp@?$basic_streambuf@DU?$char_traits@D@std@@@std@@IAEXPAD00@Z ; std::basic_streambuf<char,std::char_traits<char> >::setp
PUBLIC	?seekpos@?$basic_stringbuf@DU?$char_traits@D@std@@V?$allocator@D@2@@std@@MAE?AV?$fpos@H@2@V32@H@Z ; std::basic_stringbuf<char,std::char_traits<char>,std::allocator<char> >::seekpos
PUBLIC	??_G?$basic_stringbuf@DU?$char_traits@D@std@@V?$allocator@D@2@@std@@UAEPAXI@Z ; std::basic_stringbuf<char,std::char_traits<char>,std::allocator<char> >::`scalar deleting destructor'
PUBLIC	??1?$basic_stringbuf@DU?$char_traits@D@std@@V?$allocator@D@2@@std@@UAE@XZ ; std::basic_stringbuf<char,std::char_traits<char>,std::allocator<char> >::~basic_stringbuf<char,std::char_traits<char>,std::allocator<char> >
PUBLIC	??_G?$basic_stringstream@DU?$char_traits@D@std@@V?$allocator@D@2@@std@@UAEPAXI@Z ; std::basic_stringstream<char,std::char_traits<char>,std::allocator<char> >::`scalar deleting destructor'
PUBLIC	??1?$basic_stringstream@DU?$char_traits@D@std@@V?$allocator@D@2@@std@@UAE@XZ ; std::basic_stringstream<char,std::char_traits<char>,std::allocator<char> >::~basic_stringstream<char,std::char_traits<char>,std::allocator<char> >
PUBLIC	??_D?$basic_stringstream@DU?$char_traits@D@std@@V?$allocator@D@2@@std@@QAEXXZ ; std::basic_stringstream<char,std::char_traits<char>,std::allocator<char> >::`vbase destructor'
PUBLIC	??$ToString@H@@YA?AV?$basic_string@DU?$char_traits@D@std@@V?$allocator@D@2@@std@@ABH@Z ; ToString<int>
PUBLIC	?compare@?$basic_string@DU?$char_traits@D@std@@V?$allocator@D@2@@std@@QBEHPBD@Z ; std::basic_string<char,std::char_traits<char>,std::allocator<char> >::compare
PUBLIC	??$?8DU?$char_traits@D@std@@V?$allocator@D@1@@std@@YA_NABV?$basic_string@DU?$char_traits@D@std@@V?$allocator@D@2@@0@PBD@Z ; std::operator==<char,std::char_traits<char>,std::allocator<char> >
PUBLIC	??$?9DU?$char_traits@D@std@@V?$allocator@D@1@@std@@YA_NABV?$basic_string@DU?$char_traits@D@std@@V?$allocator@D@2@@0@PBD@Z ; std::operator!=<char,std::char_traits<char>,std::allocator<char> >
PUBLIC	?begin@?$vector@V?$basic_string@DU?$char_traits@D@std@@V?$allocator@D@2@@std@@V?$allocator@V?$basic_string@DU?$char_traits@D@std@@V?$allocator@D@2@@std@@@2@@std@@QBE?AV?$_Vector_const_iterator@V?$basic_string@DU?$char_traits@D@std@@V?$allocator@D@2@@std@@V?$allocator@V?$basic_string@DU?$char_traits@D@std@@V?$allocator@D@2@@std@@@2@@2@XZ ; std::vector<std::basic_string<char,std::char_traits<char>,std::allocator<char> >,std::allocator<std::basic_string<char,std::char_traits<char>,std::allocator<char> > > >::begin
PUBLIC	??0?$_Vector_const_iterator@V?$basic_string@DU?$char_traits@D@std@@V?$allocator@D@2@@std@@V?$allocator@V?$basic_string@DU?$char_traits@D@std@@V?$allocator@D@2@@std@@@2@@std@@QAE@PAV?$basic_string@DU?$char_traits@D@std@@V?$allocator@D@2@@1@PBV_Container_base_aux@1@@Z ; std::_Vector_const_iterator<std::basic_string<char,std::char_traits<char>,std::allocator<char> >,std::allocator<std::basic_string<char,std::char_traits<char>,std::allocator<char> > > >::_Vector_const_iterator<std::basic_string<char,std::char_traits<char>,std::allocator<char> >,std::allocator<std::basic_string<char,std::char_traits<char>,std::allocator<char> > > >
PUBLIC	?end@?$vector@V?$basic_string@DU?$char_traits@D@std@@V?$allocator@D@2@@std@@V?$allocator@V?$basic_string@DU?$char_traits@D@std@@V?$allocator@D@2@@std@@@2@@std@@QBE?AV?$_Vector_const_iterator@V?$basic_string@DU?$char_traits@D@std@@V?$allocator@D@2@@std@@V?$allocator@V?$basic_string@DU?$char_traits@D@std@@V?$allocator@D@2@@std@@@2@@2@XZ ; std::vector<std::basic_string<char,std::char_traits<char>,std::allocator<char> >,std::allocator<std::basic_string<char,std::char_traits<char>,std::allocator<char> > > >::end
PUBLIC	?size@?$vector@V?$basic_string@DU?$char_traits@D@std@@V?$allocator@D@2@@std@@V?$allocator@V?$basic_string@DU?$char_traits@D@std@@V?$allocator@D@2@@std@@@2@@std@@QBEIXZ ; std::vector<std::basic_string<char,std::char_traits<char>,std::allocator<char> >,std::allocator<std::basic_string<char,std::char_traits<char>,std::allocator<char> > > >::size
PUBLIC	?empty@?$vector@V?$basic_string@DU?$char_traits@D@std@@V?$allocator@D@2@@std@@V?$allocator@V?$basic_string@DU?$char_traits@D@std@@V?$allocator@D@2@@std@@@2@@std@@QBE_NXZ ; std::vector<std::basic_string<char,std::char_traits<char>,std::allocator<char> >,std::allocator<std::basic_string<char,std::char_traits<char>,std::allocator<char> > > >::empty
PUBLIC	??0?$_Iterator_with_base@Urandom_access_iterator_tag@std@@V?$basic_string@DU?$char_traits@D@std@@V?$allocator@D@2@@2@HPBV32@ABV32@V_Iterator_base_aux@2@@std@@QAE@XZ ; std::_Iterator_with_base<std::random_access_iterator_tag,std::basic_string<char,std::char_traits<char>,std::allocator<char> >,int,std::basic_string<char,std::char_traits<char>,std::allocator<char> > const *,std::basic_string<char,std::char_traits<char>,std::allocator<char> > const &,std::_Iterator_base_aux>::_Iterator_with_base<std::random_access_iterator_tag,std::basic_string<char,std::char_traits<char>,std::allocator<char> >,int,std::basic_string<char,std::char_traits<char>,std::allocator<char> > const *,std::basic_string<char,std::char_traits<char>,std::allocator<char> > const &,std::_Iterator_base_aux>
PUBLIC	??0?$_Ranit@V?$basic_string@DU?$char_traits@D@std@@V?$allocator@D@2@@std@@HPBV12@ABV12@@std@@QAE@XZ ; std::_Ranit<std::basic_string<char,std::char_traits<char>,std::allocator<char> >,int,std::basic_string<char,std::char_traits<char>,std::allocator<char> > const *,std::basic_string<char,std::char_traits<char>,std::allocator<char> > const &>::_Ranit<std::basic_string<char,std::char_traits<char>,std::allocator<char> >,int,std::basic_string<char,std::char_traits<char>,std::allocator<char> > const *,std::basic_string<char,std::char_traits<char>,std::allocator<char> > const &>
PUBLIC	??0?$_Vector_const_iterator@V?$basic_string@DU?$char_traits@D@std@@V?$allocator@D@2@@std@@V?$allocator@V?$basic_string@DU?$char_traits@D@std@@V?$allocator@D@2@@std@@@2@@std@@QAE@XZ ; std::_Vector_const_iterator<std::basic_string<char,std::char_traits<char>,std::allocator<char> >,std::allocator<std::basic_string<char,std::char_traits<char>,std::allocator<char> > > >::_Vector_const_iterator<std::basic_string<char,std::char_traits<char>,std::allocator<char> >,std::allocator<std::basic_string<char,std::char_traits<char>,std::allocator<char> > > >
PUBLIC	??D?$_Vector_const_iterator@V?$basic_string@DU?$char_traits@D@std@@V?$allocator@D@2@@std@@V?$allocator@V?$basic_string@DU?$char_traits@D@std@@V?$allocator@D@2@@std@@@2@@std@@QBEABV?$basic_string@DU?$char_traits@D@std@@V?$allocator@D@2@@1@XZ ; std::_Vector_const_iterator<std::basic_string<char,std::char_traits<char>,std::allocator<char> >,std::allocator<std::basic_string<char,std::char_traits<char>,std::allocator<char> > > >::operator*
PUBLIC	??E?$_Vector_const_iterator@V?$basic_string@DU?$char_traits@D@std@@V?$allocator@D@2@@std@@V?$allocator@V?$basic_string@DU?$char_traits@D@std@@V?$allocator@D@2@@std@@@2@@std@@QAEAAV01@XZ ; std::_Vector_const_iterator<std::basic_string<char,std::char_traits<char>,std::allocator<char> >,std::allocator<std::basic_string<char,std::char_traits<char>,std::allocator<char> > > >::operator++
PUBLIC	??8?$_Vector_const_iterator@V?$basic_string@DU?$char_traits@D@std@@V?$allocator@D@2@@std@@V?$allocator@V?$basic_string@DU?$char_traits@D@std@@V?$allocator@D@2@@std@@@2@@std@@QBE_NABV01@@Z ; std::_Vector_const_iterator<std::basic_string<char,std::char_traits<char>,std::allocator<char> >,std::allocator<std::basic_string<char,std::char_traits<char>,std::allocator<char> > > >::operator==
PUBLIC	??9?$_Vector_const_iterator@V?$basic_string@DU?$char_traits@D@std@@V?$allocator@D@2@@std@@V?$allocator@V?$basic_string@DU?$char_traits@D@std@@V?$allocator@D@2@@std@@@2@@std@@QBE_NABV01@@Z ; std::_Vector_const_iterator<std::basic_string<char,std::char_traits<char>,std::allocator<char> >,std::allocator<std::basic_string<char,std::char_traits<char>,std::allocator<char> > > >::operator!=
PUBLIC	?compare@?$char_traits@D@std@@SAHPBD0I@Z	; std::char_traits<char>::compare
PUBLIC	?compare@?$basic_string@DU?$char_traits@D@std@@V?$allocator@D@2@@std@@QBEHIIPBDI@Z ; std::basic_string<char,std::char_traits<char>,std::allocator<char> >::compare
PUBLIC	?compare@?$basic_string@DU?$char_traits@D@std@@V?$allocator@D@2@@std@@QBEHABV12@@Z ; std::basic_string<char,std::char_traits<char>,std::allocator<char> >::compare
PUBLIC	??$?8DU?$char_traits@D@std@@V?$allocator@D@1@@std@@YA_NABV?$basic_string@DU?$char_traits@D@std@@V?$allocator@D@2@@0@0@Z ; std::operator==<char,std::char_traits<char>,std::allocator<char> >
PUBLIC	?put@?$basic_ostream@DU?$char_traits@D@std@@@std@@QAEAAV12@D@Z ; std::basic_ostream<char,std::char_traits<char> >::put
PUBLIC	?endl@std@@YAAAV?$basic_ostream@DU?$char_traits@D@std@@@1@AAV21@@Z ; std::endl
PUBLIC	??6?$basic_ostream@DU?$char_traits@D@std@@@std@@QAEAAV01@P6AAAV01@AAV01@@Z@Z ; std::basic_ostream<char,std::char_traits<char> >::operator<<
PUBLIC	?clear@ios_base@std@@QAEXH@Z			; std::ios_base::clear
PUBLIC	?_Init@ios_base@std@@IAEXXZ			; std::ios_base::_Init
PUBLIC	?widen@?$ctype@D@std@@QBEDD@Z			; std::ctype<char>::widen
PUBLIC	??0ctype_base@std@@QAE@I@Z			; std::ctype_base::ctype_base
PUBLIC	?_Getctype@_Locinfo@std@@QBE?AU_Ctypevec@@XZ	; std::_Locinfo::_Getctype
PUBLIC	?_Init@?$ctype@D@std@@IAEXABV_Locinfo@2@@Z	; std::ctype<char>::_Init
PUBLIC	?do_tolower@?$ctype@D@std@@MBEDD@Z		; std::ctype<char>::do_tolower
PUBLIC	?do_tolower@?$ctype@D@std@@MBEPBDPADPBD@Z	; std::ctype<char>::do_tolower
PUBLIC	?do_toupper@?$ctype@D@std@@MBEDD@Z		; std::ctype<char>::do_toupper
PUBLIC	?do_toupper@?$ctype@D@std@@MBEPBDPADPBD@Z	; std::ctype<char>::do_toupper
PUBLIC	?do_widen@?$ctype@D@std@@MBEDD@Z		; std::ctype<char>::do_widen
PUBLIC	?do_widen@?$ctype@D@std@@MBEPBDPBD0PAD@Z	; std::ctype<char>::do_widen
PUBLIC	?_Do_widen_s@?$ctype@D@std@@MBEPBDPBD0PADI@Z	; std::ctype<char>::_Do_widen_s
PUBLIC	?do_narrow@?$ctype@D@std@@MBEDDD@Z		; std::ctype<char>::do_narrow
PUBLIC	?do_narrow@?$ctype@D@std@@MBEPBDPBD0DPAD@Z	; std::ctype<char>::do_narrow
PUBLIC	?_Do_narrow_s@?$ctype@D@std@@MBEPBDPBD0DPADI@Z	; std::ctype<char>::_Do_narrow_s
PUBLIC	??_Gctype_base@std@@UAEPAXI@Z			; std::ctype_base::`scalar deleting destructor'
PUBLIC	??1ctype_base@std@@UAE@XZ			; std::ctype_base::~ctype_base
PUBLIC	?_Tidy@?$ctype@D@std@@IAEXXZ			; std::ctype<char>::_Tidy
PUBLIC	??1?$ctype@D@std@@MAE@XZ			; std::ctype<char>::~ctype<char>
PUBLIC	??_G?$ctype@D@std@@MAEPAXI@Z			; std::ctype<char>::`scalar deleting destructor'
PUBLIC	??0?$ctype@D@std@@QAE@ABV_Locinfo@1@I@Z		; std::ctype<char>::ctype<char>
PUBLIC	?_Getcat@?$ctype@D@std@@SAIPAPBVfacet@locale@2@PBV42@@Z ; std::ctype<char>::_Getcat
PUBLIC	??$use_facet@V?$ctype@D@std@@@std@@YAABV?$ctype@D@0@ABVlocale@0@@Z ; std::use_facet<std::ctype<char> >
PUBLIC	?getloc@ios_base@std@@QBE?AVlocale@2@XZ		; std::ios_base::getloc
PUBLIC	?widen@?$basic_ios@DU?$char_traits@D@std@@@std@@QBEDD@Z ; std::basic_ios<char,std::char_traits<char> >::widen
PUBLIC	?init@?$basic_ios@DU?$char_traits@D@std@@@std@@IAEXPAV?$basic_streambuf@DU?$char_traits@D@std@@@2@_N@Z ; std::basic_ios<char,std::char_traits<char> >::init
PUBLIC	??0ios_base@std@@IAE@XZ				; std::ios_base::ios_base
PUBLIC	??0?$basic_ios@DU?$char_traits@D@std@@@std@@IAE@XZ ; std::basic_ios<char,std::char_traits<char> >::basic_ios<char,std::char_traits<char> >
PUBLIC	??0?$basic_ostream@DU?$char_traits@D@std@@@std@@QAE@PAV?$basic_streambuf@DU?$char_traits@D@std@@@1@_N@Z ; std::basic_ostream<char,std::char_traits<char> >::basic_ostream<char,std::char_traits<char> >
PUBLIC	??0locale@std@@QAE@XZ				; std::locale::locale
PUBLIC	??0?$basic_streambuf@DU?$char_traits@D@std@@@std@@IAE@XZ ; std::basic_streambuf<char,std::char_traits<char> >::basic_streambuf<char,std::char_traits<char> >
PUBLIC	??0?$basic_filebuf@DU?$char_traits@D@std@@@std@@QAE@PAU_iobuf@@@Z ; std::basic_filebuf<char,std::char_traits<char> >::basic_filebuf<char,std::char_traits<char> >
PUBLIC	??0?$basic_ofstream@DU?$char_traits@D@std@@@std@@QAE@XZ ; std::basic_ofstream<char,std::char_traits<char> >::basic_ofstream<char,std::char_traits<char> >
PUBLIC	??0locale@std@@QAE@ABV01@@Z			; std::locale::locale
PUBLIC	?getloc@?$basic_streambuf@DU?$char_traits@D@std@@@std@@QBE?AVlocale@2@XZ ; std::basic_streambuf<char,std::char_traits<char> >::getloc
PUBLIC	?open@?$basic_filebuf@DU?$char_traits@D@std@@@std@@QAEPAV12@PBDHH@Z ; std::basic_filebuf<char,std::char_traits<char> >::open
PUBLIC	?open@?$basic_ofstream@DU?$char_traits@D@std@@@std@@QAEXPBDHH@Z ; std::basic_ofstream<char,std::char_traits<char> >::open
PUBLIC	?close@?$basic_ofstream@DU?$char_traits@D@std@@@std@@QAEXXZ ; std::basic_ofstream<char,std::char_traits<char> >::close
PUBLIC	??_Gios_base@std@@UAEPAXI@Z			; std::ios_base::`scalar deleting destructor'
PUBLIC	??1ios_base@std@@UAE@XZ				; std::ios_base::~ios_base
PUBLIC	??_G?$basic_ios@DU?$char_traits@D@std@@@std@@UAEPAXI@Z ; std::basic_ios<char,std::char_traits<char> >::`scalar deleting destructor'
PUBLIC	??1?$basic_ios@DU?$char_traits@D@std@@@std@@UAE@XZ ; std::basic_ios<char,std::char_traits<char> >::~basic_ios<char,std::char_traits<char> >
PUBLIC	??_D?$basic_ostream@DU?$char_traits@D@std@@@std@@QAEXXZ ; std::basic_ostream<char,std::char_traits<char> >::`vbase destructor'
PUBLIC	??_G?$basic_ostream@DU?$char_traits@D@std@@@std@@UAEPAXI@Z ; std::basic_ostream<char,std::char_traits<char> >::`scalar deleting destructor'
PUBLIC	??1?$basic_ostream@DU?$char_traits@D@std@@@std@@UAE@XZ ; std::basic_ostream<char,std::char_traits<char> >::~basic_ostream<char,std::char_traits<char> >
PUBLIC	?_Decref@facet@locale@std@@QAEPAV123@XZ		; std::locale::facet::_Decref
PUBLIC	??1locale@std@@QAE@XZ				; std::locale::~locale
PUBLIC	??_Glocale@std@@QAEPAXI@Z			; std::locale::`scalar deleting destructor'
PUBLIC	?overflow@?$basic_streambuf@DU?$char_traits@D@std@@@std@@MAEHH@Z ; std::basic_streambuf<char,std::char_traits<char> >::overflow
PUBLIC	?pbackfail@?$basic_streambuf@DU?$char_traits@D@std@@@std@@MAEHH@Z ; std::basic_streambuf<char,std::char_traits<char> >::pbackfail
PUBLIC	?underflow@?$basic_streambuf@DU?$char_traits@D@std@@@std@@MAEHXZ ; std::basic_streambuf<char,std::char_traits<char> >::underflow
PUBLIC	?uflow@?$basic_streambuf@DU?$char_traits@D@std@@@std@@MAEHXZ ; std::basic_streambuf<char,std::char_traits<char> >::uflow
PUBLIC	?seekoff@?$basic_streambuf@DU?$char_traits@D@std@@@std@@MAE?AV?$fpos@H@2@JHH@Z ; std::basic_streambuf<char,std::char_traits<char> >::seekoff
PUBLIC	?seekpos@?$basic_streambuf@DU?$char_traits@D@std@@@std@@MAE?AV?$fpos@H@2@V32@H@Z ; std::basic_streambuf<char,std::char_traits<char> >::seekpos
PUBLIC	?setbuf@?$basic_streambuf@DU?$char_traits@D@std@@@std@@MAEPAV12@PADH@Z ; std::basic_streambuf<char,std::char_traits<char> >::setbuf
PUBLIC	?sync@?$basic_streambuf@DU?$char_traits@D@std@@@std@@MAEHXZ ; std::basic_streambuf<char,std::char_traits<char> >::sync
PUBLIC	?imbue@?$basic_streambuf@DU?$char_traits@D@std@@@std@@MAEXABVlocale@2@@Z ; std::basic_streambuf<char,std::char_traits<char> >::imbue
PUBLIC	??_G?$basic_streambuf@DU?$char_traits@D@std@@@std@@UAEPAXI@Z ; std::basic_streambuf<char,std::char_traits<char> >::`scalar deleting destructor'
PUBLIC	??1?$basic_streambuf@DU?$char_traits@D@std@@@std@@UAE@XZ ; std::basic_streambuf<char,std::char_traits<char> >::~basic_streambuf<char,std::char_traits<char> >
PUBLIC	?close@?$basic_filebuf@DU?$char_traits@D@std@@@std@@QAEPAV12@XZ ; std::basic_filebuf<char,std::char_traits<char> >::close
PUBLIC	?showmanyc@?$basic_streambuf@DU?$char_traits@D@std@@@std@@MAEHXZ ; std::basic_streambuf<char,std::char_traits<char> >::showmanyc
PUBLIC	?xsgetn@?$basic_streambuf@DU?$char_traits@D@std@@@std@@MAEHPADH@Z ; std::basic_streambuf<char,std::char_traits<char> >::xsgetn
PUBLIC	?gbump@?$basic_streambuf@DU?$char_traits@D@std@@@std@@IAEXH@Z ; std::basic_streambuf<char,std::char_traits<char> >::gbump
PUBLIC	?_Gnavail@?$basic_streambuf@DU?$char_traits@D@std@@@std@@IBEHXZ ; std::basic_streambuf<char,std::char_traits<char> >::_Gnavail
PUBLIC	?_Xsgetn_s@?$basic_streambuf@DU?$char_traits@D@std@@@std@@MAEHPADIH@Z ; std::basic_streambuf<char,std::char_traits<char> >::_Xsgetn_s
PUBLIC	?pbump@?$basic_streambuf@DU?$char_traits@D@std@@@std@@IAEXH@Z ; std::basic_streambuf<char,std::char_traits<char> >::pbump
PUBLIC	?xsputn@?$basic_streambuf@DU?$char_traits@D@std@@@std@@MAEHPBDH@Z ; std::basic_streambuf<char,std::char_traits<char> >::xsputn
PUBLIC	?pptr@?$basic_streambuf@DU?$char_traits@D@std@@@std@@IBEPADXZ ; std::basic_streambuf<char,std::char_traits<char> >::pptr
PUBLIC	?epptr@?$basic_streambuf@DU?$char_traits@D@std@@@std@@IBEPADXZ ; std::basic_streambuf<char,std::char_traits<char> >::epptr
PUBLIC	??$_Fputc@D@std@@YA_NDPAU_iobuf@@@Z		; std::_Fputc<char>
PUBLIC	?out@?$codecvt@DDH@std@@QBEHAAHPBD1AAPBDPAD3AAPAD@Z ; std::codecvt<char,char,int>::out
PUBLIC	?overflow@?$basic_filebuf@DU?$char_traits@D@std@@@std@@MAEHH@Z ; std::basic_filebuf<char,std::char_traits<char> >::overflow
PUBLIC	?to_char_type@?$char_traits@D@std@@SADABH@Z	; std::char_traits<char>::to_char_type
PUBLIC	?not_eof@?$char_traits@D@std@@SAHABH@Z		; std::char_traits<char>::not_eof
PUBLIC	?eback@?$basic_streambuf@DU?$char_traits@D@std@@@std@@IBEPADXZ ; std::basic_streambuf<char,std::char_traits<char> >::eback
PUBLIC	?_Gndec@?$basic_streambuf@DU?$char_traits@D@std@@@std@@IAEPADXZ ; std::basic_streambuf<char,std::char_traits<char> >::_Gndec
PUBLIC	??$_Ungetc@D@std@@YA_NABDPAU_iobuf@@@Z		; std::_Ungetc<char>
PUBLIC	?pbackfail@?$basic_filebuf@DU?$char_traits@D@std@@@std@@MAEHH@Z ; std::basic_filebuf<char,std::char_traits<char> >::pbackfail
PUBLIC	?underflow@?$basic_filebuf@DU?$char_traits@D@std@@@std@@MAEHXZ ; std::basic_filebuf<char,std::char_traits<char> >::underflow
PUBLIC	?egptr@?$basic_streambuf@DU?$char_traits@D@std@@@std@@IBEPADXZ ; std::basic_streambuf<char,std::char_traits<char> >::egptr
PUBLIC	?_Gninc@?$basic_streambuf@DU?$char_traits@D@std@@@std@@IAEPADXZ ; std::basic_streambuf<char,std::char_traits<char> >::_Gninc
PUBLIC	??$_Fgetc@D@std@@YA_NAADPAU_iobuf@@@Z		; std::_Fgetc<char>
PUBLIC	?in@?$codecvt@DDH@std@@QBEHAAHPBD1AAPBDPAD3AAPAD@Z ; std::codecvt<char,char,int>::in
PUBLIC	?uflow@?$basic_filebuf@DU?$char_traits@D@std@@@std@@MAEHXZ ; std::basic_filebuf<char,std::char_traits<char> >::uflow
PUBLIC	?seekoff@?$basic_filebuf@DU?$char_traits@D@std@@@std@@MAE?AV?$fpos@H@2@JHH@Z ; std::basic_filebuf<char,std::char_traits<char> >::seekoff
PUBLIC	?gptr@?$basic_streambuf@DU?$char_traits@D@std@@@std@@IBEPADXZ ; std::basic_streambuf<char,std::char_traits<char> >::gptr
PUBLIC	?assign@?$basic_string@DU?$char_traits@D@std@@V?$allocator@D@2@@std@@QAEAAV12@ID@Z ; std::basic_string<char,std::char_traits<char>,std::allocator<char> >::assign
PUBLIC	??0?$basic_string@DU?$char_traits@D@std@@V?$allocator@D@2@@std@@QAE@ID@Z ; std::basic_string<char,std::char_traits<char>,std::allocator<char> >::basic_string<char,std::char_traits<char>,std::allocator<char> >
PUBLIC	?assign@?$char_traits@D@std@@SAPADPADID@Z	; std::char_traits<char>::assign
PUBLIC	?_Chassign@?$basic_string@DU?$char_traits@D@std@@V?$allocator@D@2@@std@@IAEXIID@Z ; std::basic_string<char,std::char_traits<char>,std::allocator<char> >::_Chassign
PUBLIC	?append@?$basic_string@DU?$char_traits@D@std@@V?$allocator@D@2@@std@@QAEAAV12@ID@Z ; std::basic_string<char,std::char_traits<char>,std::allocator<char> >::append
PUBLIC	??0_Iterator_base_secure@std@@QAE@XZ		; std::_Iterator_base_secure::_Iterator_base_secure
PUBLIC	??0?$_Ranit_base@DHPBDABDV_Iterator_base_secure@std@@@std@@QAE@XZ ; std::_Ranit_base<char,int,char const *,char const &,std::_Iterator_base_secure>::_Ranit_base<char,int,char const *,char const &,std::_Iterator_base_secure>
PUBLIC	??0?$_String_const_iterator@DU?$char_traits@D@std@@V?$allocator@D@2@@std@@QAE@PBDPBV_Container_base_secure@1@@Z ; std::_String_const_iterator<char,std::char_traits<char>,std::allocator<char> >::_String_const_iterator<char,std::char_traits<char>,std::allocator<char> >
PUBLIC	??0?$_String_iterator@DU?$char_traits@D@std@@V?$allocator@D@2@@std@@QAE@PADPBV_Container_base_secure@1@@Z ; std::_String_iterator<char,std::char_traits<char>,std::allocator<char> >::_String_iterator<char,std::char_traits<char>,std::allocator<char> >
PUBLIC	?begin@?$basic_string@DU?$char_traits@D@std@@V?$allocator@D@2@@std@@QAE?AV?$_String_iterator@DU?$char_traits@D@std@@V?$allocator@D@2@@2@XZ ; std::basic_string<char,std::char_traits<char>,std::allocator<char> >::begin
PUBLIC	?_Has_container@_Iterator_base_secure@std@@QBE_NXZ ; std::_Iterator_base_secure::_Has_container
PUBLIC	??D?$_String_const_iterator@DU?$char_traits@D@std@@V?$allocator@D@2@@std@@QBEABDXZ ; std::_String_const_iterator<char,std::char_traits<char>,std::allocator<char> >::operator*
PUBLIC	??D?$_String_iterator@DU?$char_traits@D@std@@V?$allocator@D@2@@std@@QBEAADXZ ; std::_String_iterator<char,std::char_traits<char>,std::allocator<char> >::operator*
PUBLIC	?unshift@?$codecvt@DDH@std@@QBEHAAHPAD1AAPAD@Z	; std::codecvt<char,char,int>::unshift
PUBLIC	?_Endwrite@?$basic_filebuf@DU?$char_traits@D@std@@@std@@IAE_NXZ ; std::basic_filebuf<char,std::char_traits<char> >::_Endwrite
PUBLIC	??0?$fpos@H@std@@QAE@J@Z			; std::fpos<int>::fpos<int>
PUBLIC	??0?$fpos@H@std@@QAE@H_J@Z			; std::fpos<int>::fpos<int>
PUBLIC	?state@?$fpos@H@std@@QBEHXZ			; std::fpos<int>::state
PUBLIC	?seekpos@?$fpos@H@std@@QBE_JXZ			; std::fpos<int>::seekpos
PUBLIC	??B?$fpos@H@std@@QBEJXZ				; std::fpos<int>::operator long
PUBLIC	?seekpos@?$basic_filebuf@DU?$char_traits@D@std@@@std@@MAE?AV?$fpos@H@2@V32@H@Z ; std::basic_filebuf<char,std::char_traits<char> >::seekpos
PUBLIC	?_Init@?$basic_streambuf@DU?$char_traits@D@std@@@std@@IAEXPAPAD0PAH001@Z ; std::basic_streambuf<char,std::char_traits<char> >::_Init
PUBLIC	?_Init@?$basic_filebuf@DU?$char_traits@D@std@@@std@@IAEXPAU_iobuf@@W4_Initfl@12@@Z ; std::basic_filebuf<char,std::char_traits<char> >::_Init
PUBLIC	?setbuf@?$basic_filebuf@DU?$char_traits@D@std@@@std@@MAEPAV?$basic_streambuf@DU?$char_traits@D@std@@@2@PADH@Z ; std::basic_filebuf<char,std::char_traits<char> >::setbuf
PUBLIC	?sync@?$basic_filebuf@DU?$char_traits@D@std@@@std@@MAEHXZ ; std::basic_filebuf<char,std::char_traits<char> >::sync
PUBLIC	?always_noconv@codecvt_base@std@@QBE_NXZ	; std::codecvt_base::always_noconv
PUBLIC	?setg@?$basic_streambuf@DU?$char_traits@D@std@@@std@@IAEXPAD00@Z ; std::basic_streambuf<char,std::char_traits<char> >::setg
PUBLIC	?setp@?$basic_streambuf@DU?$char_traits@D@std@@@std@@IAEXPAD0@Z ; std::basic_streambuf<char,std::char_traits<char> >::setp
PUBLIC	?_Init@?$basic_streambuf@DU?$char_traits@D@std@@@std@@IAEXXZ ; std::basic_streambuf<char,std::char_traits<char> >::_Init
PUBLIC	?_Initcvt@?$basic_filebuf@DU?$char_traits@D@std@@@std@@IAEXPAV?$codecvt@DDH@2@@Z ; std::basic_filebuf<char,std::char_traits<char> >::_Initcvt
PUBLIC	??Bid@locale@std@@QAEIXZ			; std::locale::id::operator unsigned int
PUBLIC	?_Incref@facet@locale@std@@QAEXXZ		; std::locale::facet::_Incref
PUBLIC	?_Register@facet@locale@std@@QAEXXZ		; std::locale::facet::_Register
PUBLIC	?_Getfacet@locale@std@@QBEPBVfacet@12@I@Z	; std::locale::_Getfacet
PUBLIC	??0_Locinfo@std@@QAE@ABV?$basic_string@DU?$char_traits@D@std@@V?$allocator@D@2@@1@@Z ; std::_Locinfo::_Locinfo
PUBLIC	??1_Locinfo@std@@QAE@XZ				; std::_Locinfo::~_Locinfo
PUBLIC	?name@locale@std@@QBE?AV?$basic_string@DU?$char_traits@D@std@@V?$allocator@D@2@@2@XZ ; std::locale::name
PUBLIC	??0facet@locale@std@@IAE@I@Z			; std::locale::facet::facet
PUBLIC	??0codecvt_base@std@@QAE@I@Z			; std::codecvt_base::codecvt_base
PUBLIC	?_Init@?$codecvt@DDH@std@@IAEXABV_Locinfo@2@@Z	; std::codecvt<char,char,int>::_Init
PUBLIC	?do_in@?$codecvt@DDH@std@@MBEHAAHPBD1AAPBDPAD3AAPAD@Z ; std::codecvt<char,char,int>::do_in
PUBLIC	?do_out@?$codecvt@DDH@std@@MBEHAAHPBD1AAPBDPAD3AAPAD@Z ; std::codecvt<char,char,int>::do_out
PUBLIC	?do_unshift@?$codecvt@DDH@std@@MBEHAAHPAD1AAPAD@Z ; std::codecvt<char,char,int>::do_unshift
PUBLIC	?do_length@?$codecvt@DDH@std@@MBEHABHPBD1I@Z	; std::codecvt<char,char,int>::do_length
PUBLIC	??_Gfacet@locale@std@@UAEPAXI@Z			; std::locale::facet::`scalar deleting destructor'
PUBLIC	??1facet@locale@std@@UAE@XZ			; std::locale::facet::~facet
PUBLIC	?do_always_noconv@codecvt_base@std@@MBE_NXZ	; std::codecvt_base::do_always_noconv
PUBLIC	?do_max_length@codecvt_base@std@@MBEHXZ		; std::codecvt_base::do_max_length
PUBLIC	?do_encoding@codecvt_base@std@@MBEHXZ		; std::codecvt_base::do_encoding
PUBLIC	??_Gcodecvt_base@std@@UAEPAXI@Z			; std::codecvt_base::`scalar deleting destructor'
PUBLIC	??1codecvt_base@std@@UAE@XZ			; std::codecvt_base::~codecvt_base
PUBLIC	??1?$codecvt@DDH@std@@MAE@XZ			; std::codecvt<char,char,int>::~codecvt<char,char,int>
PUBLIC	??_G?$codecvt@DDH@std@@MAEPAXI@Z		; std::codecvt<char,char,int>::`scalar deleting destructor'
PUBLIC	??0?$codecvt@DDH@std@@QAE@ABV_Locinfo@1@I@Z	; std::codecvt<char,char,int>::codecvt<char,char,int>
PUBLIC	?_Getcat@?$codecvt@DDH@std@@SAIPAPBVfacet@locale@2@PBV42@@Z ; std::codecvt<char,char,int>::_Getcat
PUBLIC	??$use_facet@V?$codecvt@DDH@std@@@std@@YAABV?$codecvt@DDH@0@ABVlocale@0@@Z ; std::use_facet<std::codecvt<char,char,int> >
PUBLIC	?imbue@?$basic_filebuf@DU?$char_traits@D@std@@@std@@MAEXABVlocale@2@@Z ; std::basic_filebuf<char,std::char_traits<char> >::imbue
PUBLIC	??_G?$basic_filebuf@DU?$char_traits@D@std@@@std@@UAEPAXI@Z ; std::basic_filebuf<char,std::char_traits<char> >::`scalar deleting destructor'
PUBLIC	??1?$basic_filebuf@DU?$char_traits@D@std@@@std@@UAE@XZ ; std::basic_filebuf<char,std::char_traits<char> >::~basic_filebuf<char,std::char_traits<char> >
PUBLIC	??_G?$basic_ofstream@DU?$char_traits@D@std@@@std@@UAEPAXI@Z ; std::basic_ofstream<char,std::char_traits<char> >::`scalar deleting destructor'
PUBLIC	??1?$basic_ofstream@DU?$char_traits@D@std@@@std@@UAE@XZ ; std::basic_ofstream<char,std::char_traits<char> >::~basic_ofstream<char,std::char_traits<char> >
PUBLIC	??_D?$basic_ofstream@DU?$char_traits@D@std@@@std@@QAEXXZ ; std::basic_ofstream<char,std::char_traits<char> >::`vbase destructor'
PUBLIC	?eq_int_type@?$char_traits@D@std@@SA_NABH0@Z	; std::char_traits<char>::eq_int_type
PUBLIC	?eof@?$char_traits@D@std@@SAHXZ			; std::char_traits<char>::eof
PUBLIC	??A?$basic_string@DU?$char_traits@D@std@@V?$allocator@D@2@@std@@QBEABDI@Z ; std::basic_string<char,std::char_traits<char>,std::allocator<char> >::operator[]
PUBLIC	?width@ios_base@std@@QBEHXZ			; std::ios_base::width
PUBLIC	?width@ios_base@std@@QAEHH@Z			; std::ios_base::width
PUBLIC	?fill@?$basic_ios@DU?$char_traits@D@std@@@std@@QBEDXZ ; std::basic_ios<char,std::char_traits<char> >::fill
PUBLIC	?to_int_type@?$char_traits@D@std@@SAHABD@Z	; std::char_traits<char>::to_int_type
PUBLIC	?_Pninc@?$basic_streambuf@DU?$char_traits@D@std@@@std@@IAEPADXZ ; std::basic_streambuf<char,std::char_traits<char> >::_Pninc
PUBLIC	?_Pnavail@?$basic_streambuf@DU?$char_traits@D@std@@@std@@IBEHXZ ; std::basic_streambuf<char,std::char_traits<char> >::_Pnavail
PUBLIC	?sputc@?$basic_streambuf@DU?$char_traits@D@std@@@std@@QAEHD@Z ; std::basic_streambuf<char,std::char_traits<char> >::sputc
PUBLIC	?good@ios_base@std@@QBE_NXZ			; std::ios_base::good
PUBLIC	?tie@?$basic_ios@DU?$char_traits@D@std@@@std@@QBEPAV?$basic_ostream@DU?$char_traits@D@std@@@2@XZ ; std::basic_ios<char,std::char_traits<char> >::tie
PUBLIC	?_Lock@?$basic_streambuf@DU?$char_traits@D@std@@@std@@QAEXXZ ; std::basic_streambuf<char,std::char_traits<char> >::_Lock
PUBLIC	??0_Sentry_base@?$basic_ostream@DU?$char_traits@D@std@@@std@@QAE@AAV12@@Z ; std::basic_ostream<char,std::char_traits<char> >::_Sentry_base::_Sentry_base
PUBLIC	??0sentry@?$basic_ostream@DU?$char_traits@D@std@@@std@@QAE@AAV12@@Z ; std::basic_ostream<char,std::char_traits<char> >::sentry::sentry
PUBLIC	?flags@ios_base@std@@QBEHXZ			; std::ios_base::flags
PUBLIC	?fail@ios_base@std@@QBE_NXZ			; std::ios_base::fail
PUBLIC	?rdstate@ios_base@std@@QBEHXZ			; std::ios_base::rdstate
PUBLIC	??0runtime_error@std@@QAE@ABV?$basic_string@DU?$char_traits@D@std@@V?$allocator@D@2@@1@@Z ; std::runtime_error::runtime_error
PUBLIC	??0failure@ios_base@std@@QAE@ABV?$basic_string@DU?$char_traits@D@std@@V?$allocator@D@2@@2@@Z ; std::ios_base::failure::failure
PUBLIC	??0runtime_error@std@@QAE@ABV01@@Z		; std::runtime_error::runtime_error
PUBLIC	?what@runtime_error@std@@UBEPBDXZ		; std::runtime_error::what
PUBLIC	??_Gruntime_error@std@@UAEPAXI@Z		; std::runtime_error::`scalar deleting destructor'
PUBLIC	??1runtime_error@std@@UAE@XZ			; std::runtime_error::~runtime_error
PUBLIC	??1failure@ios_base@std@@UAE@XZ			; std::ios_base::failure::~failure
PUBLIC	??_Gfailure@ios_base@std@@UAEPAXI@Z		; std::ios_base::failure::`scalar deleting destructor'
PUBLIC	??0failure@ios_base@std@@QAE@ABV012@@Z		; std::ios_base::failure::failure
PUBLIC	?clear@ios_base@std@@QAEXH_N@Z			; std::ios_base::clear
PUBLIC	?clear@?$basic_ios@DU?$char_traits@D@std@@@std@@QAEXH_N@Z ; std::basic_ios<char,std::char_traits<char> >::clear
PUBLIC	?setstate@?$basic_ios@DU?$char_traits@D@std@@@std@@QAEXH_N@Z ; std::basic_ios<char,std::char_traits<char> >::setstate
PUBLIC	?pubsync@?$basic_streambuf@DU?$char_traits@D@std@@@std@@QAEHXZ ; std::basic_streambuf<char,std::char_traits<char> >::pubsync
PUBLIC	?flush@?$basic_ostream@DU?$char_traits@D@std@@@std@@QAEAAV12@XZ ; std::basic_ostream<char,std::char_traits<char> >::flush
PUBLIC	?_Osfx@?$basic_ostream@DU?$char_traits@D@std@@@std@@QAEXXZ ; std::basic_ostream<char,std::char_traits<char> >::_Osfx
PUBLIC	?rdbuf@?$basic_ios@DU?$char_traits@D@std@@@std@@QBEPAV?$basic_streambuf@DU?$char_traits@D@std@@@2@XZ ; std::basic_ios<char,std::char_traits<char> >::rdbuf
PUBLIC	?_Unlock@?$basic_streambuf@DU?$char_traits@D@std@@@std@@QAEXXZ ; std::basic_streambuf<char,std::char_traits<char> >::_Unlock
PUBLIC	??1_Sentry_base@?$basic_ostream@DU?$char_traits@D@std@@@std@@QAE@XZ ; std::basic_ostream<char,std::char_traits<char> >::_Sentry_base::~_Sentry_base
PUBLIC	??1sentry@?$basic_ostream@DU?$char_traits@D@std@@@std@@QAE@XZ ; std::basic_ostream<char,std::char_traits<char> >::sentry::~sentry
PUBLIC	??Bsentry@?$basic_ostream@DU?$char_traits@D@std@@@std@@QBE_NXZ ; std::basic_ostream<char,std::char_traits<char> >::sentry::operator bool
PUBLIC	??$?6DU?$char_traits@D@std@@V?$allocator@D@1@@std@@YAAAV?$basic_ostream@DU?$char_traits@D@std@@@0@AAV10@ABV?$basic_string@DU?$char_traits@D@std@@V?$allocator@D@2@@0@@Z ; std::operator<<<char,std::char_traits<char>,std::allocator<char> >
PUBLIC	??0id@locale@std@@QAE@I@Z			; std::locale::id::id
PUBLIC	??_R0?AVruntime_error@std@@@8			; std::runtime_error `RTTI Type Descriptor'
PUBLIC	__CT??_R0?AVruntime_error@std@@@8??0runtime_error@std@@QAE@ABV01@@Z40
PUBLIC	??_C@_05LAPONLG@false?$AA@			; `string'
PUBLIC	??_C@_04LOAJBDKD@true?$AA@			; `string'
PUBLIC	??_C@_0BF@PHHKMMFD@ios_base?3?3badbit?5set?$AA@	; `string'
PUBLIC	??_C@_0BG@FMKFHCIL@ios_base?3?3failbit?5set?$AA@ ; `string'
PUBLIC	??_C@_0BF@OOHOMBOF@ios_base?3?3eofbit?5set?$AA@	; `string'
PUBLIC	??_R0?AVfailure@ios_base@std@@@8		; std::ios_base::failure `RTTI Type Descriptor'
PUBLIC	__CT??_R0?AVfailure@ios_base@std@@@8??0failure@ios_base@std@@QAE@ABV012@@Z40
PUBLIC	__CTA3?AVfailure@ios_base@std@@
PUBLIC	__TI3?AVfailure@ios_base@std@@
PUBLIC	??_C@_0BC@NNLBOHAB@?4?1data?1server?4ini?$AA@	; `string'
PUBLIC	??_C@_0N@GGBPOCJD@?4?1server?4ini?$AA@		; `string'
PUBLIC	??_C@_0L@CBNBBGDB@server?4ini?$AA@		; `string'
PUBLIC	??_C@_0P@ELFBPMOA@svrcfg_cnc?4ini?$AA@		; `string'
PUBLIC	??_C@_06LLCHJONG@Config?$AA@			; `string'
PUBLIC	??_C@_06LGMEBDBC@Server?$AA@			; `string'
PUBLIC	??_C@_04MLLLIHIP@null?$AA@			; `string'
PUBLIC	??_C@_09NBJCKKJL@MapName00?$AA@			; `string'
PUBLIC	??_C@_08EEOHOBEO@Settings?$AA@			; `string'
PUBLIC	??_C@_07ECEMPDJM@General?$AA@			; `string'
PUBLIC	??_C@_0O@KCPCDLGO@renlog_?$CFs?4txt?$AA@	; `string'
PUBLIC	??_C@_04CFKLBGE@0?5?$CFs?$AA@			; `string'
PUBLIC	??_C@_0BE@EFPMAOKO@?$FL?$CF02d?3?$CF02d?3?$CF02d?$FN?5?$CFs?$AA@ ; `string'
PUBLIC	??_C@_09CJNFFEML@Remote?5C4?$AA@		; `string'
PUBLIC	??_C@_0N@LPHHBPGP@Proximity?5C4?$AA@		; `string'
PUBLIC	??_C@_08EOMCENKK@Timed?5C4?$AA@			; `string'
PUBLIC	??_C@_01GBGANLPD@0?$AA@				; `string'
PUBLIC	??_C@_0BC@ICKKNJCI@Translated_Preset?$AA@	; `string'
PUBLIC	??_C@_09MJONCACI@No?5String?$AA@		; `string'
PUBLIC	??_C@_06KEPEGCIE@?$CFls?5?$CFs?$AA@		; `string'
PUBLIC	??_C@_09EJANBKGE@no?5string?$AA@		; `string'
PUBLIC	??_C@_05GFOLEBJA@?$CFs?1?$CFs?$AA@		; `string'
PUBLIC	??_C@_0BB@NHJNEILC@Invisible_Object?$AA@	; `string'
PUBLIC	??_C@_0O@IPIPENLA@ag_pucreation?$AA@		; `string'
PUBLIC	??_C@_0N@BDGOMBAD@ag_smwoodexp?$AA@		; `string'
PUBLIC	??_C@_0N@EOCMKBEL@ag_bgwoodexp?$AA@		; `string'
PUBLIC	??_C@_0L@GAAICAAM@ag_brlexp1?$AA@		; `string'
PUBLIC	??_C@_0L@INKEJDPI@ag_flame01?$AA@		; `string'
PUBLIC	??_C@_0N@BDLGCGMM@e_dsp_tibgas?$AA@		; `string'
PUBLIC	??_C@_0CH@DEDNKPN@MDB_SSGM_Destroy_When_Object_Des@ ; `string'
PUBLIC	??_C@_08EDNAOKPO@_GAMELOG?$AA@			; `string'
PUBLIC	??_C@_09GLAHALIH@?$CFs_?$CFs?4txt?$AA@		; `string'
PUBLIC	??_C@_03OFAPEBGM@?$CFs?6?$AA@			; `string'
PUBLIC	??_C@_0BH@GDMIOCJG@?$FL?$CF02d?3?$CF02d?3?$CF02d?$FN?5?$CFs?5?$CFs?$AA@ ; `string'
PUBLIC	??_C@_0O@KPJBJEBP@CnC_Nod_Buggy?$AA@		; `string'
PUBLIC	??_C@_08HEKCLJAN@muzzlea0?$AA@			; `string'
PUBLIC	??_C@_0M@OFJMCHAB@CnC_Nod_APC?$AA@		; `string'
PUBLIC	??_C@_06HIGCFHGK@barrel?$AA@			; `string'
PUBLIC	??_C@_0BJ@JKMFPNNA@CnC_Nod_Mobile_Artillery?$AA@ ; `string'
PUBLIC	??_C@_0BD@KFFOCKEE@CnC_Nod_Light_Tank?$AA@	; `string'
PUBLIC	??_C@_0BD@FLILFJBA@CnC_Nod_Flame_Tank?$AA@	; `string'
PUBLIC	??_C@_0P@OJMOCDBN@CnC_Nod_Apache?$AA@		; `string'
PUBLIC	??_C@_08HGOEAHFE@muzzleb0?$AA@			; `string'
PUBLIC	??_C@_0BB@GDPFEJDE@CnC_GDI_Humm?9vee?$AA@	; `string'
PUBLIC	??_C@_0M@IMFLEHKE@CnC_GDI_APC?$AA@		; `string'
PUBLIC	??_C@_0N@CEAEFAJG@CnC_GDI_MRLS?$AA@		; `string'
PUBLIC	??_C@_0BE@MFMCCHHH@CnC_GDI_Medium_Tank?$AA@	; `string'
PUBLIC	??_C@_0BF@FDHNFNOP@CnC_GDI_Mammoth_Tank?$AA@	; `string'
PUBLIC	??_C@_0N@CAJHPJGE@CnC_GDI_Orca?$AA@		; `string'
PUBLIC	??_C@_05MIGDJIHC@recon?$AA@			; `string'
PUBLIC	??_C@_05MPMPJNEE@Recon?$AA@			; `string'
PUBLIC	??_C@_09MJFDFMKK@Mobileart?$AA@			; `string'
PUBLIC	??_C@_09FMEOCAPC@towhumvee?$AA@			; `string'
PUBLIC	??_C@_08GNLJIIEM@muzzlea1?$AA@			; `string'
PUBLIC	??_C@_08GPPPDGBF@muzzleb1?$AA@			; `string'
PUBLIC	??_C@_0N@KDFAGGMJ@gamelog2?4txt?$AA@		; `string'
PUBLIC	??_C@_0M@BPABCLGK@gamelog?4txt?$AA@		; `string'
PUBLIC	??_C@_0BC@MALIEGMD@?$FL?$CF02d?3?$CF02d?3?$CF02d?$FN?5?$AA@ ; `string'
PUBLIC	??_C@_08EPJLHIJG@bad?5cast?$AA@			; `string'
PUBLIC	??_R0?AVbad_cast@std@@@8			; std::bad_cast `RTTI Type Descriptor'
PUBLIC	__CT??_R0?AVbad_cast@std@@@8??0bad_cast@std@@QAE@ABV01@@Z12
PUBLIC	__CTA2?AVbad_cast@std@@
PUBLIC	__TI2?AVbad_cast@std@@
PUBLIC	?_Stz@?$fpos@H@std@@0HB				; std::fpos<int>::_Stz
PUBLIC	??_C@_02EAOCLKAK@ld?$AA@			; `string'
PUBLIC	??_C@_02BDDLJJBK@lu?$AA@			; `string'
PUBLIC	??_C@_02HIKPPMOK@Ld?$AA@			; `string'
PUBLIC	??_C@_02CLHGNPPK@Lu?$AA@			; `string'
PUBLIC	??_C@_02BBAHNLBA@?$CFp?$AA@			; `string'
PUBLIC	??_C@_01DDCIFGEA@E?$AA@				; `string'
PUBLIC	??_C@_01KGKMHCOC@e?$AA@				; `string'
PUBLIC	?_Psave@?$_Facetptr@V?$codecvt@DDH@std@@@std@@2PBVfacet@locale@2@B ; std::_Facetptr<std::codecvt<char,char,int> >::_Psave
PUBLIC	?_Psave@?$_Facetptr@V?$numpunct@D@std@@@std@@2PBVfacet@locale@2@B ; std::_Facetptr<std::numpunct<char> >::_Psave
PUBLIC	??_7ios_base@std@@6B@				; std::ios_base::`vftable'
PUBLIC	??_7?$basic_ios@DU?$char_traits@D@std@@@std@@6B@ ; std::basic_ios<char,std::char_traits<char> >::`vftable'
PUBLIC	??_7?$basic_streambuf@DU?$char_traits@D@std@@@std@@6B@ ; std::basic_streambuf<char,std::char_traits<char> >::`vftable'
PUBLIC	??_7?$basic_istream@DU?$char_traits@D@std@@@std@@6B@ ; std::basic_istream<char,std::char_traits<char> >::`vftable'
PUBLIC	??_8?$basic_istream@DU?$char_traits@D@std@@@std@@7B@ ; std::basic_istream<char,std::char_traits<char> >::`vbtable'
PUBLIC	??_7?$basic_ostream@DU?$char_traits@D@std@@@std@@6B@ ; std::basic_ostream<char,std::char_traits<char> >::`vftable'
PUBLIC	??_8?$basic_ostream@DU?$char_traits@D@std@@@std@@7B@ ; std::basic_ostream<char,std::char_traits<char> >::`vbtable'
PUBLIC	??_7?$basic_iostream@DU?$char_traits@D@std@@@std@@6B@ ; std::basic_iostream<char,std::char_traits<char> >::`vftable'
PUBLIC	??_8?$basic_iostream@DU?$char_traits@D@std@@@std@@7B?$basic_istream@DU?$char_traits@D@std@@@1@@ ; std::basic_iostream<char,std::char_traits<char> >::`vbtable'
PUBLIC	??_8?$basic_iostream@DU?$char_traits@D@std@@@std@@7B?$basic_ostream@DU?$char_traits@D@std@@@1@@ ; std::basic_iostream<char,std::char_traits<char> >::`vbtable'
PUBLIC	??_7?$basic_stringbuf@DU?$char_traits@D@std@@V?$allocator@D@2@@std@@6B@ ; std::basic_stringbuf<char,std::char_traits<char>,std::allocator<char> >::`vftable'
PUBLIC	??_7?$basic_stringstream@DU?$char_traits@D@std@@V?$allocator@D@2@@std@@6B@ ; std::basic_stringstream<char,std::char_traits<char>,std::allocator<char> >::`vftable'
PUBLIC	??_8?$basic_stringstream@DU?$char_traits@D@std@@V?$allocator@D@2@@std@@7B?$basic_istream@DU?$char_traits@D@std@@@1@@ ; std::basic_stringstream<char,std::char_traits<char>,std::allocator<char> >::`vbtable'
PUBLIC	??_8?$basic_stringstream@DU?$char_traits@D@std@@V?$allocator@D@2@@std@@7B?$basic_ostream@DU?$char_traits@D@std@@@1@@ ; std::basic_stringstream<char,std::char_traits<char>,std::allocator<char> >::`vbtable'
PUBLIC	??_7?$basic_filebuf@DU?$char_traits@D@std@@@std@@6B@ ; std::basic_filebuf<char,std::char_traits<char> >::`vftable'
PUBLIC	??_7?$basic_ofstream@DU?$char_traits@D@std@@@std@@6B@ ; std::basic_ofstream<char,std::char_traits<char> >::`vftable'
PUBLIC	??_8?$basic_ofstream@DU?$char_traits@D@std@@@std@@7B@ ; std::basic_ofstream<char,std::char_traits<char> >::`vbtable'
PUBLIC	??_7runtime_error@std@@6B@			; std::runtime_error::`vftable'
PUBLIC	??_7facet@locale@std@@6B@			; std::locale::facet::`vftable'
PUBLIC	??_7codecvt_base@std@@6B@			; std::codecvt_base::`vftable'
PUBLIC	??_7ctype_base@std@@6B@				; std::ctype_base::`vftable'
PUBLIC	??_7?$ctype@D@std@@6B@				; std::ctype<char>::`vftable'
PUBLIC	??_7failure@ios_base@std@@6B@			; std::ios_base::failure::`vftable'
PUBLIC	??_7?$num_put@DV?$ostreambuf_iterator@DU?$char_traits@D@std@@@std@@@std@@6B@ ; std::num_put<char,std::ostreambuf_iterator<char,std::char_traits<char> > >::`vftable'
PUBLIC	??_7?$codecvt@DDH@std@@6B@			; std::codecvt<char,char,int>::`vftable'
PUBLIC	??_7?$numpunct@D@std@@6B@			; std::numpunct<char>::`vftable'
EXTRN	_tolower:PROC
EXTRN	_vsnprintf:PROC
EXTRN	_remove:PROC
EXTRN	__imp__CopyFileA@12:PROC
EXTRN	_strcspn:PROC
EXTRN	_sprintf_s:PROC
EXTRN	_memchr:PROC
EXTRN	__Getcvt:PROC
EXTRN	_localeconv:PROC
EXTRN	??_E?$numpunct@D@std@@MAEPAXI@Z:PROC		; std::numpunct<char>::`vector deleting destructor'
EXTRN	??_E?$num_put@DV?$ostreambuf_iterator@DU?$char_traits@D@std@@@std@@@std@@MAEPAXI@Z:PROC ; std::num_put<char,std::ostreambuf_iterator<char,std::char_traits<char> > >::`vector deleting destructor'
EXTRN	??_E?$basic_istream@DU?$char_traits@D@std@@@std@@UAEPAXI@Z:PROC ; std::basic_istream<char,std::char_traits<char> >::`vector deleting destructor'
EXTRN	??_E?$basic_iostream@DU?$char_traits@D@std@@@std@@UAEPAXI@Z:PROC ; std::basic_iostream<char,std::char_traits<char> >::`vector deleting destructor'
EXTRN	??_E?$basic_stringbuf@DU?$char_traits@D@std@@V?$allocator@D@2@@std@@UAEPAXI@Z:PROC ; std::basic_stringbuf<char,std::char_traits<char>,std::allocator<char> >::`vector deleting destructor'
EXTRN	??_E?$basic_stringstream@DU?$char_traits@D@std@@V?$allocator@D@2@@std@@UAEPAXI@Z:PROC ; std::basic_stringstream<char,std::char_traits<char>,std::allocator<char> >::`vector deleting destructor'
EXTRN	_printf:PROC
EXTRN	_strstr:PROC
EXTRN	?_Addstd@ios_base@std@@SAXPAV12@@Z:PROC		; std::ios_base::_Addstd
EXTRN	?id@?$ctype@D@std@@2V0locale@2@A:DWORD		; std::ctype<char>::id
EXTRN	__Getctype:PROC
EXTRN	__Tolower:PROC
EXTRN	__Toupper:PROC
EXTRN	??_Ectype_base@std@@UAEPAXI@Z:PROC		; std::ctype_base::`vector deleting destructor'
EXTRN	_free:PROC
EXTRN	??_E?$ctype@D@std@@MAEPAXI@Z:PROC		; std::ctype<char>::`vector deleting destructor'
EXTRN	??0_Mutex@std@@QAE@XZ:PROC			; std::_Mutex::_Mutex
EXTRN	?_Init@locale@std@@CAPAV_Locimp@12@XZ:PROC	; std::locale::_Init
EXTRN	?_Fiopen@std@@YAPAU_iobuf@@PBDHH@Z:PROC		; std::_Fiopen
EXTRN	?_Ios_base_dtor@ios_base@std@@CAXPAV12@@Z:PROC	; std::ios_base::_Ios_base_dtor
EXTRN	??_Eios_base@std@@UAEPAXI@Z:PROC		; std::ios_base::`vector deleting destructor'
EXTRN	??_E?$basic_ios@DU?$char_traits@D@std@@@std@@UAEPAXI@Z:PROC ; std::basic_ios<char,std::char_traits<char> >::`vector deleting destructor'
EXTRN	??_E?$basic_ostream@DU?$char_traits@D@std@@@std@@UAEPAXI@Z:PROC ; std::basic_ostream<char,std::char_traits<char> >::`vector deleting destructor'
EXTRN	??1_Mutex@std@@QAE@XZ:PROC			; std::_Mutex::~_Mutex
EXTRN	??_E?$basic_streambuf@DU?$char_traits@D@std@@@std@@UAEPAXI@Z:PROC ; std::basic_streambuf<char,std::char_traits<char> >::`vector deleting destructor'
EXTRN	_fclose:PROC
EXTRN	_fputc:PROC
EXTRN	_ungetc:PROC
EXTRN	_fgetc:PROC
EXTRN	_fgetpos:PROC
EXTRN	_fsetpos:PROC
EXTRN	_fseek:PROC
EXTRN	?_BADOFF@std@@3JB:DWORD				; std::_BADOFF
EXTRN	_fwrite:PROC
EXTRN	_setvbuf:PROC
EXTRN	_fflush:PROC
EXTRN	??0bad_cast@std@@QAE@PBD@Z:PROC			; std::bad_cast::bad_cast
EXTRN	?_Id_cnt@id@locale@std@@0HA:DWORD		; std::locale::id::_Id_cnt
EXTRN	?facet_Register@facet@locale@std@@CAXPAV123@@Z:PROC ; std::locale::facet::facet_Register
EXTRN	?_Getgloballocale@locale@std@@CAPAV_Locimp@12@XZ:PROC ; std::locale::_Getgloballocale
EXTRN	??0_Lockit@std@@QAE@H@Z:PROC			; std::_Lockit::_Lockit
EXTRN	?_Locinfo_ctor@_Locinfo@std@@SAXPAV12@ABV?$basic_string@DU?$char_traits@D@std@@V?$allocator@D@2@@2@@Z:PROC ; std::_Locinfo::_Locinfo_ctor
EXTRN	??1_Lockit@std@@QAE@XZ:PROC			; std::_Lockit::~_Lockit
EXTRN	?_Locinfo_dtor@_Locinfo@std@@SAXPAV12@@Z:PROC	; std::_Locinfo::_Locinfo_dtor
EXTRN	??_Efacet@locale@std@@UAEPAXI@Z:PROC		; std::locale::facet::`vector deleting destructor'
EXTRN	??_Ecodecvt_base@std@@UAEPAXI@Z:PROC		; std::codecvt_base::`vector deleting destructor'
EXTRN	??_E?$codecvt@DDH@std@@MAEPAXI@Z:PROC		; std::codecvt<char,char,int>::`vector deleting destructor'
EXTRN	??1bad_cast@std@@UAE@XZ:PROC			; std::bad_cast::~bad_cast
EXTRN	??0bad_cast@std@@QAE@ABV01@@Z:PROC		; std::bad_cast::bad_cast
EXTRN	??_E?$basic_filebuf@DU?$char_traits@D@std@@@std@@UAEPAXI@Z:PROC ; std::basic_filebuf<char,std::char_traits<char> >::`vector deleting destructor'
EXTRN	??_E?$basic_ofstream@DU?$char_traits@D@std@@@std@@UAEPAXI@Z:PROC ; std::basic_ofstream<char,std::char_traits<char> >::`vector deleting destructor'
EXTRN	?_Lock@_Mutex@std@@QAEXXZ:PROC			; std::_Mutex::_Lock
EXTRN	?uncaught_exception@std@@YA_NXZ:PROC		; std::uncaught_exception
EXTRN	??_Eruntime_error@std@@UAEPAXI@Z:PROC		; std::runtime_error::`vector deleting destructor'
EXTRN	??_Efailure@ios_base@std@@UAEPAXI@Z:PROC	; std::ios_base::failure::`vector deleting destructor'
EXTRN	?_Unlock@_Mutex@std@@QAEXXZ:PROC		; std::_Mutex::_Unlock
;	COMDAT ?_Psave@?$_Facetptr@V?$codecvt@DDH@std@@@std@@2PBVfacet@locale@2@B
_BSS	SEGMENT
?_Psave@?$_Facetptr@V?$codecvt@DDH@std@@@std@@2PBVfacet@locale@2@B DD 01H DUP (?) ; std::_Facetptr<std::codecvt<char,char,int> >::_Psave
_BSS	ENDS
;	COMDAT ?_Psave@?$_Facetptr@V?$numpunct@D@std@@@std@@2PBVfacet@locale@2@B
_BSS	SEGMENT
?_Psave@?$_Facetptr@V?$numpunct@D@std@@@std@@2PBVfacet@locale@2@B DD 01H DUP (?) ; std::_Facetptr<std::numpunct<char> >::_Psave
;	COMDAT ??_7?$numpunct@D@std@@6B@
CONST	SEGMENT
??_7?$numpunct@D@std@@6B@ DD FLAT:??_R4?$numpunct@D@std@@6B@ ; std::numpunct<char>::`vftable'
	DD	FLAT:??_E?$numpunct@D@std@@MAEPAXI@Z
	DD	FLAT:?do_decimal_point@?$numpunct@D@std@@MBEDXZ
	DD	FLAT:?do_thousands_sep@?$numpunct@D@std@@MBEDXZ
	DD	FLAT:?do_grouping@?$numpunct@D@std@@MBE?AV?$basic_string@DU?$char_traits@D@std@@V?$allocator@D@2@@2@XZ
	DD	FLAT:?do_falsename@?$numpunct@D@std@@MBE?AV?$basic_string@DU?$char_traits@D@std@@V?$allocator@D@2@@2@XZ
	DD	FLAT:?do_truename@?$numpunct@D@std@@MBE?AV?$basic_string@DU?$char_traits@D@std@@V?$allocator@D@2@@2@XZ
CONST	ENDS
;	COMDAT ??_R4?$numpunct@D@std@@6B@
rdata$r	SEGMENT
??_R4?$numpunct@D@std@@6B@ DD 00H			; std::numpunct<char>::`RTTI Complete Object Locator'
	DD	00H
	DD	00H
	DD	FLAT:??_R0?AV?$numpunct@D@std@@@8
	DD	FLAT:??_R3?$numpunct@D@std@@8
rdata$r	ENDS
;	COMDAT ??_R3?$numpunct@D@std@@8
rdata$r	SEGMENT
??_R3?$numpunct@D@std@@8 DD 00H				; std::numpunct<char>::`RTTI Class Hierarchy Descriptor'
	DD	00H
	DD	02H
	DD	FLAT:??_R2?$numpunct@D@std@@8
rdata$r	ENDS
;	COMDAT ??_R2?$numpunct@D@std@@8
rdata$r	SEGMENT
??_R2?$numpunct@D@std@@8 DD FLAT:??_R1A@?0A@EA@?$numpunct@D@std@@8 ; std::numpunct<char>::`RTTI Base Class Array'
	DD	FLAT:??_R1A@?0A@EA@facet@locale@std@@8
rdata$r	ENDS
;	COMDAT ??_R1A@?0A@EA@?$numpunct@D@std@@8
rdata$r	SEGMENT
??_R1A@?0A@EA@?$numpunct@D@std@@8 DD FLAT:??_R0?AV?$numpunct@D@std@@@8 ; std::numpunct<char>::`RTTI Base Class Descriptor at (0,-1,0,64)'
	DD	01H
	DD	00H
	DD	0ffffffffH
	DD	00H
	DD	040H
	DD	FLAT:??_R3?$numpunct@D@std@@8
rdata$r	ENDS
;	COMDAT ??_R0?AV?$numpunct@D@std@@@8
_DATA	SEGMENT
??_R0?AV?$numpunct@D@std@@@8 DD FLAT:??_7type_info@@6B@	; std::numpunct<char> `RTTI Type Descriptor'
	DD	00H
	DB	'.?AV?$numpunct@D@std@@', 00H
_DATA	ENDS
;	COMDAT ??_7?$codecvt@DDH@std@@6B@
CONST	SEGMENT
??_7?$codecvt@DDH@std@@6B@ DD FLAT:??_R4?$codecvt@DDH@std@@6B@ ; std::codecvt<char,char,int>::`vftable'
	DD	FLAT:??_E?$codecvt@DDH@std@@MAEPAXI@Z
	DD	FLAT:?do_always_noconv@codecvt_base@std@@MBE_NXZ
	DD	FLAT:?do_max_length@codecvt_base@std@@MBEHXZ
	DD	FLAT:?do_encoding@codecvt_base@std@@MBEHXZ
	DD	FLAT:?do_in@?$codecvt@DDH@std@@MBEHAAHPBD1AAPBDPAD3AAPAD@Z
	DD	FLAT:?do_out@?$codecvt@DDH@std@@MBEHAAHPBD1AAPBDPAD3AAPAD@Z
	DD	FLAT:?do_unshift@?$codecvt@DDH@std@@MBEHAAHPAD1AAPAD@Z
	DD	FLAT:?do_length@?$codecvt@DDH@std@@MBEHABHPBD1I@Z
CONST	ENDS
;	COMDAT ??_R4?$codecvt@DDH@std@@6B@
rdata$r	SEGMENT
??_R4?$codecvt@DDH@std@@6B@ DD 00H			; std::codecvt<char,char,int>::`RTTI Complete Object Locator'
	DD	00H
	DD	00H
	DD	FLAT:??_R0?AV?$codecvt@DDH@std@@@8
	DD	FLAT:??_R3?$codecvt@DDH@std@@8
rdata$r	ENDS
;	COMDAT ??_R3?$codecvt@DDH@std@@8
rdata$r	SEGMENT
??_R3?$codecvt@DDH@std@@8 DD 00H			; std::codecvt<char,char,int>::`RTTI Class Hierarchy Descriptor'
	DD	00H
	DD	03H
	DD	FLAT:??_R2?$codecvt@DDH@std@@8
rdata$r	ENDS
;	COMDAT ??_R2?$codecvt@DDH@std@@8
rdata$r	SEGMENT
??_R2?$codecvt@DDH@std@@8 DD FLAT:??_R1A@?0A@EA@?$codecvt@DDH@std@@8 ; std::codecvt<char,char,int>::`RTTI Base Class Array'
	DD	FLAT:??_R1A@?0A@EA@codecvt_base@std@@8
	DD	FLAT:??_R1A@?0A@EA@facet@locale@std@@8
rdata$r	ENDS
;	COMDAT ??_R1A@?0A@EA@?$codecvt@DDH@std@@8
rdata$r	SEGMENT
??_R1A@?0A@EA@?$codecvt@DDH@std@@8 DD FLAT:??_R0?AV?$codecvt@DDH@std@@@8 ; std::codecvt<char,char,int>::`RTTI Base Class Descriptor at (0,-1,0,64)'
	DD	02H
	DD	00H
	DD	0ffffffffH
	DD	00H
	DD	040H
	DD	FLAT:??_R3?$codecvt@DDH@std@@8
rdata$r	ENDS
;	COMDAT ??_R0?AV?$codecvt@DDH@std@@@8
_DATA	SEGMENT
??_R0?AV?$codecvt@DDH@std@@@8 DD FLAT:??_7type_info@@6B@ ; std::codecvt<char,char,int> `RTTI Type Descriptor'
	DD	00H
	DB	'.?AV?$codecvt@DDH@std@@', 00H
_DATA	ENDS
;	COMDAT ??_7?$num_put@DV?$ostreambuf_iterator@DU?$char_traits@D@std@@@std@@@std@@6B@
CONST	SEGMENT
??_7?$num_put@DV?$ostreambuf_iterator@DU?$char_traits@D@std@@@std@@@std@@6B@ DD FLAT:??_R4?$num_put@DV?$ostreambuf_iterator@DU?$char_traits@D@std@@@std@@@std@@6B@ ; std::num_put<char,std::ostreambuf_iterator<char,std::char_traits<char> > >::`vftable'
	DD	FLAT:??_E?$num_put@DV?$ostreambuf_iterator@DU?$char_traits@D@std@@@std@@@std@@MAEPAXI@Z
	DD	FLAT:?do_put@?$num_put@DV?$ostreambuf_iterator@DU?$char_traits@D@std@@@std@@@std@@MBE?AV?$ostreambuf_iterator@DU?$char_traits@D@std@@@2@V32@AAVios_base@2@DPBX@Z
	DD	FLAT:?do_put@?$num_put@DV?$ostreambuf_iterator@DU?$char_traits@D@std@@@std@@@std@@MBE?AV?$ostreambuf_iterator@DU?$char_traits@D@std@@@2@V32@AAVios_base@2@DO@Z
	DD	FLAT:?do_put@?$num_put@DV?$ostreambuf_iterator@DU?$char_traits@D@std@@@std@@@std@@MBE?AV?$ostreambuf_iterator@DU?$char_traits@D@std@@@2@V32@AAVios_base@2@DN@Z
	DD	FLAT:?do_put@?$num_put@DV?$ostreambuf_iterator@DU?$char_traits@D@std@@@std@@@std@@MBE?AV?$ostreambuf_iterator@DU?$char_traits@D@std@@@2@V32@AAVios_base@2@D_K@Z
	DD	FLAT:?do_put@?$num_put@DV?$ostreambuf_iterator@DU?$char_traits@D@std@@@std@@@std@@MBE?AV?$ostreambuf_iterator@DU?$char_traits@D@std@@@2@V32@AAVios_base@2@D_J@Z
	DD	FLAT:?do_put@?$num_put@DV?$ostreambuf_iterator@DU?$char_traits@D@std@@@std@@@std@@MBE?AV?$ostreambuf_iterator@DU?$char_traits@D@std@@@2@V32@AAVios_base@2@DK@Z
	DD	FLAT:?do_put@?$num_put@DV?$ostreambuf_iterator@DU?$char_traits@D@std@@@std@@@std@@MBE?AV?$ostreambuf_iterator@DU?$char_traits@D@std@@@2@V32@AAVios_base@2@DJ@Z
	DD	FLAT:?do_put@?$num_put@DV?$ostreambuf_iterator@DU?$char_traits@D@std@@@std@@@std@@MBE?AV?$ostreambuf_iterator@DU?$char_traits@D@std@@@2@V32@AAVios_base@2@D_N@Z
CONST	ENDS
;	COMDAT ??_R4?$num_put@DV?$ostreambuf_iterator@DU?$char_traits@D@std@@@std@@@std@@6B@
rdata$r	SEGMENT
??_R4?$num_put@DV?$ostreambuf_iterator@DU?$char_traits@D@std@@@std@@@std@@6B@ DD 00H ; std::num_put<char,std::ostreambuf_iterator<char,std::char_traits<char> > >::`RTTI Complete Object Locator'
	DD	00H
	DD	00H
	DD	FLAT:??_R0?AV?$num_put@DV?$ostreambuf_iterator@DU?$char_traits@D@std@@@std@@@std@@@8
	DD	FLAT:??_R3?$num_put@DV?$ostreambuf_iterator@DU?$char_traits@D@std@@@std@@@std@@8
rdata$r	ENDS
;	COMDAT ??_R3?$num_put@DV?$ostreambuf_iterator@DU?$char_traits@D@std@@@std@@@std@@8
rdata$r	SEGMENT
??_R3?$num_put@DV?$ostreambuf_iterator@DU?$char_traits@D@std@@@std@@@std@@8 DD 00H ; std::num_put<char,std::ostreambuf_iterator<char,std::char_traits<char> > >::`RTTI Class Hierarchy Descriptor'
	DD	00H
	DD	02H
	DD	FLAT:??_R2?$num_put@DV?$ostreambuf_iterator@DU?$char_traits@D@std@@@std@@@std@@8
rdata$r	ENDS
;	COMDAT ??_R2?$num_put@DV?$ostreambuf_iterator@DU?$char_traits@D@std@@@std@@@std@@8
rdata$r	SEGMENT
??_R2?$num_put@DV?$ostreambuf_iterator@DU?$char_traits@D@std@@@std@@@std@@8 DD FLAT:??_R1A@?0A@EA@?$num_put@DV?$ostreambuf_iterator@DU?$char_traits@D@std@@@std@@@std@@8 ; std::num_put<char,std::ostreambuf_iterator<char,std::char_traits<char> > >::`RTTI Base Class Array'
	DD	FLAT:??_R1A@?0A@EA@facet@locale@std@@8
rdata$r	ENDS
;	COMDAT ??_R1A@?0A@EA@?$num_put@DV?$ostreambuf_iterator@DU?$char_traits@D@std@@@std@@@std@@8
rdata$r	SEGMENT
??_R1A@?0A@EA@?$num_put@DV?$ostreambuf_iterator@DU?$char_traits@D@std@@@std@@@std@@8 DD FLAT:??_R0?AV?$num_put@DV?$ostreambuf_iterator@DU?$char_traits@D@std@@@std@@@std@@@8 ; std::num_put<char,std::ostreambuf_iterator<char,std::char_traits<char> > >::`RTTI Base Class Descriptor at (0,-1,0,64)'
	DD	01H
	DD	00H
	DD	0ffffffffH
	DD	00H
	DD	040H
	DD	FLAT:??_R3?$num_put@DV?$ostreambuf_iterator@DU?$char_traits@D@std@@@std@@@std@@8
rdata$r	ENDS
;	COMDAT ??_R0?AV?$num_put@DV?$ostreambuf_iterator@DU?$char_traits@D@std@@@std@@@std@@@8
_DATA	SEGMENT
??_R0?AV?$num_put@DV?$ostreambuf_iterator@DU?$char_traits@D@std@@@std@@@std@@@8 DD FLAT:??_7type_info@@6B@ ; std::num_put<char,std::ostreambuf_iterator<char,std::char_traits<char> > > `RTTI Type Descriptor'
	DD	00H
	DB	'.?AV?$num_put@DV?$ostreambuf_iterator@DU?$char_traits@D@'
	DB	'std@@@std@@@std@@', 00H
_DATA	ENDS
;	COMDAT ??_7failure@ios_base@std@@6B@
CONST	SEGMENT
??_7failure@ios_base@std@@6B@ DD FLAT:??_R4failure@ios_base@std@@6B@ ; std::ios_base::failure::`vftable'
	DD	FLAT:??_Efailure@ios_base@std@@UAEPAXI@Z
	DD	FLAT:?what@runtime_error@std@@UBEPBDXZ
CONST	ENDS
;	COMDAT ??_R4failure@ios_base@std@@6B@
rdata$r	SEGMENT
??_R4failure@ios_base@std@@6B@ DD 00H			; std::ios_base::failure::`RTTI Complete Object Locator'
	DD	00H
	DD	00H
	DD	FLAT:??_R0?AVfailure@ios_base@std@@@8
	DD	FLAT:??_R3failure@ios_base@std@@8
rdata$r	ENDS
;	COMDAT ??_R3failure@ios_base@std@@8
rdata$r	SEGMENT
??_R3failure@ios_base@std@@8 DD 00H			; std::ios_base::failure::`RTTI Class Hierarchy Descriptor'
	DD	00H
	DD	03H
	DD	FLAT:??_R2failure@ios_base@std@@8
rdata$r	ENDS
;	COMDAT ??_R2failure@ios_base@std@@8
rdata$r	SEGMENT
??_R2failure@ios_base@std@@8 DD FLAT:??_R1A@?0A@EA@failure@ios_base@std@@8 ; std::ios_base::failure::`RTTI Base Class Array'
	DD	FLAT:??_R1A@?0A@EA@runtime_error@std@@8
	DD	FLAT:??_R1A@?0A@EA@exception@std@@8
rdata$r	ENDS
;	COMDAT ??_R1A@?0A@EA@failure@ios_base@std@@8
rdata$r	SEGMENT
??_R1A@?0A@EA@failure@ios_base@std@@8 DD FLAT:??_R0?AVfailure@ios_base@std@@@8 ; std::ios_base::failure::`RTTI Base Class Descriptor at (0,-1,0,64)'
	DD	02H
	DD	00H
	DD	0ffffffffH
	DD	00H
	DD	040H
	DD	FLAT:??_R3failure@ios_base@std@@8
rdata$r	ENDS
;	COMDAT ??_7?$ctype@D@std@@6B@
CONST	SEGMENT
??_7?$ctype@D@std@@6B@ DD FLAT:??_R4?$ctype@D@std@@6B@	; std::ctype<char>::`vftable'
	DD	FLAT:??_E?$ctype@D@std@@MAEPAXI@Z
	DD	FLAT:?do_tolower@?$ctype@D@std@@MBEPBDPADPBD@Z
	DD	FLAT:?do_tolower@?$ctype@D@std@@MBEDD@Z
	DD	FLAT:?do_toupper@?$ctype@D@std@@MBEPBDPADPBD@Z
	DD	FLAT:?do_toupper@?$ctype@D@std@@MBEDD@Z
	DD	FLAT:?do_widen@?$ctype@D@std@@MBEPBDPBD0PAD@Z
	DD	FLAT:?do_widen@?$ctype@D@std@@MBEDD@Z
	DD	FLAT:?_Do_widen_s@?$ctype@D@std@@MBEPBDPBD0PADI@Z
	DD	FLAT:?do_narrow@?$ctype@D@std@@MBEPBDPBD0DPAD@Z
	DD	FLAT:?do_narrow@?$ctype@D@std@@MBEDDD@Z
	DD	FLAT:?_Do_narrow_s@?$ctype@D@std@@MBEPBDPBD0DPADI@Z
CONST	ENDS
;	COMDAT ??_R4?$ctype@D@std@@6B@
rdata$r	SEGMENT
??_R4?$ctype@D@std@@6B@ DD 00H				; std::ctype<char>::`RTTI Complete Object Locator'
	DD	00H
	DD	00H
	DD	FLAT:??_R0?AV?$ctype@D@std@@@8
	DD	FLAT:??_R3?$ctype@D@std@@8
rdata$r	ENDS
;	COMDAT ??_R3?$ctype@D@std@@8
rdata$r	SEGMENT
??_R3?$ctype@D@std@@8 DD 00H				; std::ctype<char>::`RTTI Class Hierarchy Descriptor'
	DD	00H
	DD	03H
	DD	FLAT:??_R2?$ctype@D@std@@8
rdata$r	ENDS
;	COMDAT ??_R2?$ctype@D@std@@8
rdata$r	SEGMENT
??_R2?$ctype@D@std@@8 DD FLAT:??_R1A@?0A@EA@?$ctype@D@std@@8 ; std::ctype<char>::`RTTI Base Class Array'
	DD	FLAT:??_R1A@?0A@EA@ctype_base@std@@8
	DD	FLAT:??_R1A@?0A@EA@facet@locale@std@@8
rdata$r	ENDS
;	COMDAT ??_R1A@?0A@EA@?$ctype@D@std@@8
rdata$r	SEGMENT
??_R1A@?0A@EA@?$ctype@D@std@@8 DD FLAT:??_R0?AV?$ctype@D@std@@@8 ; std::ctype<char>::`RTTI Base Class Descriptor at (0,-1,0,64)'
	DD	02H
	DD	00H
	DD	0ffffffffH
	DD	00H
	DD	040H
	DD	FLAT:??_R3?$ctype@D@std@@8
rdata$r	ENDS
;	COMDAT ??_R0?AV?$ctype@D@std@@@8
_DATA	SEGMENT
??_R0?AV?$ctype@D@std@@@8 DD FLAT:??_7type_info@@6B@	; std::ctype<char> `RTTI Type Descriptor'
	DD	00H
	DB	'.?AV?$ctype@D@std@@', 00H
_DATA	ENDS
;	COMDAT ??_7ctype_base@std@@6B@
CONST	SEGMENT
??_7ctype_base@std@@6B@ DD FLAT:??_R4ctype_base@std@@6B@ ; std::ctype_base::`vftable'
	DD	FLAT:??_Ectype_base@std@@UAEPAXI@Z
CONST	ENDS
;	COMDAT ??_R4ctype_base@std@@6B@
rdata$r	SEGMENT
??_R4ctype_base@std@@6B@ DD 00H				; std::ctype_base::`RTTI Complete Object Locator'
	DD	00H
	DD	00H
	DD	FLAT:??_R0?AUctype_base@std@@@8
	DD	FLAT:??_R3ctype_base@std@@8
rdata$r	ENDS
;	COMDAT ??_R3ctype_base@std@@8
rdata$r	SEGMENT
??_R3ctype_base@std@@8 DD 00H				; std::ctype_base::`RTTI Class Hierarchy Descriptor'
	DD	00H
	DD	02H
	DD	FLAT:??_R2ctype_base@std@@8
rdata$r	ENDS
;	COMDAT ??_R2ctype_base@std@@8
rdata$r	SEGMENT
??_R2ctype_base@std@@8 DD FLAT:??_R1A@?0A@EA@ctype_base@std@@8 ; std::ctype_base::`RTTI Base Class Array'
	DD	FLAT:??_R1A@?0A@EA@facet@locale@std@@8
rdata$r	ENDS
;	COMDAT ??_R1A@?0A@EA@ctype_base@std@@8
rdata$r	SEGMENT
??_R1A@?0A@EA@ctype_base@std@@8 DD FLAT:??_R0?AUctype_base@std@@@8 ; std::ctype_base::`RTTI Base Class Descriptor at (0,-1,0,64)'
	DD	01H
	DD	00H
	DD	0ffffffffH
	DD	00H
	DD	040H
	DD	FLAT:??_R3ctype_base@std@@8
rdata$r	ENDS
;	COMDAT ??_R0?AUctype_base@std@@@8
_DATA	SEGMENT
??_R0?AUctype_base@std@@@8 DD FLAT:??_7type_info@@6B@	; std::ctype_base `RTTI Type Descriptor'
	DD	00H
	DB	'.?AUctype_base@std@@', 00H
_DATA	ENDS
;	COMDAT ??_7codecvt_base@std@@6B@
CONST	SEGMENT
??_7codecvt_base@std@@6B@ DD FLAT:??_R4codecvt_base@std@@6B@ ; std::codecvt_base::`vftable'
	DD	FLAT:??_Ecodecvt_base@std@@UAEPAXI@Z
	DD	FLAT:?do_always_noconv@codecvt_base@std@@MBE_NXZ
	DD	FLAT:?do_max_length@codecvt_base@std@@MBEHXZ
	DD	FLAT:?do_encoding@codecvt_base@std@@MBEHXZ
CONST	ENDS
;	COMDAT ??_R4codecvt_base@std@@6B@
rdata$r	SEGMENT
??_R4codecvt_base@std@@6B@ DD 00H			; std::codecvt_base::`RTTI Complete Object Locator'
	DD	00H
	DD	00H
	DD	FLAT:??_R0?AVcodecvt_base@std@@@8
	DD	FLAT:??_R3codecvt_base@std@@8
rdata$r	ENDS
;	COMDAT ??_R3codecvt_base@std@@8
rdata$r	SEGMENT
??_R3codecvt_base@std@@8 DD 00H				; std::codecvt_base::`RTTI Class Hierarchy Descriptor'
	DD	00H
	DD	02H
	DD	FLAT:??_R2codecvt_base@std@@8
rdata$r	ENDS
;	COMDAT ??_R2codecvt_base@std@@8
rdata$r	SEGMENT
??_R2codecvt_base@std@@8 DD FLAT:??_R1A@?0A@EA@codecvt_base@std@@8 ; std::codecvt_base::`RTTI Base Class Array'
	DD	FLAT:??_R1A@?0A@EA@facet@locale@std@@8
rdata$r	ENDS
;	COMDAT ??_R1A@?0A@EA@codecvt_base@std@@8
rdata$r	SEGMENT
??_R1A@?0A@EA@codecvt_base@std@@8 DD FLAT:??_R0?AVcodecvt_base@std@@@8 ; std::codecvt_base::`RTTI Base Class Descriptor at (0,-1,0,64)'
	DD	01H
	DD	00H
	DD	0ffffffffH
	DD	00H
	DD	040H
	DD	FLAT:??_R3codecvt_base@std@@8
rdata$r	ENDS
;	COMDAT ??_R0?AVcodecvt_base@std@@@8
_DATA	SEGMENT
??_R0?AVcodecvt_base@std@@@8 DD FLAT:??_7type_info@@6B@	; std::codecvt_base `RTTI Type Descriptor'
	DD	00H
	DB	'.?AVcodecvt_base@std@@', 00H
_DATA	ENDS
;	COMDAT ??_7facet@locale@std@@6B@
CONST	SEGMENT
??_7facet@locale@std@@6B@ DD FLAT:??_R4facet@locale@std@@6B@ ; std::locale::facet::`vftable'
	DD	FLAT:??_Efacet@locale@std@@UAEPAXI@Z
CONST	ENDS
;	COMDAT ??_R4facet@locale@std@@6B@
rdata$r	SEGMENT
??_R4facet@locale@std@@6B@ DD 00H			; std::locale::facet::`RTTI Complete Object Locator'
	DD	00H
	DD	00H
	DD	FLAT:??_R0?AVfacet@locale@std@@@8
	DD	FLAT:??_R3facet@locale@std@@8
rdata$r	ENDS
;	COMDAT ??_R3facet@locale@std@@8
rdata$r	SEGMENT
??_R3facet@locale@std@@8 DD 00H				; std::locale::facet::`RTTI Class Hierarchy Descriptor'
	DD	00H
	DD	01H
	DD	FLAT:??_R2facet@locale@std@@8
rdata$r	ENDS
;	COMDAT ??_R2facet@locale@std@@8
rdata$r	SEGMENT
??_R2facet@locale@std@@8 DD FLAT:??_R1A@?0A@EA@facet@locale@std@@8 ; std::locale::facet::`RTTI Base Class Array'
rdata$r	ENDS
;	COMDAT ??_R1A@?0A@EA@facet@locale@std@@8
rdata$r	SEGMENT
??_R1A@?0A@EA@facet@locale@std@@8 DD FLAT:??_R0?AVfacet@locale@std@@@8 ; std::locale::facet::`RTTI Base Class Descriptor at (0,-1,0,64)'
	DD	00H
	DD	00H
	DD	0ffffffffH
	DD	00H
	DD	040H
	DD	FLAT:??_R3facet@locale@std@@8
rdata$r	ENDS
;	COMDAT ??_R0?AVfacet@locale@std@@@8
_DATA	SEGMENT
??_R0?AVfacet@locale@std@@@8 DD FLAT:??_7type_info@@6B@	; std::locale::facet `RTTI Type Descriptor'
	DD	00H
	DB	'.?AVfacet@locale@std@@', 00H
_DATA	ENDS
;	COMDAT ??_7runtime_error@std@@6B@
CONST	SEGMENT
??_7runtime_error@std@@6B@ DD FLAT:??_R4runtime_error@std@@6B@ ; std::runtime_error::`vftable'
	DD	FLAT:??_Eruntime_error@std@@UAEPAXI@Z
	DD	FLAT:?what@runtime_error@std@@UBEPBDXZ
CONST	ENDS
;	COMDAT ??_R4runtime_error@std@@6B@
rdata$r	SEGMENT
??_R4runtime_error@std@@6B@ DD 00H			; std::runtime_error::`RTTI Complete Object Locator'
	DD	00H
	DD	00H
	DD	FLAT:??_R0?AVruntime_error@std@@@8
	DD	FLAT:??_R3runtime_error@std@@8
rdata$r	ENDS
;	COMDAT ??_R3runtime_error@std@@8
rdata$r	SEGMENT
??_R3runtime_error@std@@8 DD 00H			; std::runtime_error::`RTTI Class Hierarchy Descriptor'
	DD	00H
	DD	02H
	DD	FLAT:??_R2runtime_error@std@@8
rdata$r	ENDS
;	COMDAT ??_R2runtime_error@std@@8
rdata$r	SEGMENT
??_R2runtime_error@std@@8 DD FLAT:??_R1A@?0A@EA@runtime_error@std@@8 ; std::runtime_error::`RTTI Base Class Array'
	DD	FLAT:??_R1A@?0A@EA@exception@std@@8
rdata$r	ENDS
;	COMDAT ??_R1A@?0A@EA@runtime_error@std@@8
rdata$r	SEGMENT
??_R1A@?0A@EA@runtime_error@std@@8 DD FLAT:??_R0?AVruntime_error@std@@@8 ; std::runtime_error::`RTTI Base Class Descriptor at (0,-1,0,64)'
	DD	01H
	DD	00H
	DD	0ffffffffH
	DD	00H
	DD	040H
	DD	FLAT:??_R3runtime_error@std@@8
rdata$r	ENDS
;	COMDAT ??_8?$basic_ofstream@DU?$char_traits@D@std@@@std@@7B@
CONST	SEGMENT
??_8?$basic_ofstream@DU?$char_traits@D@std@@@std@@7B@ DD 00H ; std::basic_ofstream<char,std::char_traits<char> >::`vbtable'
	DD	054H
CONST	ENDS
;	COMDAT ??_7?$basic_ofstream@DU?$char_traits@D@std@@@std@@6B@
CONST	SEGMENT
??_7?$basic_ofstream@DU?$char_traits@D@std@@@std@@6B@ DD FLAT:??_R4?$basic_ofstream@DU?$char_traits@D@std@@@std@@6B@ ; std::basic_ofstream<char,std::char_traits<char> >::`vftable'
	DD	FLAT:??_E?$basic_ofstream@DU?$char_traits@D@std@@@std@@UAEPAXI@Z
CONST	ENDS
;	COMDAT ??_R4?$basic_ofstream@DU?$char_traits@D@std@@@std@@6B@
rdata$r	SEGMENT
??_R4?$basic_ofstream@DU?$char_traits@D@std@@@std@@6B@ DD 00H ; std::basic_ofstream<char,std::char_traits<char> >::`RTTI Complete Object Locator'
	DD	054H
	DD	00H
	DD	FLAT:??_R0?AV?$basic_ofstream@DU?$char_traits@D@std@@@std@@@8
	DD	FLAT:??_R3?$basic_ofstream@DU?$char_traits@D@std@@@std@@8
rdata$r	ENDS
;	COMDAT ??_R3?$basic_ofstream@DU?$char_traits@D@std@@@std@@8
rdata$r	SEGMENT
??_R3?$basic_ofstream@DU?$char_traits@D@std@@@std@@8 DD 00H ; std::basic_ofstream<char,std::char_traits<char> >::`RTTI Class Hierarchy Descriptor'
	DD	00H
	DD	05H
	DD	FLAT:??_R2?$basic_ofstream@DU?$char_traits@D@std@@@std@@8
rdata$r	ENDS
;	COMDAT ??_R2?$basic_ofstream@DU?$char_traits@D@std@@@std@@8
rdata$r	SEGMENT
??_R2?$basic_ofstream@DU?$char_traits@D@std@@@std@@8 DD FLAT:??_R1A@?0A@EA@?$basic_ofstream@DU?$char_traits@D@std@@@std@@8 ; std::basic_ofstream<char,std::char_traits<char> >::`RTTI Base Class Array'
	DD	FLAT:??_R1A@?0A@EA@?$basic_ostream@DU?$char_traits@D@std@@@std@@8
	DD	FLAT:??_R1A@A@3FA@?$basic_ios@DU?$char_traits@D@std@@@std@@8
	DD	FLAT:??_R1A@A@3EA@ios_base@std@@8
	DD	FLAT:??_R13A@3EA@?$_Iosb@H@std@@8
rdata$r	ENDS
;	COMDAT ??_R1A@?0A@EA@?$basic_ofstream@DU?$char_traits@D@std@@@std@@8
rdata$r	SEGMENT
??_R1A@?0A@EA@?$basic_ofstream@DU?$char_traits@D@std@@@std@@8 DD FLAT:??_R0?AV?$basic_ofstream@DU?$char_traits@D@std@@@std@@@8 ; std::basic_ofstream<char,std::char_traits<char> >::`RTTI Base Class Descriptor at (0,-1,0,64)'
	DD	04H
	DD	00H
	DD	0ffffffffH
	DD	00H
	DD	040H
	DD	FLAT:??_R3?$basic_ofstream@DU?$char_traits@D@std@@@std@@8
rdata$r	ENDS
;	COMDAT ??_R0?AV?$basic_ofstream@DU?$char_traits@D@std@@@std@@@8
_DATA	SEGMENT
??_R0?AV?$basic_ofstream@DU?$char_traits@D@std@@@std@@@8 DD FLAT:??_7type_info@@6B@ ; std::basic_ofstream<char,std::char_traits<char> > `RTTI Type Descriptor'
	DD	00H
	DB	'.?AV?$basic_ofstream@DU?$char_traits@D@std@@@std@@', 00H
_DATA	ENDS
;	COMDAT ??_7?$basic_filebuf@DU?$char_traits@D@std@@@std@@6B@
CONST	SEGMENT
??_7?$basic_filebuf@DU?$char_traits@D@std@@@std@@6B@ DD FLAT:??_R4?$basic_filebuf@DU?$char_traits@D@std@@@std@@6B@ ; std::basic_filebuf<char,std::char_traits<char> >::`vftable'
	DD	FLAT:??_E?$basic_filebuf@DU?$char_traits@D@std@@@std@@UAEPAXI@Z
	DD	FLAT:?overflow@?$basic_filebuf@DU?$char_traits@D@std@@@std@@MAEHH@Z
	DD	FLAT:?pbackfail@?$basic_filebuf@DU?$char_traits@D@std@@@std@@MAEHH@Z
	DD	FLAT:?showmanyc@?$basic_streambuf@DU?$char_traits@D@std@@@std@@MAEHXZ
	DD	FLAT:?underflow@?$basic_filebuf@DU?$char_traits@D@std@@@std@@MAEHXZ
	DD	FLAT:?uflow@?$basic_filebuf@DU?$char_traits@D@std@@@std@@MAEHXZ
	DD	FLAT:?xsgetn@?$basic_streambuf@DU?$char_traits@D@std@@@std@@MAEHPADH@Z
	DD	FLAT:?_Xsgetn_s@?$basic_streambuf@DU?$char_traits@D@std@@@std@@MAEHPADIH@Z
	DD	FLAT:?xsputn@?$basic_streambuf@DU?$char_traits@D@std@@@std@@MAEHPBDH@Z
	DD	FLAT:?seekoff@?$basic_filebuf@DU?$char_traits@D@std@@@std@@MAE?AV?$fpos@H@2@JHH@Z
	DD	FLAT:?seekpos@?$basic_filebuf@DU?$char_traits@D@std@@@std@@MAE?AV?$fpos@H@2@V32@H@Z
	DD	FLAT:?setbuf@?$basic_filebuf@DU?$char_traits@D@std@@@std@@MAEPAV?$basic_streambuf@DU?$char_traits@D@std@@@2@PADH@Z
	DD	FLAT:?sync@?$basic_filebuf@DU?$char_traits@D@std@@@std@@MAEHXZ
	DD	FLAT:?imbue@?$basic_filebuf@DU?$char_traits@D@std@@@std@@MAEXABVlocale@2@@Z
CONST	ENDS
;	COMDAT ??_R4?$basic_filebuf@DU?$char_traits@D@std@@@std@@6B@
rdata$r	SEGMENT
??_R4?$basic_filebuf@DU?$char_traits@D@std@@@std@@6B@ DD 00H ; std::basic_filebuf<char,std::char_traits<char> >::`RTTI Complete Object Locator'
	DD	00H
	DD	00H
	DD	FLAT:??_R0?AV?$basic_filebuf@DU?$char_traits@D@std@@@std@@@8
	DD	FLAT:??_R3?$basic_filebuf@DU?$char_traits@D@std@@@std@@8
rdata$r	ENDS
;	COMDAT ??_R3?$basic_filebuf@DU?$char_traits@D@std@@@std@@8
rdata$r	SEGMENT
??_R3?$basic_filebuf@DU?$char_traits@D@std@@@std@@8 DD 00H ; std::basic_filebuf<char,std::char_traits<char> >::`RTTI Class Hierarchy Descriptor'
	DD	00H
	DD	02H
	DD	FLAT:??_R2?$basic_filebuf@DU?$char_traits@D@std@@@std@@8
rdata$r	ENDS
;	COMDAT ??_R2?$basic_filebuf@DU?$char_traits@D@std@@@std@@8
rdata$r	SEGMENT
??_R2?$basic_filebuf@DU?$char_traits@D@std@@@std@@8 DD FLAT:??_R1A@?0A@EA@?$basic_filebuf@DU?$char_traits@D@std@@@std@@8 ; std::basic_filebuf<char,std::char_traits<char> >::`RTTI Base Class Array'
	DD	FLAT:??_R1A@?0A@EA@?$basic_streambuf@DU?$char_traits@D@std@@@std@@8
rdata$r	ENDS
;	COMDAT ??_R1A@?0A@EA@?$basic_filebuf@DU?$char_traits@D@std@@@std@@8
rdata$r	SEGMENT
??_R1A@?0A@EA@?$basic_filebuf@DU?$char_traits@D@std@@@std@@8 DD FLAT:??_R0?AV?$basic_filebuf@DU?$char_traits@D@std@@@std@@@8 ; std::basic_filebuf<char,std::char_traits<char> >::`RTTI Base Class Descriptor at (0,-1,0,64)'
	DD	01H
	DD	00H
	DD	0ffffffffH
	DD	00H
	DD	040H
	DD	FLAT:??_R3?$basic_filebuf@DU?$char_traits@D@std@@@std@@8
rdata$r	ENDS
;	COMDAT ??_R0?AV?$basic_filebuf@DU?$char_traits@D@std@@@std@@@8
_DATA	SEGMENT
??_R0?AV?$basic_filebuf@DU?$char_traits@D@std@@@std@@@8 DD FLAT:??_7type_info@@6B@ ; std::basic_filebuf<char,std::char_traits<char> > `RTTI Type Descriptor'
	DD	00H
	DB	'.?AV?$basic_filebuf@DU?$char_traits@D@std@@@std@@', 00H
_DATA	ENDS
;	COMDAT ??_8?$basic_stringstream@DU?$char_traits@D@std@@V?$allocator@D@2@@std@@7B?$basic_ostream@DU?$char_traits@D@std@@@1@@
CONST	SEGMENT
??_8?$basic_stringstream@DU?$char_traits@D@std@@V?$allocator@D@2@@std@@7B?$basic_ostream@DU?$char_traits@D@std@@@1@@ DD 00H ; std::basic_stringstream<char,std::char_traits<char>,std::allocator<char> >::`vbtable'
	DD	04cH
CONST	ENDS
;	COMDAT ??_8?$basic_stringstream@DU?$char_traits@D@std@@V?$allocator@D@2@@std@@7B?$basic_istream@DU?$char_traits@D@std@@@1@@
CONST	SEGMENT
??_8?$basic_stringstream@DU?$char_traits@D@std@@V?$allocator@D@2@@std@@7B?$basic_istream@DU?$char_traits@D@std@@@1@@ DD 00H ; std::basic_stringstream<char,std::char_traits<char>,std::allocator<char> >::`vbtable'
	DD	054H
CONST	ENDS
;	COMDAT ??_7?$basic_stringstream@DU?$char_traits@D@std@@V?$allocator@D@2@@std@@6B@
CONST	SEGMENT
??_7?$basic_stringstream@DU?$char_traits@D@std@@V?$allocator@D@2@@std@@6B@ DD FLAT:??_R4?$basic_stringstream@DU?$char_traits@D@std@@V?$allocator@D@2@@std@@6B@ ; std::basic_stringstream<char,std::char_traits<char>,std::allocator<char> >::`vftable'
	DD	FLAT:??_E?$basic_stringstream@DU?$char_traits@D@std@@V?$allocator@D@2@@std@@UAEPAXI@Z
CONST	ENDS
;	COMDAT ??_R4?$basic_stringstream@DU?$char_traits@D@std@@V?$allocator@D@2@@std@@6B@
rdata$r	SEGMENT
??_R4?$basic_stringstream@DU?$char_traits@D@std@@V?$allocator@D@2@@std@@6B@ DD 00H ; std::basic_stringstream<char,std::char_traits<char>,std::allocator<char> >::`RTTI Complete Object Locator'
	DD	054H
	DD	00H
	DD	FLAT:??_R0?AV?$basic_stringstream@DU?$char_traits@D@std@@V?$allocator@D@2@@std@@@8
	DD	FLAT:??_R3?$basic_stringstream@DU?$char_traits@D@std@@V?$allocator@D@2@@std@@8
rdata$r	ENDS
;	COMDAT ??_R3?$basic_stringstream@DU?$char_traits@D@std@@V?$allocator@D@2@@std@@8
rdata$r	SEGMENT
??_R3?$basic_stringstream@DU?$char_traits@D@std@@V?$allocator@D@2@@std@@8 DD 00H ; std::basic_stringstream<char,std::char_traits<char>,std::allocator<char> >::`RTTI Class Hierarchy Descriptor'
	DD	03H
	DD	0aH
	DD	FLAT:??_R2?$basic_stringstream@DU?$char_traits@D@std@@V?$allocator@D@2@@std@@8
rdata$r	ENDS
;	COMDAT ??_R2?$basic_stringstream@DU?$char_traits@D@std@@V?$allocator@D@2@@std@@8
rdata$r	SEGMENT
??_R2?$basic_stringstream@DU?$char_traits@D@std@@V?$allocator@D@2@@std@@8 DD FLAT:??_R1A@?0A@EA@?$basic_stringstream@DU?$char_traits@D@std@@V?$allocator@D@2@@std@@8 ; std::basic_stringstream<char,std::char_traits<char>,std::allocator<char> >::`RTTI Base Class Array'
	DD	FLAT:??_R1A@?0A@EA@?$basic_iostream@DU?$char_traits@D@std@@@std@@8
	DD	FLAT:??_R1A@?0A@EA@?$basic_istream@DU?$char_traits@D@std@@@std@@8
	DD	FLAT:??_R1A@A@3FA@?$basic_ios@DU?$char_traits@D@std@@@std@@8
	DD	FLAT:??_R1A@A@3EA@ios_base@std@@8
	DD	FLAT:??_R13A@3EA@?$_Iosb@H@std@@8
	DD	FLAT:??_R17?0A@EA@?$basic_ostream@DU?$char_traits@D@std@@@std@@8
	DD	FLAT:??_R1A@A@3FA@?$basic_ios@DU?$char_traits@D@std@@@std@@8
	DD	FLAT:??_R1A@A@3EA@ios_base@std@@8
	DD	FLAT:??_R13A@3EA@?$_Iosb@H@std@@8
rdata$r	ENDS
;	COMDAT ??_R1A@?0A@EA@?$basic_stringstream@DU?$char_traits@D@std@@V?$allocator@D@2@@std@@8
rdata$r	SEGMENT
??_R1A@?0A@EA@?$basic_stringstream@DU?$char_traits@D@std@@V?$allocator@D@2@@std@@8 DD FLAT:??_R0?AV?$basic_stringstream@DU?$char_traits@D@std@@V?$allocator@D@2@@std@@@8 ; std::basic_stringstream<char,std::char_traits<char>,std::allocator<char> >::`RTTI Base Class Descriptor at (0,-1,0,64)'
	DD	09H
	DD	00H
	DD	0ffffffffH
	DD	00H
	DD	040H
	DD	FLAT:??_R3?$basic_stringstream@DU?$char_traits@D@std@@V?$allocator@D@2@@std@@8
rdata$r	ENDS
;	COMDAT ??_R0?AV?$basic_stringstream@DU?$char_traits@D@std@@V?$allocator@D@2@@std@@@8
_DATA	SEGMENT
??_R0?AV?$basic_stringstream@DU?$char_traits@D@std@@V?$allocator@D@2@@std@@@8 DD FLAT:??_7type_info@@6B@ ; std::basic_stringstream<char,std::char_traits<char>,std::allocator<char> > `RTTI Type Descriptor'
	DD	00H
	DB	'.?AV?$basic_stringstream@DU?$char_traits@D@std@@V?$alloc'
	DB	'ator@D@2@@std@@', 00H
_DATA	ENDS
;	COMDAT ??_7?$basic_stringbuf@DU?$char_traits@D@std@@V?$allocator@D@2@@std@@6B@
CONST	SEGMENT
??_7?$basic_stringbuf@DU?$char_traits@D@std@@V?$allocator@D@2@@std@@6B@ DD FLAT:??_R4?$basic_stringbuf@DU?$char_traits@D@std@@V?$allocator@D@2@@std@@6B@ ; std::basic_stringbuf<char,std::char_traits<char>,std::allocator<char> >::`vftable'
	DD	FLAT:??_E?$basic_stringbuf@DU?$char_traits@D@std@@V?$allocator@D@2@@std@@UAEPAXI@Z
	DD	FLAT:?overflow@?$basic_stringbuf@DU?$char_traits@D@std@@V?$allocator@D@2@@std@@MAEHH@Z
	DD	FLAT:?pbackfail@?$basic_stringbuf@DU?$char_traits@D@std@@V?$allocator@D@2@@std@@MAEHH@Z
	DD	FLAT:?showmanyc@?$basic_streambuf@DU?$char_traits@D@std@@@std@@MAEHXZ
	DD	FLAT:?underflow@?$basic_stringbuf@DU?$char_traits@D@std@@V?$allocator@D@2@@std@@MAEHXZ
	DD	FLAT:?uflow@?$basic_streambuf@DU?$char_traits@D@std@@@std@@MAEHXZ
	DD	FLAT:?xsgetn@?$basic_streambuf@DU?$char_traits@D@std@@@std@@MAEHPADH@Z
	DD	FLAT:?_Xsgetn_s@?$basic_streambuf@DU?$char_traits@D@std@@@std@@MAEHPADIH@Z
	DD	FLAT:?xsputn@?$basic_streambuf@DU?$char_traits@D@std@@@std@@MAEHPBDH@Z
	DD	FLAT:?seekoff@?$basic_stringbuf@DU?$char_traits@D@std@@V?$allocator@D@2@@std@@MAE?AV?$fpos@H@2@JHH@Z
	DD	FLAT:?seekpos@?$basic_stringbuf@DU?$char_traits@D@std@@V?$allocator@D@2@@std@@MAE?AV?$fpos@H@2@V32@H@Z
	DD	FLAT:?setbuf@?$basic_streambuf@DU?$char_traits@D@std@@@std@@MAEPAV12@PADH@Z
	DD	FLAT:?sync@?$basic_streambuf@DU?$char_traits@D@std@@@std@@MAEHXZ
	DD	FLAT:?imbue@?$basic_streambuf@DU?$char_traits@D@std@@@std@@MAEXABVlocale@2@@Z
CONST	ENDS
;	COMDAT ??_R4?$basic_stringbuf@DU?$char_traits@D@std@@V?$allocator@D@2@@std@@6B@
rdata$r	SEGMENT
??_R4?$basic_stringbuf@DU?$char_traits@D@std@@V?$allocator@D@2@@std@@6B@ DD 00H ; std::basic_stringbuf<char,std::char_traits<char>,std::allocator<char> >::`RTTI Complete Object Locator'
	DD	00H
	DD	00H
	DD	FLAT:??_R0?AV?$basic_stringbuf@DU?$char_traits@D@std@@V?$allocator@D@2@@std@@@8
	DD	FLAT:??_R3?$basic_stringbuf@DU?$char_traits@D@std@@V?$allocator@D@2@@std@@8
rdata$r	ENDS
;	COMDAT ??_R3?$basic_stringbuf@DU?$char_traits@D@std@@V?$allocator@D@2@@std@@8
rdata$r	SEGMENT
??_R3?$basic_stringbuf@DU?$char_traits@D@std@@V?$allocator@D@2@@std@@8 DD 00H ; std::basic_stringbuf<char,std::char_traits<char>,std::allocator<char> >::`RTTI Class Hierarchy Descriptor'
	DD	00H
	DD	02H
	DD	FLAT:??_R2?$basic_stringbuf@DU?$char_traits@D@std@@V?$allocator@D@2@@std@@8
rdata$r	ENDS
;	COMDAT ??_R2?$basic_stringbuf@DU?$char_traits@D@std@@V?$allocator@D@2@@std@@8
rdata$r	SEGMENT
??_R2?$basic_stringbuf@DU?$char_traits@D@std@@V?$allocator@D@2@@std@@8 DD FLAT:??_R1A@?0A@EA@?$basic_stringbuf@DU?$char_traits@D@std@@V?$allocator@D@2@@std@@8 ; std::basic_stringbuf<char,std::char_traits<char>,std::allocator<char> >::`RTTI Base Class Array'
	DD	FLAT:??_R1A@?0A@EA@?$basic_streambuf@DU?$char_traits@D@std@@@std@@8
rdata$r	ENDS
;	COMDAT ??_R1A@?0A@EA@?$basic_stringbuf@DU?$char_traits@D@std@@V?$allocator@D@2@@std@@8
rdata$r	SEGMENT
??_R1A@?0A@EA@?$basic_stringbuf@DU?$char_traits@D@std@@V?$allocator@D@2@@std@@8 DD FLAT:??_R0?AV?$basic_stringbuf@DU?$char_traits@D@std@@V?$allocator@D@2@@std@@@8 ; std::basic_stringbuf<char,std::char_traits<char>,std::allocator<char> >::`RTTI Base Class Descriptor at (0,-1,0,64)'
	DD	01H
	DD	00H
	DD	0ffffffffH
	DD	00H
	DD	040H
	DD	FLAT:??_R3?$basic_stringbuf@DU?$char_traits@D@std@@V?$allocator@D@2@@std@@8
rdata$r	ENDS
;	COMDAT ??_R0?AV?$basic_stringbuf@DU?$char_traits@D@std@@V?$allocator@D@2@@std@@@8
_DATA	SEGMENT
??_R0?AV?$basic_stringbuf@DU?$char_traits@D@std@@V?$allocator@D@2@@std@@@8 DD FLAT:??_7type_info@@6B@ ; std::basic_stringbuf<char,std::char_traits<char>,std::allocator<char> > `RTTI Type Descriptor'
	DD	00H
	DB	'.?AV?$basic_stringbuf@DU?$char_traits@D@std@@V?$allocato'
	DB	'r@D@2@@std@@', 00H
_DATA	ENDS
;	COMDAT ??_8?$basic_iostream@DU?$char_traits@D@std@@@std@@7B?$basic_ostream@DU?$char_traits@D@std@@@1@@
CONST	SEGMENT
??_8?$basic_iostream@DU?$char_traits@D@std@@@std@@7B?$basic_ostream@DU?$char_traits@D@std@@@1@@ DD 00H ; std::basic_iostream<char,std::char_traits<char> >::`vbtable'
	DD	04H
CONST	ENDS
;	COMDAT ??_8?$basic_iostream@DU?$char_traits@D@std@@@std@@7B?$basic_istream@DU?$char_traits@D@std@@@1@@
CONST	SEGMENT
??_8?$basic_iostream@DU?$char_traits@D@std@@@std@@7B?$basic_istream@DU?$char_traits@D@std@@@1@@ DD 00H ; std::basic_iostream<char,std::char_traits<char> >::`vbtable'
	DD	0cH
CONST	ENDS
;	COMDAT ??_7?$basic_iostream@DU?$char_traits@D@std@@@std@@6B@
CONST	SEGMENT
??_7?$basic_iostream@DU?$char_traits@D@std@@@std@@6B@ DD FLAT:??_R4?$basic_iostream@DU?$char_traits@D@std@@@std@@6B@ ; std::basic_iostream<char,std::char_traits<char> >::`vftable'
	DD	FLAT:??_E?$basic_iostream@DU?$char_traits@D@std@@@std@@UAEPAXI@Z
CONST	ENDS
;	COMDAT ??_R4?$basic_iostream@DU?$char_traits@D@std@@@std@@6B@
rdata$r	SEGMENT
??_R4?$basic_iostream@DU?$char_traits@D@std@@@std@@6B@ DD 00H ; std::basic_iostream<char,std::char_traits<char> >::`RTTI Complete Object Locator'
	DD	0cH
	DD	00H
	DD	FLAT:??_R0?AV?$basic_iostream@DU?$char_traits@D@std@@@std@@@8
	DD	FLAT:??_R3?$basic_iostream@DU?$char_traits@D@std@@@std@@8
rdata$r	ENDS
;	COMDAT ??_R3?$basic_iostream@DU?$char_traits@D@std@@@std@@8
rdata$r	SEGMENT
??_R3?$basic_iostream@DU?$char_traits@D@std@@@std@@8 DD 00H ; std::basic_iostream<char,std::char_traits<char> >::`RTTI Class Hierarchy Descriptor'
	DD	03H
	DD	09H
	DD	FLAT:??_R2?$basic_iostream@DU?$char_traits@D@std@@@std@@8
rdata$r	ENDS
;	COMDAT ??_R2?$basic_iostream@DU?$char_traits@D@std@@@std@@8
rdata$r	SEGMENT
??_R2?$basic_iostream@DU?$char_traits@D@std@@@std@@8 DD FLAT:??_R1A@?0A@EA@?$basic_iostream@DU?$char_traits@D@std@@@std@@8 ; std::basic_iostream<char,std::char_traits<char> >::`RTTI Base Class Array'
	DD	FLAT:??_R1A@?0A@EA@?$basic_istream@DU?$char_traits@D@std@@@std@@8
	DD	FLAT:??_R1A@A@3FA@?$basic_ios@DU?$char_traits@D@std@@@std@@8
	DD	FLAT:??_R1A@A@3EA@ios_base@std@@8
	DD	FLAT:??_R13A@3EA@?$_Iosb@H@std@@8
	DD	FLAT:??_R17?0A@EA@?$basic_ostream@DU?$char_traits@D@std@@@std@@8
	DD	FLAT:??_R1A@A@3FA@?$basic_ios@DU?$char_traits@D@std@@@std@@8
	DD	FLAT:??_R1A@A@3EA@ios_base@std@@8
	DD	FLAT:??_R13A@3EA@?$_Iosb@H@std@@8
rdata$r	ENDS
;	COMDAT ??_R17?0A@EA@?$basic_ostream@DU?$char_traits@D@std@@@std@@8
rdata$r	SEGMENT
??_R17?0A@EA@?$basic_ostream@DU?$char_traits@D@std@@@std@@8 DD FLAT:??_R0?AV?$basic_ostream@DU?$char_traits@D@std@@@std@@@8 ; std::basic_ostream<char,std::char_traits<char> >::`RTTI Base Class Descriptor at (8,-1,0,64)'
	DD	03H
	DD	08H
	DD	0ffffffffH
	DD	00H
	DD	040H
	DD	FLAT:??_R3?$basic_ostream@DU?$char_traits@D@std@@@std@@8
rdata$r	ENDS
;	COMDAT ??_R1A@?0A@EA@?$basic_iostream@DU?$char_traits@D@std@@@std@@8
rdata$r	SEGMENT
??_R1A@?0A@EA@?$basic_iostream@DU?$char_traits@D@std@@@std@@8 DD FLAT:??_R0?AV?$basic_iostream@DU?$char_traits@D@std@@@std@@@8 ; std::basic_iostream<char,std::char_traits<char> >::`RTTI Base Class Descriptor at (0,-1,0,64)'
	DD	08H
	DD	00H
	DD	0ffffffffH
	DD	00H
	DD	040H
	DD	FLAT:??_R3?$basic_iostream@DU?$char_traits@D@std@@@std@@8
rdata$r	ENDS
;	COMDAT ??_R0?AV?$basic_iostream@DU?$char_traits@D@std@@@std@@@8
_DATA	SEGMENT
??_R0?AV?$basic_iostream@DU?$char_traits@D@std@@@std@@@8 DD FLAT:??_7type_info@@6B@ ; std::basic_iostream<char,std::char_traits<char> > `RTTI Type Descriptor'
	DD	00H
	DB	'.?AV?$basic_iostream@DU?$char_traits@D@std@@@std@@', 00H
_DATA	ENDS
;	COMDAT ??_8?$basic_ostream@DU?$char_traits@D@std@@@std@@7B@
CONST	SEGMENT
??_8?$basic_ostream@DU?$char_traits@D@std@@@std@@7B@ DD 00H ; std::basic_ostream<char,std::char_traits<char> >::`vbtable'
	DD	04H
CONST	ENDS
;	COMDAT ??_7?$basic_ostream@DU?$char_traits@D@std@@@std@@6B@
CONST	SEGMENT
??_7?$basic_ostream@DU?$char_traits@D@std@@@std@@6B@ DD FLAT:??_R4?$basic_ostream@DU?$char_traits@D@std@@@std@@6B@ ; std::basic_ostream<char,std::char_traits<char> >::`vftable'
	DD	FLAT:??_E?$basic_ostream@DU?$char_traits@D@std@@@std@@UAEPAXI@Z
CONST	ENDS
;	COMDAT ??_R4?$basic_ostream@DU?$char_traits@D@std@@@std@@6B@
rdata$r	SEGMENT
??_R4?$basic_ostream@DU?$char_traits@D@std@@@std@@6B@ DD 00H ; std::basic_ostream<char,std::char_traits<char> >::`RTTI Complete Object Locator'
	DD	04H
	DD	00H
	DD	FLAT:??_R0?AV?$basic_ostream@DU?$char_traits@D@std@@@std@@@8
	DD	FLAT:??_R3?$basic_ostream@DU?$char_traits@D@std@@@std@@8
rdata$r	ENDS
;	COMDAT ??_R3?$basic_ostream@DU?$char_traits@D@std@@@std@@8
rdata$r	SEGMENT
??_R3?$basic_ostream@DU?$char_traits@D@std@@@std@@8 DD 00H ; std::basic_ostream<char,std::char_traits<char> >::`RTTI Class Hierarchy Descriptor'
	DD	00H
	DD	04H
	DD	FLAT:??_R2?$basic_ostream@DU?$char_traits@D@std@@@std@@8
rdata$r	ENDS
;	COMDAT ??_R2?$basic_ostream@DU?$char_traits@D@std@@@std@@8
rdata$r	SEGMENT
??_R2?$basic_ostream@DU?$char_traits@D@std@@@std@@8 DD FLAT:??_R1A@?0A@EA@?$basic_ostream@DU?$char_traits@D@std@@@std@@8 ; std::basic_ostream<char,std::char_traits<char> >::`RTTI Base Class Array'
	DD	FLAT:??_R1A@A@3FA@?$basic_ios@DU?$char_traits@D@std@@@std@@8
	DD	FLAT:??_R1A@A@3EA@ios_base@std@@8
	DD	FLAT:??_R13A@3EA@?$_Iosb@H@std@@8
rdata$r	ENDS
;	COMDAT ??_R1A@?0A@EA@?$basic_ostream@DU?$char_traits@D@std@@@std@@8
rdata$r	SEGMENT
??_R1A@?0A@EA@?$basic_ostream@DU?$char_traits@D@std@@@std@@8 DD FLAT:??_R0?AV?$basic_ostream@DU?$char_traits@D@std@@@std@@@8 ; std::basic_ostream<char,std::char_traits<char> >::`RTTI Base Class Descriptor at (0,-1,0,64)'
	DD	03H
	DD	00H
	DD	0ffffffffH
	DD	00H
	DD	040H
	DD	FLAT:??_R3?$basic_ostream@DU?$char_traits@D@std@@@std@@8
rdata$r	ENDS
;	COMDAT ??_R0?AV?$basic_ostream@DU?$char_traits@D@std@@@std@@@8
_DATA	SEGMENT
??_R0?AV?$basic_ostream@DU?$char_traits@D@std@@@std@@@8 DD FLAT:??_7type_info@@6B@ ; std::basic_ostream<char,std::char_traits<char> > `RTTI Type Descriptor'
	DD	00H
	DB	'.?AV?$basic_ostream@DU?$char_traits@D@std@@@std@@', 00H
_DATA	ENDS
;	COMDAT ??_8?$basic_istream@DU?$char_traits@D@std@@@std@@7B@
CONST	SEGMENT
??_8?$basic_istream@DU?$char_traits@D@std@@@std@@7B@ DD 00H ; std::basic_istream<char,std::char_traits<char> >::`vbtable'
	DD	08H
CONST	ENDS
;	COMDAT ??_7?$basic_istream@DU?$char_traits@D@std@@@std@@6B@
CONST	SEGMENT
??_7?$basic_istream@DU?$char_traits@D@std@@@std@@6B@ DD FLAT:??_R4?$basic_istream@DU?$char_traits@D@std@@@std@@6B@ ; std::basic_istream<char,std::char_traits<char> >::`vftable'
	DD	FLAT:??_E?$basic_istream@DU?$char_traits@D@std@@@std@@UAEPAXI@Z
CONST	ENDS
;	COMDAT ??_R4?$basic_istream@DU?$char_traits@D@std@@@std@@6B@
rdata$r	SEGMENT
??_R4?$basic_istream@DU?$char_traits@D@std@@@std@@6B@ DD 00H ; std::basic_istream<char,std::char_traits<char> >::`RTTI Complete Object Locator'
	DD	08H
	DD	00H
	DD	FLAT:??_R0?AV?$basic_istream@DU?$char_traits@D@std@@@std@@@8
	DD	FLAT:??_R3?$basic_istream@DU?$char_traits@D@std@@@std@@8
rdata$r	ENDS
;	COMDAT ??_R3?$basic_istream@DU?$char_traits@D@std@@@std@@8
rdata$r	SEGMENT
??_R3?$basic_istream@DU?$char_traits@D@std@@@std@@8 DD 00H ; std::basic_istream<char,std::char_traits<char> >::`RTTI Class Hierarchy Descriptor'
	DD	00H
	DD	04H
	DD	FLAT:??_R2?$basic_istream@DU?$char_traits@D@std@@@std@@8
rdata$r	ENDS
;	COMDAT ??_R2?$basic_istream@DU?$char_traits@D@std@@@std@@8
rdata$r	SEGMENT
??_R2?$basic_istream@DU?$char_traits@D@std@@@std@@8 DD FLAT:??_R1A@?0A@EA@?$basic_istream@DU?$char_traits@D@std@@@std@@8 ; std::basic_istream<char,std::char_traits<char> >::`RTTI Base Class Array'
	DD	FLAT:??_R1A@A@3FA@?$basic_ios@DU?$char_traits@D@std@@@std@@8
	DD	FLAT:??_R1A@A@3EA@ios_base@std@@8
	DD	FLAT:??_R13A@3EA@?$_Iosb@H@std@@8
rdata$r	ENDS
;	COMDAT ??_R13A@3EA@?$_Iosb@H@std@@8
rdata$r	SEGMENT
??_R13A@3EA@?$_Iosb@H@std@@8 DD FLAT:??_R0?AV?$_Iosb@H@std@@@8 ; std::_Iosb<int>::`RTTI Base Class Descriptor at (4,0,4,64)'
	DD	00H
	DD	04H
	DD	00H
	DD	04H
	DD	040H
	DD	FLAT:??_R3?$_Iosb@H@std@@8
rdata$r	ENDS
;	COMDAT ??_R1A@A@3EA@ios_base@std@@8
rdata$r	SEGMENT
??_R1A@A@3EA@ios_base@std@@8 DD FLAT:??_R0?AVios_base@std@@@8 ; std::ios_base::`RTTI Base Class Descriptor at (0,0,4,64)'
	DD	01H
	DD	00H
	DD	00H
	DD	04H
	DD	040H
	DD	FLAT:??_R3ios_base@std@@8
rdata$r	ENDS
;	COMDAT ??_R1A@A@3FA@?$basic_ios@DU?$char_traits@D@std@@@std@@8
rdata$r	SEGMENT
??_R1A@A@3FA@?$basic_ios@DU?$char_traits@D@std@@@std@@8 DD FLAT:??_R0?AV?$basic_ios@DU?$char_traits@D@std@@@std@@@8 ; std::basic_ios<char,std::char_traits<char> >::`RTTI Base Class Descriptor at (0,0,4,80)'
	DD	02H
	DD	00H
	DD	00H
	DD	04H
	DD	050H
	DD	FLAT:??_R3?$basic_ios@DU?$char_traits@D@std@@@std@@8
rdata$r	ENDS
;	COMDAT ??_R1A@?0A@EA@?$basic_istream@DU?$char_traits@D@std@@@std@@8
rdata$r	SEGMENT
??_R1A@?0A@EA@?$basic_istream@DU?$char_traits@D@std@@@std@@8 DD FLAT:??_R0?AV?$basic_istream@DU?$char_traits@D@std@@@std@@@8 ; std::basic_istream<char,std::char_traits<char> >::`RTTI Base Class Descriptor at (0,-1,0,64)'
	DD	03H
	DD	00H
	DD	0ffffffffH
	DD	00H
	DD	040H
	DD	FLAT:??_R3?$basic_istream@DU?$char_traits@D@std@@@std@@8
rdata$r	ENDS
;	COMDAT ??_R0?AV?$basic_istream@DU?$char_traits@D@std@@@std@@@8
_DATA	SEGMENT
??_R0?AV?$basic_istream@DU?$char_traits@D@std@@@std@@@8 DD FLAT:??_7type_info@@6B@ ; std::basic_istream<char,std::char_traits<char> > `RTTI Type Descriptor'
	DD	00H
	DB	'.?AV?$basic_istream@DU?$char_traits@D@std@@@std@@', 00H
_DATA	ENDS
;	COMDAT ??_7?$basic_streambuf@DU?$char_traits@D@std@@@std@@6B@
CONST	SEGMENT
??_7?$basic_streambuf@DU?$char_traits@D@std@@@std@@6B@ DD FLAT:??_R4?$basic_streambuf@DU?$char_traits@D@std@@@std@@6B@ ; std::basic_streambuf<char,std::char_traits<char> >::`vftable'
	DD	FLAT:??_E?$basic_streambuf@DU?$char_traits@D@std@@@std@@UAEPAXI@Z
	DD	FLAT:?overflow@?$basic_streambuf@DU?$char_traits@D@std@@@std@@MAEHH@Z
	DD	FLAT:?pbackfail@?$basic_streambuf@DU?$char_traits@D@std@@@std@@MAEHH@Z
	DD	FLAT:?showmanyc@?$basic_streambuf@DU?$char_traits@D@std@@@std@@MAEHXZ
	DD	FLAT:?underflow@?$basic_streambuf@DU?$char_traits@D@std@@@std@@MAEHXZ
	DD	FLAT:?uflow@?$basic_streambuf@DU?$char_traits@D@std@@@std@@MAEHXZ
	DD	FLAT:?xsgetn@?$basic_streambuf@DU?$char_traits@D@std@@@std@@MAEHPADH@Z
	DD	FLAT:?_Xsgetn_s@?$basic_streambuf@DU?$char_traits@D@std@@@std@@MAEHPADIH@Z
	DD	FLAT:?xsputn@?$basic_streambuf@DU?$char_traits@D@std@@@std@@MAEHPBDH@Z
	DD	FLAT:?seekoff@?$basic_streambuf@DU?$char_traits@D@std@@@std@@MAE?AV?$fpos@H@2@JHH@Z
	DD	FLAT:?seekpos@?$basic_streambuf@DU?$char_traits@D@std@@@std@@MAE?AV?$fpos@H@2@V32@H@Z
	DD	FLAT:?setbuf@?$basic_streambuf@DU?$char_traits@D@std@@@std@@MAEPAV12@PADH@Z
	DD	FLAT:?sync@?$basic_streambuf@DU?$char_traits@D@std@@@std@@MAEHXZ
	DD	FLAT:?imbue@?$basic_streambuf@DU?$char_traits@D@std@@@std@@MAEXABVlocale@2@@Z
CONST	ENDS
;	COMDAT ??_R4?$basic_streambuf@DU?$char_traits@D@std@@@std@@6B@
rdata$r	SEGMENT
??_R4?$basic_streambuf@DU?$char_traits@D@std@@@std@@6B@ DD 00H ; std::basic_streambuf<char,std::char_traits<char> >::`RTTI Complete Object Locator'
	DD	00H
	DD	00H
	DD	FLAT:??_R0?AV?$basic_streambuf@DU?$char_traits@D@std@@@std@@@8
	DD	FLAT:??_R3?$basic_streambuf@DU?$char_traits@D@std@@@std@@8
rdata$r	ENDS
;	COMDAT ??_R3?$basic_streambuf@DU?$char_traits@D@std@@@std@@8
rdata$r	SEGMENT
??_R3?$basic_streambuf@DU?$char_traits@D@std@@@std@@8 DD 00H ; std::basic_streambuf<char,std::char_traits<char> >::`RTTI Class Hierarchy Descriptor'
	DD	00H
	DD	01H
	DD	FLAT:??_R2?$basic_streambuf@DU?$char_traits@D@std@@@std@@8
rdata$r	ENDS
;	COMDAT ??_R2?$basic_streambuf@DU?$char_traits@D@std@@@std@@8
rdata$r	SEGMENT
??_R2?$basic_streambuf@DU?$char_traits@D@std@@@std@@8 DD FLAT:??_R1A@?0A@EA@?$basic_streambuf@DU?$char_traits@D@std@@@std@@8 ; std::basic_streambuf<char,std::char_traits<char> >::`RTTI Base Class Array'
rdata$r	ENDS
;	COMDAT ??_R1A@?0A@EA@?$basic_streambuf@DU?$char_traits@D@std@@@std@@8
rdata$r	SEGMENT
??_R1A@?0A@EA@?$basic_streambuf@DU?$char_traits@D@std@@@std@@8 DD FLAT:??_R0?AV?$basic_streambuf@DU?$char_traits@D@std@@@std@@@8 ; std::basic_streambuf<char,std::char_traits<char> >::`RTTI Base Class Descriptor at (0,-1,0,64)'
	DD	00H
	DD	00H
	DD	0ffffffffH
	DD	00H
	DD	040H
	DD	FLAT:??_R3?$basic_streambuf@DU?$char_traits@D@std@@@std@@8
rdata$r	ENDS
;	COMDAT ??_R0?AV?$basic_streambuf@DU?$char_traits@D@std@@@std@@@8
_DATA	SEGMENT
??_R0?AV?$basic_streambuf@DU?$char_traits@D@std@@@std@@@8 DD FLAT:??_7type_info@@6B@ ; std::basic_streambuf<char,std::char_traits<char> > `RTTI Type Descriptor'
	DD	00H
	DB	'.?AV?$basic_streambuf@DU?$char_traits@D@std@@@std@@', 00H
_DATA	ENDS
;	COMDAT ??_7?$basic_ios@DU?$char_traits@D@std@@@std@@6B@
CONST	SEGMENT
??_7?$basic_ios@DU?$char_traits@D@std@@@std@@6B@ DD FLAT:??_R4?$basic_ios@DU?$char_traits@D@std@@@std@@6B@ ; std::basic_ios<char,std::char_traits<char> >::`vftable'
	DD	FLAT:??_E?$basic_ios@DU?$char_traits@D@std@@@std@@UAEPAXI@Z
CONST	ENDS
;	COMDAT ??_R4?$basic_ios@DU?$char_traits@D@std@@@std@@6B@
rdata$r	SEGMENT
??_R4?$basic_ios@DU?$char_traits@D@std@@@std@@6B@ DD 00H ; std::basic_ios<char,std::char_traits<char> >::`RTTI Complete Object Locator'
	DD	00H
	DD	00H
	DD	FLAT:??_R0?AV?$basic_ios@DU?$char_traits@D@std@@@std@@@8
	DD	FLAT:??_R3?$basic_ios@DU?$char_traits@D@std@@@std@@8
rdata$r	ENDS
;	COMDAT ??_R3?$basic_ios@DU?$char_traits@D@std@@@std@@8
rdata$r	SEGMENT
??_R3?$basic_ios@DU?$char_traits@D@std@@@std@@8 DD 00H	; std::basic_ios<char,std::char_traits<char> >::`RTTI Class Hierarchy Descriptor'
	DD	00H
	DD	03H
	DD	FLAT:??_R2?$basic_ios@DU?$char_traits@D@std@@@std@@8
rdata$r	ENDS
;	COMDAT ??_R2?$basic_ios@DU?$char_traits@D@std@@@std@@8
rdata$r	SEGMENT
??_R2?$basic_ios@DU?$char_traits@D@std@@@std@@8 DD FLAT:??_R1A@?0A@EA@?$basic_ios@DU?$char_traits@D@std@@@std@@8 ; std::basic_ios<char,std::char_traits<char> >::`RTTI Base Class Array'
	DD	FLAT:??_R1A@?0A@EA@ios_base@std@@8
	DD	FLAT:??_R13?0A@EA@?$_Iosb@H@std@@8
rdata$r	ENDS
;	COMDAT ??_R1A@?0A@EA@?$basic_ios@DU?$char_traits@D@std@@@std@@8
rdata$r	SEGMENT
??_R1A@?0A@EA@?$basic_ios@DU?$char_traits@D@std@@@std@@8 DD FLAT:??_R0?AV?$basic_ios@DU?$char_traits@D@std@@@std@@@8 ; std::basic_ios<char,std::char_traits<char> >::`RTTI Base Class Descriptor at (0,-1,0,64)'
	DD	02H
	DD	00H
	DD	0ffffffffH
	DD	00H
	DD	040H
	DD	FLAT:??_R3?$basic_ios@DU?$char_traits@D@std@@@std@@8
rdata$r	ENDS
;	COMDAT ??_R0?AV?$basic_ios@DU?$char_traits@D@std@@@std@@@8
_DATA	SEGMENT
??_R0?AV?$basic_ios@DU?$char_traits@D@std@@@std@@@8 DD FLAT:??_7type_info@@6B@ ; std::basic_ios<char,std::char_traits<char> > `RTTI Type Descriptor'
	DD	00H
	DB	'.?AV?$basic_ios@DU?$char_traits@D@std@@@std@@', 00H
_DATA	ENDS
;	COMDAT ??_7ios_base@std@@6B@
CONST	SEGMENT
??_7ios_base@std@@6B@ DD FLAT:??_R4ios_base@std@@6B@	; std::ios_base::`vftable'
	DD	FLAT:??_Eios_base@std@@UAEPAXI@Z
CONST	ENDS
;	COMDAT ??_R4ios_base@std@@6B@
rdata$r	SEGMENT
??_R4ios_base@std@@6B@ DD 00H				; std::ios_base::`RTTI Complete Object Locator'
	DD	00H
	DD	00H
	DD	FLAT:??_R0?AVios_base@std@@@8
	DD	FLAT:??_R3ios_base@std@@8
rdata$r	ENDS
;	COMDAT ??_R3ios_base@std@@8
rdata$r	SEGMENT
??_R3ios_base@std@@8 DD 00H				; std::ios_base::`RTTI Class Hierarchy Descriptor'
	DD	00H
	DD	02H
	DD	FLAT:??_R2ios_base@std@@8
rdata$r	ENDS
;	COMDAT ??_R2ios_base@std@@8
rdata$r	SEGMENT
??_R2ios_base@std@@8 DD FLAT:??_R1A@?0A@EA@ios_base@std@@8 ; std::ios_base::`RTTI Base Class Array'
	DD	FLAT:??_R13?0A@EA@?$_Iosb@H@std@@8
rdata$r	ENDS
;	COMDAT ??_R13?0A@EA@?$_Iosb@H@std@@8
rdata$r	SEGMENT
??_R13?0A@EA@?$_Iosb@H@std@@8 DD FLAT:??_R0?AV?$_Iosb@H@std@@@8 ; std::_Iosb<int>::`RTTI Base Class Descriptor at (4,-1,0,64)'
	DD	00H
	DD	04H
	DD	0ffffffffH
	DD	00H
	DD	040H
	DD	FLAT:??_R3?$_Iosb@H@std@@8
rdata$r	ENDS
;	COMDAT ??_R3?$_Iosb@H@std@@8
rdata$r	SEGMENT
??_R3?$_Iosb@H@std@@8 DD 00H				; std::_Iosb<int>::`RTTI Class Hierarchy Descriptor'
	DD	00H
	DD	01H
	DD	FLAT:??_R2?$_Iosb@H@std@@8
rdata$r	ENDS
;	COMDAT ??_R2?$_Iosb@H@std@@8
rdata$r	SEGMENT
??_R2?$_Iosb@H@std@@8 DD FLAT:??_R1A@?0A@EA@?$_Iosb@H@std@@8 ; std::_Iosb<int>::`RTTI Base Class Array'
rdata$r	ENDS
;	COMDAT ??_R1A@?0A@EA@?$_Iosb@H@std@@8
rdata$r	SEGMENT
??_R1A@?0A@EA@?$_Iosb@H@std@@8 DD FLAT:??_R0?AV?$_Iosb@H@std@@@8 ; std::_Iosb<int>::`RTTI Base Class Descriptor at (0,-1,0,64)'
	DD	00H
	DD	00H
	DD	0ffffffffH
	DD	00H
	DD	040H
	DD	FLAT:??_R3?$_Iosb@H@std@@8
rdata$r	ENDS
;	COMDAT ??_R0?AV?$_Iosb@H@std@@@8
_DATA	SEGMENT
??_R0?AV?$_Iosb@H@std@@@8 DD FLAT:??_7type_info@@6B@	; std::_Iosb<int> `RTTI Type Descriptor'
	DD	00H
	DB	'.?AV?$_Iosb@H@std@@', 00H
_DATA	ENDS
;	COMDAT ??_R1A@?0A@EA@ios_base@std@@8
rdata$r	SEGMENT
??_R1A@?0A@EA@ios_base@std@@8 DD FLAT:??_R0?AVios_base@std@@@8 ; std::ios_base::`RTTI Base Class Descriptor at (0,-1,0,64)'
	DD	01H
	DD	00H
	DD	0ffffffffH
	DD	00H
	DD	040H
	DD	FLAT:??_R3ios_base@std@@8
rdata$r	ENDS
;	COMDAT ??_R0?AVios_base@std@@@8
_DATA	SEGMENT
??_R0?AVios_base@std@@@8 DD FLAT:??_7type_info@@6B@	; std::ios_base `RTTI Type Descriptor'
	DD	00H
	DB	'.?AVios_base@std@@', 00H
_DATA	ENDS
;	COMDAT ??_C@_01KGKMHCOC@e?$AA@
CONST	SEGMENT
??_C@_01KGKMHCOC@e?$AA@ DB 'e', 00H			; `string'
CONST	ENDS
;	COMDAT ??_C@_01DDCIFGEA@E?$AA@
CONST	SEGMENT
??_C@_01DDCIFGEA@E?$AA@ DB 'E', 00H			; `string'
CONST	ENDS
;	COMDAT ??_C@_02BBAHNLBA@?$CFp?$AA@
CONST	SEGMENT
??_C@_02BBAHNLBA@?$CFp?$AA@ DB '%p', 00H		; `string'
CONST	ENDS
;	COMDAT ??_C@_02CLHGNPPK@Lu?$AA@
CONST	SEGMENT
??_C@_02CLHGNPPK@Lu?$AA@ DB 'Lu', 00H			; `string'
CONST	ENDS
;	COMDAT ??_C@_02HIKPPMOK@Ld?$AA@
CONST	SEGMENT
??_C@_02HIKPPMOK@Ld?$AA@ DB 'Ld', 00H			; `string'
CONST	ENDS
;	COMDAT ??_C@_02BDDLJJBK@lu?$AA@
CONST	SEGMENT
??_C@_02BDDLJJBK@lu?$AA@ DB 'lu', 00H			; `string'
CONST	ENDS
;	COMDAT ??_C@_02EAOCLKAK@ld?$AA@
CONST	SEGMENT
??_C@_02EAOCLKAK@ld?$AA@ DB 'ld', 00H			; `string'
CONST	ENDS
;	COMDAT ?_Stz@?$fpos@H@std@@0HB
CONST	SEGMENT
?_Stz@?$fpos@H@std@@0HB DD 00H				; std::fpos<int>::_Stz
CONST	ENDS
;	COMDAT __TI2?AVbad_cast@std@@
xdata$x	SEGMENT
__TI2?AVbad_cast@std@@ DD 00H
	DD	FLAT:??1bad_cast@std@@UAE@XZ
	DD	00H
	DD	FLAT:__CTA2?AVbad_cast@std@@
xdata$x	ENDS
;	COMDAT __CTA2?AVbad_cast@std@@
xdata$x	SEGMENT
__CTA2?AVbad_cast@std@@ DD 02H
	DD	FLAT:__CT??_R0?AVbad_cast@std@@@8??0bad_cast@std@@QAE@ABV01@@Z12
	DD	FLAT:__CT??_R0?AVexception@std@@@8??0exception@std@@QAE@ABV01@@Z12
xdata$x	ENDS
;	COMDAT __CT??_R0?AVbad_cast@std@@@8??0bad_cast@std@@QAE@ABV01@@Z12
xdata$x	SEGMENT
__CT??_R0?AVbad_cast@std@@@8??0bad_cast@std@@QAE@ABV01@@Z12 DD 00H
	DD	FLAT:??_R0?AVbad_cast@std@@@8
	DD	00H
	DD	0ffffffffH
	ORG $+4
	DD	0cH
	DD	FLAT:??0bad_cast@std@@QAE@ABV01@@Z
xdata$x	ENDS
;	COMDAT ??_R0?AVbad_cast@std@@@8
_DATA	SEGMENT
??_R0?AVbad_cast@std@@@8 DD FLAT:??_7type_info@@6B@	; std::bad_cast `RTTI Type Descriptor'
	DD	00H
	DB	'.?AVbad_cast@std@@', 00H
_DATA	ENDS
;	COMDAT ??_C@_08EPJLHIJG@bad?5cast?$AA@
CONST	SEGMENT
??_C@_08EPJLHIJG@bad?5cast?$AA@ DB 'bad cast', 00H	; `string'
CONST	ENDS
;	COMDAT ??_C@_0BC@MALIEGMD@?$FL?$CF02d?3?$CF02d?3?$CF02d?$FN?5?$AA@
CONST	SEGMENT
??_C@_0BC@MALIEGMD@?$FL?$CF02d?3?$CF02d?3?$CF02d?$FN?5?$AA@ DB '[%02d:%02'
	DB	'd:%02d] ', 00H				; `string'
CONST	ENDS
;	COMDAT ??_C@_0M@BPABCLGK@gamelog?4txt?$AA@
CONST	SEGMENT
??_C@_0M@BPABCLGK@gamelog?4txt?$AA@ DB 'gamelog.txt', 00H ; `string'
CONST	ENDS
;	COMDAT ??_C@_0N@KDFAGGMJ@gamelog2?4txt?$AA@
CONST	SEGMENT
??_C@_0N@KDFAGGMJ@gamelog2?4txt?$AA@ DB 'gamelog2.txt', 00H ; `string'
CONST	ENDS
;	COMDAT ??_C@_08GPPPDGBF@muzzleb1?$AA@
CONST	SEGMENT
??_C@_08GPPPDGBF@muzzleb1?$AA@ DB 'muzzleb1', 00H	; `string'
CONST	ENDS
;	COMDAT ??_C@_08GNLJIIEM@muzzlea1?$AA@
CONST	SEGMENT
??_C@_08GNLJIIEM@muzzlea1?$AA@ DB 'muzzlea1', 00H	; `string'
CONST	ENDS
;	COMDAT ??_C@_09FMEOCAPC@towhumvee?$AA@
CONST	SEGMENT
??_C@_09FMEOCAPC@towhumvee?$AA@ DB 'towhumvee', 00H	; `string'
CONST	ENDS
;	COMDAT ??_C@_09MJFDFMKK@Mobileart?$AA@
CONST	SEGMENT
??_C@_09MJFDFMKK@Mobileart?$AA@ DB 'Mobileart', 00H	; `string'
CONST	ENDS
;	COMDAT ??_C@_05MPMPJNEE@Recon?$AA@
CONST	SEGMENT
??_C@_05MPMPJNEE@Recon?$AA@ DB 'Recon', 00H		; `string'
CONST	ENDS
;	COMDAT ??_C@_05MIGDJIHC@recon?$AA@
CONST	SEGMENT
??_C@_05MIGDJIHC@recon?$AA@ DB 'recon', 00H		; `string'
CONST	ENDS
;	COMDAT ??_C@_0N@CAJHPJGE@CnC_GDI_Orca?$AA@
CONST	SEGMENT
??_C@_0N@CAJHPJGE@CnC_GDI_Orca?$AA@ DB 'CnC_GDI_Orca', 00H ; `string'
CONST	ENDS
;	COMDAT ??_C@_0BF@FDHNFNOP@CnC_GDI_Mammoth_Tank?$AA@
CONST	SEGMENT
??_C@_0BF@FDHNFNOP@CnC_GDI_Mammoth_Tank?$AA@ DB 'CnC_GDI_Mammoth_Tank', 00H ; `string'
CONST	ENDS
;	COMDAT ??_C@_0BE@MFMCCHHH@CnC_GDI_Medium_Tank?$AA@
CONST	SEGMENT
??_C@_0BE@MFMCCHHH@CnC_GDI_Medium_Tank?$AA@ DB 'CnC_GDI_Medium_Tank', 00H ; `string'
CONST	ENDS
;	COMDAT ??_C@_0N@CEAEFAJG@CnC_GDI_MRLS?$AA@
CONST	SEGMENT
??_C@_0N@CEAEFAJG@CnC_GDI_MRLS?$AA@ DB 'CnC_GDI_MRLS', 00H ; `string'
CONST	ENDS
;	COMDAT ??_C@_0M@IMFLEHKE@CnC_GDI_APC?$AA@
CONST	SEGMENT
??_C@_0M@IMFLEHKE@CnC_GDI_APC?$AA@ DB 'CnC_GDI_APC', 00H ; `string'
CONST	ENDS
;	COMDAT ??_C@_0BB@GDPFEJDE@CnC_GDI_Humm?9vee?$AA@
CONST	SEGMENT
??_C@_0BB@GDPFEJDE@CnC_GDI_Humm?9vee?$AA@ DB 'CnC_GDI_Humm-vee', 00H ; `string'
CONST	ENDS
;	COMDAT ??_C@_08HGOEAHFE@muzzleb0?$AA@
CONST	SEGMENT
??_C@_08HGOEAHFE@muzzleb0?$AA@ DB 'muzzleb0', 00H	; `string'
CONST	ENDS
;	COMDAT ??_C@_0P@OJMOCDBN@CnC_Nod_Apache?$AA@
CONST	SEGMENT
??_C@_0P@OJMOCDBN@CnC_Nod_Apache?$AA@ DB 'CnC_Nod_Apache', 00H ; `string'
CONST	ENDS
;	COMDAT ??_C@_0BD@FLILFJBA@CnC_Nod_Flame_Tank?$AA@
CONST	SEGMENT
??_C@_0BD@FLILFJBA@CnC_Nod_Flame_Tank?$AA@ DB 'CnC_Nod_Flame_Tank', 00H ; `string'
CONST	ENDS
;	COMDAT ??_C@_0BD@KFFOCKEE@CnC_Nod_Light_Tank?$AA@
CONST	SEGMENT
??_C@_0BD@KFFOCKEE@CnC_Nod_Light_Tank?$AA@ DB 'CnC_Nod_Light_Tank', 00H ; `string'
CONST	ENDS
;	COMDAT ??_C@_0BJ@JKMFPNNA@CnC_Nod_Mobile_Artillery?$AA@
CONST	SEGMENT
??_C@_0BJ@JKMFPNNA@CnC_Nod_Mobile_Artillery?$AA@ DB 'CnC_Nod_Mobile_Artil'
	DB	'lery', 00H					; `string'
CONST	ENDS
;	COMDAT ??_C@_06HIGCFHGK@barrel?$AA@
CONST	SEGMENT
??_C@_06HIGCFHGK@barrel?$AA@ DB 'barrel', 00H		; `string'
CONST	ENDS
;	COMDAT ??_C@_0M@OFJMCHAB@CnC_Nod_APC?$AA@
CONST	SEGMENT
??_C@_0M@OFJMCHAB@CnC_Nod_APC?$AA@ DB 'CnC_Nod_APC', 00H ; `string'
CONST	ENDS
;	COMDAT ??_C@_08HEKCLJAN@muzzlea0?$AA@
CONST	SEGMENT
??_C@_08HEKCLJAN@muzzlea0?$AA@ DB 'muzzlea0', 00H	; `string'
CONST	ENDS
;	COMDAT ??_C@_0O@KPJBJEBP@CnC_Nod_Buggy?$AA@
CONST	SEGMENT
??_C@_0O@KPJBJEBP@CnC_Nod_Buggy?$AA@ DB 'CnC_Nod_Buggy', 00H ; `string'
CONST	ENDS
;	COMDAT ??_C@_0BH@GDMIOCJG@?$FL?$CF02d?3?$CF02d?3?$CF02d?$FN?5?$CFs?5?$CFs?$AA@
CONST	SEGMENT
??_C@_0BH@GDMIOCJG@?$FL?$CF02d?3?$CF02d?3?$CF02d?$FN?5?$CFs?5?$CFs?$AA@ DB '['
	DB	'%02d:%02d:%02d] %s %s', 00H			; `string'
CONST	ENDS
;	COMDAT ??_C@_03OFAPEBGM@?$CFs?6?$AA@
CONST	SEGMENT
??_C@_03OFAPEBGM@?$CFs?6?$AA@ DB '%s', 0aH, 00H		; `string'
CONST	ENDS
;	COMDAT ??_C@_09GLAHALIH@?$CFs_?$CFs?4txt?$AA@
CONST	SEGMENT
??_C@_09GLAHALIH@?$CFs_?$CFs?4txt?$AA@ DB '%s_%s.txt', 00H ; `string'
CONST	ENDS
;	COMDAT ??_C@_08EDNAOKPO@_GAMELOG?$AA@
CONST	SEGMENT
??_C@_08EDNAOKPO@_GAMELOG?$AA@ DB '_GAMELOG', 00H	; `string'
CONST	ENDS
;	COMDAT ??_C@_0CH@DEDNKPN@MDB_SSGM_Destroy_When_Object_Des@
CONST	SEGMENT
??_C@_0CH@DEDNKPN@MDB_SSGM_Destroy_When_Object_Des@ DB 'MDB_SSGM_Destroy_'
	DB	'When_Object_Destroyed', 00H			; `string'
CONST	ENDS
;	COMDAT ??_C@_0N@BDLGCGMM@e_dsp_tibgas?$AA@
CONST	SEGMENT
??_C@_0N@BDLGCGMM@e_dsp_tibgas?$AA@ DB 'e_dsp_tibgas', 00H ; `string'
CONST	ENDS
;	COMDAT ??_C@_0L@INKEJDPI@ag_flame01?$AA@
CONST	SEGMENT
??_C@_0L@INKEJDPI@ag_flame01?$AA@ DB 'ag_flame01', 00H	; `string'
CONST	ENDS
;	COMDAT ??_C@_0L@GAAICAAM@ag_brlexp1?$AA@
CONST	SEGMENT
??_C@_0L@GAAICAAM@ag_brlexp1?$AA@ DB 'ag_brlexp1', 00H	; `string'
CONST	ENDS
;	COMDAT ??_C@_0N@EOCMKBEL@ag_bgwoodexp?$AA@
CONST	SEGMENT
??_C@_0N@EOCMKBEL@ag_bgwoodexp?$AA@ DB 'ag_bgwoodexp', 00H ; `string'
CONST	ENDS
;	COMDAT ??_C@_0N@BDGOMBAD@ag_smwoodexp?$AA@
CONST	SEGMENT
??_C@_0N@BDGOMBAD@ag_smwoodexp?$AA@ DB 'ag_smwoodexp', 00H ; `string'
CONST	ENDS
;	COMDAT ??_C@_0O@IPIPENLA@ag_pucreation?$AA@
CONST	SEGMENT
??_C@_0O@IPIPENLA@ag_pucreation?$AA@ DB 'ag_pucreation', 00H ; `string'
CONST	ENDS
;	COMDAT ??_C@_0BB@NHJNEILC@Invisible_Object?$AA@
CONST	SEGMENT
??_C@_0BB@NHJNEILC@Invisible_Object?$AA@ DB 'Invisible_Object', 00H ; `string'
CONST	ENDS
;	COMDAT ??_C@_05GFOLEBJA@?$CFs?1?$CFs?$AA@
CONST	SEGMENT
??_C@_05GFOLEBJA@?$CFs?1?$CFs?$AA@ DB '%s/%s', 00H	; `string'
CONST	ENDS
;	COMDAT ??_C@_09EJANBKGE@no?5string?$AA@
CONST	SEGMENT
??_C@_09EJANBKGE@no?5string?$AA@ DB 'no string', 00H	; `string'
CONST	ENDS
;	COMDAT ??_C@_06KEPEGCIE@?$CFls?5?$CFs?$AA@
CONST	SEGMENT
??_C@_06KEPEGCIE@?$CFls?5?$CFs?$AA@ DB '%ls %s', 00H	; `string'
CONST	ENDS
;	COMDAT ??_C@_09MJONCACI@No?5String?$AA@
CONST	SEGMENT
??_C@_09MJONCACI@No?5String?$AA@ DB 'No String', 00H	; `string'
CONST	ENDS
;	COMDAT ??_C@_0BC@ICKKNJCI@Translated_Preset?$AA@
CONST	SEGMENT
??_C@_0BC@ICKKNJCI@Translated_Preset?$AA@ DB 'Translated_Preset', 00H ; `string'
CONST	ENDS
;	COMDAT ??_C@_01GBGANLPD@0?$AA@
CONST	SEGMENT
??_C@_01GBGANLPD@0?$AA@ DB '0', 00H			; `string'
CONST	ENDS
;	COMDAT ??_C@_08EOMCENKK@Timed?5C4?$AA@
CONST	SEGMENT
??_C@_08EOMCENKK@Timed?5C4?$AA@ DB 'Timed C4', 00H	; `string'
CONST	ENDS
;	COMDAT ??_C@_0N@LPHHBPGP@Proximity?5C4?$AA@
CONST	SEGMENT
??_C@_0N@LPHHBPGP@Proximity?5C4?$AA@ DB 'Proximity C4', 00H ; `string'
CONST	ENDS
;	COMDAT ??_C@_09CJNFFEML@Remote?5C4?$AA@
CONST	SEGMENT
??_C@_09CJNFFEML@Remote?5C4?$AA@ DB 'Remote C4', 00H	; `string'
CONST	ENDS
;	COMDAT ??_C@_0BE@EFPMAOKO@?$FL?$CF02d?3?$CF02d?3?$CF02d?$FN?5?$CFs?$AA@
CONST	SEGMENT
??_C@_0BE@EFPMAOKO@?$FL?$CF02d?3?$CF02d?3?$CF02d?$FN?5?$CFs?$AA@ DB '[%02'
	DB	'd:%02d:%02d] %s', 00H			; `string'
CONST	ENDS
;	COMDAT ??_C@_04CFKLBGE@0?5?$CFs?$AA@
CONST	SEGMENT
??_C@_04CFKLBGE@0?5?$CFs?$AA@ DB '0 %s', 00H		; `string'
CONST	ENDS
;	COMDAT ??_C@_0O@KCPCDLGO@renlog_?$CFs?4txt?$AA@
CONST	SEGMENT
??_C@_0O@KCPCDLGO@renlog_?$CFs?4txt?$AA@ DB 'renlog_%s.txt', 00H ; `string'
CONST	ENDS
;	COMDAT ??_C@_07ECEMPDJM@General?$AA@
CONST	SEGMENT
??_C@_07ECEMPDJM@General?$AA@ DB 'General', 00H		; `string'
CONST	ENDS
;	COMDAT ??_C@_08EEOHOBEO@Settings?$AA@
CONST	SEGMENT
??_C@_08EEOHOBEO@Settings?$AA@ DB 'Settings', 00H	; `string'
CONST	ENDS
;	COMDAT ??_C@_09NBJCKKJL@MapName00?$AA@
CONST	SEGMENT
??_C@_09NBJCKKJL@MapName00?$AA@ DB 'MapName00', 00H	; `string'
CONST	ENDS
;	COMDAT ??_C@_04MLLLIHIP@null?$AA@
CONST	SEGMENT
??_C@_04MLLLIHIP@null?$AA@ DB 'null', 00H		; `string'
CONST	ENDS
;	COMDAT ??_C@_06LGMEBDBC@Server?$AA@
CONST	SEGMENT
??_C@_06LGMEBDBC@Server?$AA@ DB 'Server', 00H		; `string'
CONST	ENDS
;	COMDAT ??_C@_06LLCHJONG@Config?$AA@
CONST	SEGMENT
??_C@_06LLCHJONG@Config?$AA@ DB 'Config', 00H		; `string'
CONST	ENDS
;	COMDAT ??_C@_0P@ELFBPMOA@svrcfg_cnc?4ini?$AA@
CONST	SEGMENT
??_C@_0P@ELFBPMOA@svrcfg_cnc?4ini?$AA@ DB 'svrcfg_cnc.ini', 00H ; `string'
CONST	ENDS
;	COMDAT ??_C@_0L@CBNBBGDB@server?4ini?$AA@
CONST	SEGMENT
??_C@_0L@CBNBBGDB@server?4ini?$AA@ DB 'server.ini', 00H	; `string'
CONST	ENDS
;	COMDAT ??_C@_0N@GGBPOCJD@?4?1server?4ini?$AA@
CONST	SEGMENT
??_C@_0N@GGBPOCJD@?4?1server?4ini?$AA@ DB './server.ini', 00H ; `string'
CONST	ENDS
;	COMDAT ??_C@_0BC@NNLBOHAB@?4?1data?1server?4ini?$AA@
CONST	SEGMENT
??_C@_0BC@NNLBOHAB@?4?1data?1server?4ini?$AA@ DB './data/server.ini', 00H ; `string'
CONST	ENDS
;	COMDAT __TI3?AVfailure@ios_base@std@@
xdata$x	SEGMENT
__TI3?AVfailure@ios_base@std@@ DD 00H
	DD	FLAT:??1failure@ios_base@std@@UAE@XZ
	DD	00H
	DD	FLAT:__CTA3?AVfailure@ios_base@std@@
xdata$x	ENDS
;	COMDAT __CTA3?AVfailure@ios_base@std@@
xdata$x	SEGMENT
__CTA3?AVfailure@ios_base@std@@ DD 03H
	DD	FLAT:__CT??_R0?AVfailure@ios_base@std@@@8??0failure@ios_base@std@@QAE@ABV012@@Z40
	DD	FLAT:__CT??_R0?AVruntime_error@std@@@8??0runtime_error@std@@QAE@ABV01@@Z40
	DD	FLAT:__CT??_R0?AVexception@std@@@8??0exception@std@@QAE@ABV01@@Z12
xdata$x	ENDS
;	COMDAT __CT??_R0?AVfailure@ios_base@std@@@8??0failure@ios_base@std@@QAE@ABV012@@Z40
xdata$x	SEGMENT
__CT??_R0?AVfailure@ios_base@std@@@8??0failure@ios_base@std@@QAE@ABV012@@Z40 DD 00H
	DD	FLAT:??_R0?AVfailure@ios_base@std@@@8
	DD	00H
	DD	0ffffffffH
	ORG $+4
	DD	028H
	DD	FLAT:??0failure@ios_base@std@@QAE@ABV012@@Z
xdata$x	ENDS
;	COMDAT ??_R0?AVfailure@ios_base@std@@@8
_DATA	SEGMENT
??_R0?AVfailure@ios_base@std@@@8 DD FLAT:??_7type_info@@6B@ ; std::ios_base::failure `RTTI Type Descriptor'
	DD	00H
	DB	'.?AVfailure@ios_base@std@@', 00H
_DATA	ENDS
;	COMDAT ??_C@_0BF@OOHOMBOF@ios_base?3?3eofbit?5set?$AA@
CONST	SEGMENT
??_C@_0BF@OOHOMBOF@ios_base?3?3eofbit?5set?$AA@ DB 'ios_base::eofbit set', 00H ; `string'
CONST	ENDS
;	COMDAT ??_C@_0BG@FMKFHCIL@ios_base?3?3failbit?5set?$AA@
CONST	SEGMENT
??_C@_0BG@FMKFHCIL@ios_base?3?3failbit?5set?$AA@ DB 'ios_base::failbit se'
	DB	't', 00H					; `string'
CONST	ENDS
;	COMDAT ??_C@_0BF@PHHKMMFD@ios_base?3?3badbit?5set?$AA@
CONST	SEGMENT
??_C@_0BF@PHHKMMFD@ios_base?3?3badbit?5set?$AA@ DB 'ios_base::badbit set', 00H ; `string'
CONST	ENDS
;	COMDAT ??_C@_04LOAJBDKD@true?$AA@
CONST	SEGMENT
??_C@_04LOAJBDKD@true?$AA@ DB 'true', 00H		; `string'
CONST	ENDS
;	COMDAT ??_C@_05LAPONLG@false?$AA@
CONST	SEGMENT
??_C@_05LAPONLG@false?$AA@ DB 'false', 00H		; `string'
CONST	ENDS
;	COMDAT __CT??_R0?AVruntime_error@std@@@8??0runtime_error@std@@QAE@ABV01@@Z40
xdata$x	SEGMENT
__CT??_R0?AVruntime_error@std@@@8??0runtime_error@std@@QAE@ABV01@@Z40 DD 00H
	DD	FLAT:??_R0?AVruntime_error@std@@@8
	DD	00H
	DD	0ffffffffH
	ORG $+4
	DD	028H
	DD	FLAT:??0runtime_error@std@@QAE@ABV01@@Z
xdata$x	ENDS
;	COMDAT ??_R0?AVruntime_error@std@@@8
_DATA	SEGMENT
??_R0?AVruntime_error@std@@@8 DD FLAT:??_7type_info@@6B@ ; std::runtime_error `RTTI Type Descriptor'
	DD	00H
	DB	'.?AVruntime_error@std@@', 00H
__bad_alloc_Message DD FLAT:??_C@_0P@GHFPNOJB@bad?5allocation?$AA@
; Function compile flags: /Ogtpy
; File c:\program files\microsoft visual studio 9.0\vc\include\xlocale
;	COMDAT ??$_Maklocchr@D@std@@YADDPADABU_Cvtvec@@@Z
_TEXT	SEGMENT
??$_Maklocchr@D@std@@YADDPADABU_Cvtvec@@@Z PROC		; std::_Maklocchr<char>, COMDAT
; __Byte$ = eax

; 603  : 	return ((_Elem)(unsigned char)_Byte);
; 604  : 	}

	ret	0
??$_Maklocchr@D@std@@YADDPADABU_Cvtvec@@@Z ENDP		; std::_Maklocchr<char>
; Function compile flags: /Ogtpy
; File c:\program files\microsoft visual studio 9.0\vc\include\xlocnum
_TEXT	ENDS
;	COMDAT ?_Tidy@?$numpunct@D@std@@AAEXXZ
_TEXT	SEGMENT
?_Tidy@?$numpunct@D@std@@AAEXXZ PROC			; std::numpunct<char>::_Tidy, COMDAT
; _this$ = esi

; 191  : 		_DELETE_CRT_VEC((void *)_Grouping);

	mov	eax, DWORD PTR [esi+8]
	push	eax
	call	DWORD PTR ?RenVecDelete@@3P6AXPAX@ZA	; RenVecDelete

; 192  : 		_DELETE_CRT_VEC((void *)_Falsename);

	mov	ecx, DWORD PTR [esi+16]
	push	ecx
	call	DWORD PTR ?RenVecDelete@@3P6AXPAX@ZA	; RenVecDelete

; 193  : 		_DELETE_CRT_VEC((void *)_Truename);

	mov	edx, DWORD PTR [esi+20]
	push	edx
	call	DWORD PTR ?RenVecDelete@@3P6AXPAX@ZA	; RenVecDelete
	add	esp, 12					; 0000000cH

; 194  : 		}

	ret	0
?_Tidy@?$numpunct@D@std@@AAEXXZ ENDP			; std::numpunct<char>::_Tidy
; Function compile flags: /Ogtpy
_TEXT	ENDS
;	COMDAT ?thousands_sep@?$numpunct@D@std@@QBEDXZ
_TEXT	SEGMENT
?thousands_sep@?$numpunct@D@std@@QBEDXZ PROC		; std::numpunct<char>::thousands_sep, COMDAT
; _this$ = ecx

; 75   : 		return (do_thousands_sep());

	mov	eax, DWORD PTR [ecx]
	mov	edx, DWORD PTR [eax+8]
	jmp	edx
?thousands_sep@?$numpunct@D@std@@QBEDXZ ENDP		; std::numpunct<char>::thousands_sep
; Function compile flags: /Ogtpy
_TEXT	ENDS
;	COMDAT ?decimal_point@?$numpunct@D@std@@QBEDXZ
_TEXT	SEGMENT
?decimal_point@?$numpunct@D@std@@QBEDXZ PROC		; std::numpunct<char>::decimal_point, COMDAT
; _this$ = ecx

; 70   : 		return (do_decimal_point());

	mov	eax, DWORD PTR [ecx]
	mov	edx, DWORD PTR [eax+4]
	jmp	edx
?decimal_point@?$numpunct@D@std@@QBEDXZ ENDP		; std::numpunct<char>::decimal_point
; Function compile flags: /Ogtpy
; File c:\program files\microsoft visual studio 9.0\vc\include\streambuf
_TEXT	ENDS
;	COMDAT ??E?$ostreambuf_iterator@DU?$char_traits@D@std@@@std@@QAEAAV01@XZ
_TEXT	SEGMENT
??E?$ostreambuf_iterator@DU?$char_traits@D@std@@@std@@QAEAAV01@XZ PROC ; std::ostreambuf_iterator<char,std::char_traits<char> >::operator++, COMDAT
; _this$ = eax

; 607  : 		return (*this);
; 608  : 		}

	ret	0
??E?$ostreambuf_iterator@DU?$char_traits@D@std@@@std@@QAEAAV01@XZ ENDP ; std::ostreambuf_iterator<char,std::char_traits<char> >::operator++
; Function compile flags: /Ogtpy
_TEXT	ENDS
;	COMDAT ??D?$ostreambuf_iterator@DU?$char_traits@D@std@@@std@@QAEAAV01@XZ
_TEXT	SEGMENT
??D?$ostreambuf_iterator@DU?$char_traits@D@std@@@std@@QAEAAV01@XZ PROC ; std::ostreambuf_iterator<char,std::char_traits<char> >::operator*, COMDAT
; _this$ = eax

; 602  : 		return (*this);
; 603  : 		}

	ret	0
??D?$ostreambuf_iterator@DU?$char_traits@D@std@@@std@@QAEAAV01@XZ ENDP ; std::ostreambuf_iterator<char,std::char_traits<char> >::operator*
; Function compile flags: /Ogtpy
; File c:\program files\microsoft visual studio 9.0\vc\include\xlocnum
_TEXT	ENDS
;	COMDAT ?do_thousands_sep@?$numpunct@D@std@@MBEDXZ
_TEXT	SEGMENT
?do_thousands_sep@?$numpunct@D@std@@MBEDXZ PROC		; std::numpunct<char>::do_thousands_sep, COMDAT
; _this$ = ecx

; 170  : 		return (_Kseparator);

	mov	al, BYTE PTR [ecx+13]

; 171  : 		}

	ret	0
?do_thousands_sep@?$numpunct@D@std@@MBEDXZ ENDP		; std::numpunct<char>::do_thousands_sep
; Function compile flags: /Ogtpy
_TEXT	ENDS
;	COMDAT ?do_decimal_point@?$numpunct@D@std@@MBEDXZ
_TEXT	SEGMENT
?do_decimal_point@?$numpunct@D@std@@MBEDXZ PROC		; std::numpunct<char>::do_decimal_point, COMDAT
; _this$ = ecx

; 165  : 		return (_Dp);

	mov	al, BYTE PTR [ecx+12]

; 166  : 		}

	ret	0
?do_decimal_point@?$numpunct@D@std@@MBEDXZ ENDP		; std::numpunct<char>::do_decimal_point
; Function compile flags: /Ogtpy
_TEXT	ENDS
;	COMDAT ?_Ifmt@?$num_put@DV?$ostreambuf_iterator@DU?$char_traits@D@std@@@std@@@std@@ABAPADPADPBDH@Z
_TEXT	SEGMENT
?_Ifmt@?$num_put@DV?$ostreambuf_iterator@DU?$char_traits@D@std@@@std@@@std@@ABAPADPADPBDH@Z PROC ; std::num_put<char,std::ostreambuf_iterator<char,std::char_traits<char> > >::_Ifmt, COMDAT
; __Fmt$ = eax
; __Spec$ = edi
; __Flags$ = edx

; 1432 : 		char *_Ptr = _Fmt;
; 1433 : 		*_Ptr++ = '%';

	mov	BYTE PTR [eax], 37			; 00000025H
	lea	ecx, DWORD PTR [eax+1]

; 1434 : 
; 1435 : 		if (_Flags & ios_base::showpos)

	test	dl, 32					; 00000020H
	je	SHORT $LN4@Ifmt

; 1436 : 			*_Ptr++ = '+';

	mov	BYTE PTR [ecx], 43			; 0000002bH
	inc	ecx
$LN4@Ifmt:

; 1437 : 		if (_Flags & ios_base::showbase)

	test	dl, 8
	je	SHORT $LN3@Ifmt

; 1438 : 			*_Ptr++ = '#';

	mov	BYTE PTR [ecx], 35			; 00000023H
	inc	ecx
$LN3@Ifmt:
	push	ebx

; 1439 : 		if (_Spec[0] != 'L')

	mov	bl, BYTE PTR [edi]
	push	esi
	cmp	bl, 76					; 0000004cH
	je	SHORT $LN2@Ifmt

; 1440 : 			*_Ptr++ = _Spec[0];	// qualifier

	mov	BYTE PTR [ecx], bl

; 1441 : 		else

	jmp	SHORT $LN11@Ifmt
$LN2@Ifmt:

; 1442 : 			{	/* change L to I64 */
; 1443 : 			*_Ptr++ = 'I';

	mov	BYTE PTR [ecx], 73			; 00000049H
	inc	ecx

; 1444 : 			*_Ptr++ = '6';

	mov	BYTE PTR [ecx], 54			; 00000036H
	inc	ecx

; 1445 : 			*_Ptr++ = '4';

	mov	BYTE PTR [ecx], 52			; 00000034H
$LN11@Ifmt:

; 1446 : 			}
; 1447 : 
; 1448 : 		ios_base::fmtflags _Basefield = _Flags & ios_base::basefield;

	mov	esi, edx
	and	esi, 3584				; 00000e00H
	inc	ecx

; 1449 : 		*_Ptr++ = _Basefield == ios_base::oct ? 'o'
; 1450 : 			: _Basefield != ios_base::hex ? _Spec[1]	// 'd' or 'u'
; 1451 : 			: _Flags & ios_base::uppercase ? 'X' : 'x';

	cmp	esi, 1024				; 00000400H
	jne	SHORT $LN9@Ifmt
	mov	dl, 111					; 0000006fH
	pop	esi
	mov	BYTE PTR [ecx], dl

; 1452 : 		*_Ptr = '\0';

	mov	BYTE PTR [ecx+1], 0
	pop	ebx

; 1453 : 		return (_Fmt);
; 1454 : 		}

	ret	0
$LN9@Ifmt:

; 1449 : 		*_Ptr++ = _Basefield == ios_base::oct ? 'o'
; 1450 : 			: _Basefield != ios_base::hex ? _Spec[1]	// 'd' or 'u'
; 1451 : 			: _Flags & ios_base::uppercase ? 'X' : 'x';

	cmp	esi, 2048				; 00000800H
	je	SHORT $LN7@Ifmt
	mov	dl, BYTE PTR [edi+1]
	pop	esi
	mov	BYTE PTR [ecx], dl

; 1452 : 		*_Ptr = '\0';

	mov	BYTE PTR [ecx+1], 0
	pop	ebx

; 1453 : 		return (_Fmt);
; 1454 : 		}

	ret	0
$LN7@Ifmt:

; 1449 : 		*_Ptr++ = _Basefield == ios_base::oct ? 'o'
; 1450 : 			: _Basefield != ios_base::hex ? _Spec[1]	// 'd' or 'u'
; 1451 : 			: _Flags & ios_base::uppercase ? 'X' : 'x';

	add	dl, dl
	add	dl, dl
	add	dl, dl
	not	dl
	and	dl, 32					; 00000020H
	or	dl, 88					; 00000058H
	pop	esi
	mov	BYTE PTR [ecx], dl

; 1452 : 		*_Ptr = '\0';

	mov	BYTE PTR [ecx+1], 0
	pop	ebx

; 1453 : 		return (_Fmt);
; 1454 : 		}

	ret	0
?_Ifmt@?$num_put@DV?$ostreambuf_iterator@DU?$char_traits@D@std@@@std@@@std@@ABAPADPADPBDH@Z ENDP ; std::num_put<char,std::ostreambuf_iterator<char,std::char_traits<char> > >::_Ifmt
; Function compile flags: /Ogtpy
_TEXT	ENDS
;	COMDAT ?_Ffmt@?$num_put@DV?$ostreambuf_iterator@DU?$char_traits@D@std@@@std@@@std@@ABAPADPADDH@Z
_TEXT	SEGMENT
__Spec$ = 8						; size = 1
?_Ffmt@?$num_put@DV?$ostreambuf_iterator@DU?$char_traits@D@std@@@std@@@std@@ABAPADPADDH@Z PROC ; std::num_put<char,std::ostreambuf_iterator<char,std::char_traits<char> > >::_Ffmt, COMDAT
; __Fmt$ = eax
; __Flags$ = edx

; 1288 : 		{	// generate sprintf format for floating-point

	push	ebx
	mov	bl, BYTE PTR __Spec$[esp]

; 1289 : 		char *_Ptr = _Fmt;
; 1290 : 		*_Ptr++ = '%';

	mov	BYTE PTR [eax], 37			; 00000025H
	lea	ecx, DWORD PTR [eax+1]

; 1291 : 
; 1292 : 		if (_Flags & ios_base::showpos)

	test	dl, 32					; 00000020H
	je	SHORT $LN3@Ffmt

; 1293 : 			*_Ptr++ = '+';

	mov	BYTE PTR [ecx], 43			; 0000002bH
	inc	ecx
$LN3@Ffmt:

; 1294 : 		if (_Flags & ios_base::showpoint)

	test	dl, 16					; 00000010H
	je	SHORT $LN2@Ffmt

; 1295 : 			*_Ptr++ = '#';

	mov	BYTE PTR [ecx], 35			; 00000023H
	inc	ecx
$LN2@Ffmt:

; 1296 : 		*_Ptr++ = '.';

	mov	BYTE PTR [ecx], 46			; 0000002eH
	inc	ecx

; 1297 : 		*_Ptr++ = '*';	// for precision argument

	mov	BYTE PTR [ecx], 42			; 0000002aH
	inc	ecx

; 1298 : 		if (_Spec != '\0')

	test	bl, bl
	je	SHORT $LN1@Ffmt

; 1299 : 			*_Ptr++ = _Spec;	// 'L' qualifier for long double only

	mov	BYTE PTR [ecx], bl
	inc	ecx
$LN1@Ffmt:

; 1300 : 
; 1301 : 		ios_base::fmtflags _Ffl = _Flags & ios_base::floatfield;

	and	edx, 12288				; 00003000H
	pop	ebx

; 1302 : 		*_Ptr++ = _Ffl == ios_base::fixed ? 'f'
; 1303 : 			: _Ffl == ios_base::hexfloat ? 'a'	// added with TR1
; 1304 : 			: _Ffl == ios_base::scientific ? 'e' : 'g';	// specifier

	cmp	edx, 8192				; 00002000H
	jne	SHORT $LN8@Ffmt
	mov	dl, 102					; 00000066H
	mov	BYTE PTR [ecx], dl

; 1305 : 		*_Ptr = '\0';

	mov	BYTE PTR [ecx+1], 0

; 1306 : 		return (_Fmt);
; 1307 : 		}

	ret	0
$LN8@Ffmt:

; 1302 : 		*_Ptr++ = _Ffl == ios_base::fixed ? 'f'
; 1303 : 			: _Ffl == ios_base::hexfloat ? 'a'	// added with TR1
; 1304 : 			: _Ffl == ios_base::scientific ? 'e' : 'g';	// specifier

	cmp	edx, 12288				; 00003000H
	jne	SHORT $LN6@Ffmt
	mov	dl, 97					; 00000061H
	mov	BYTE PTR [ecx], dl

; 1305 : 		*_Ptr = '\0';

	mov	BYTE PTR [ecx+1], 0

; 1306 : 		return (_Fmt);
; 1307 : 		}

	ret	0
$LN6@Ffmt:

; 1302 : 		*_Ptr++ = _Ffl == ios_base::fixed ? 'f'
; 1303 : 			: _Ffl == ios_base::hexfloat ? 'a'	// added with TR1
; 1304 : 			: _Ffl == ios_base::scientific ? 'e' : 'g';	// specifier

	cmp	edx, 4096				; 00001000H
	setne	dl
	lea	edx, DWORD PTR [edx+edx+101]
	mov	BYTE PTR [ecx], dl

; 1305 : 		*_Ptr = '\0';

	mov	BYTE PTR [ecx+1], 0

; 1306 : 		return (_Fmt);
; 1307 : 		}

	ret	0
?_Ffmt@?$num_put@DV?$ostreambuf_iterator@DU?$char_traits@D@std@@@std@@@std@@ABAPADPADDH@Z ENDP ; std::num_put<char,std::ostreambuf_iterator<char,std::char_traits<char> > >::_Ffmt
; Function compile flags: /Ogtpy
; File c:\program files\microsoft visual studio 9.0\vc\include\xlocale
_TEXT	ENDS
;	COMDAT ?_Init@?$codecvt@DDH@std@@IAEXABV_Locinfo@2@@Z
_TEXT	SEGMENT
?_Init@?$codecvt@DDH@std@@IAEXABV_Locinfo@2@@Z PROC	; std::codecvt<char,char,int>::_Init, COMDAT

; 798  : 		}

	ret	0
?_Init@?$codecvt@DDH@std@@IAEXABV_Locinfo@2@@Z ENDP	; std::codecvt<char,char,int>::_Init
; Function compile flags: /Ogtpy
; File c:\program files\microsoft visual studio 9.0\vc\include\streambuf
_TEXT	ENDS
;	COMDAT ?setp@?$basic_streambuf@DU?$char_traits@D@std@@@std@@IAEXPAD00@Z
_TEXT	SEGMENT
_this$ = 8						; size = 4
?setp@?$basic_streambuf@DU?$char_traits@D@std@@@std@@IAEXPAD00@Z PROC ; std::basic_streambuf<char,std::char_traits<char> >::setp, COMDAT
; __First$ = edi
; __Next$ = edx
; __Last$ = eax

; 263  : 		{	// set pointers for write buffer, extended version

	mov	ecx, DWORD PTR _this$[esp-4]
	push	esi

; 264  : 		*_IPfirst = _First;

	mov	esi, DWORD PTR [ecx+20]
	mov	DWORD PTR [esi], edi

; 265  : 		*_IPnext = _Next;

	mov	esi, DWORD PTR [ecx+36]
	mov	DWORD PTR [esi], edx

; 266  : 		*_IPcount = (int)(_Last - _Next);

	mov	ecx, DWORD PTR [ecx+52]
	sub	eax, edx
	mov	DWORD PTR [ecx], eax
	pop	esi

; 267  : 		}

	ret	4
?setp@?$basic_streambuf@DU?$char_traits@D@std@@@std@@IAEXPAD00@Z ENDP ; std::basic_streambuf<char,std::char_traits<char> >::setp
; Function compile flags: /Ogtpy
_TEXT	ENDS
;	COMDAT ?pbase@?$basic_streambuf@DU?$char_traits@D@std@@@std@@IBEPADXZ
_TEXT	SEGMENT
?pbase@?$basic_streambuf@DU?$char_traits@D@std@@@std@@IBEPADXZ PROC ; std::basic_streambuf<char,std::char_traits<char> >::pbase, COMDAT
; _this$ = eax

; 195  : 		return (*_IPfirst);

	mov	ecx, DWORD PTR [eax+20]
	mov	eax, DWORD PTR [ecx]

; 196  : 		}

	ret	0
?pbase@?$basic_streambuf@DU?$char_traits@D@std@@@std@@IBEPADXZ ENDP ; std::basic_streambuf<char,std::char_traits<char> >::pbase
; Function compile flags: /Ogtpy
_TEXT	ENDS
;	COMDAT ?setp@?$basic_streambuf@DU?$char_traits@D@std@@@std@@IAEXPAD0@Z
_TEXT	SEGMENT
_this$ = 8						; size = 4
?setp@?$basic_streambuf@DU?$char_traits@D@std@@@std@@IAEXPAD0@Z PROC ; std::basic_streambuf<char,std::char_traits<char> >::setp, COMDAT
; __First$ = ecx
; __Last$ = eax

; 256  : 		{	// set pointers for write buffer

	mov	edx, DWORD PTR _this$[esp-4]
	push	esi

; 257  : 		*_IPfirst = _First;

	mov	esi, DWORD PTR [edx+20]
	mov	DWORD PTR [esi], ecx

; 258  : 		*_IPnext = _First;

	mov	esi, DWORD PTR [edx+36]
	mov	DWORD PTR [esi], ecx

; 259  : 		*_IPcount = (int)(_Last - _First);

	sub	eax, ecx
	mov	ecx, DWORD PTR [edx+52]
	mov	DWORD PTR [ecx], eax
	pop	esi

; 260  : 		}

	ret	4
?setp@?$basic_streambuf@DU?$char_traits@D@std@@@std@@IAEXPAD0@Z ENDP ; std::basic_streambuf<char,std::char_traits<char> >::setp
; Function compile flags: /Ogtpy
; File c:\program files\microsoft visual studio 9.0\vc\include\xlocale
_TEXT	ENDS
;	COMDAT ?unshift@?$codecvt@DDH@std@@QBEHAAHPAD1AAPAD@Z
_TEXT	SEGMENT
__State$ = 8						; size = 4
__First2$ = 12						; size = 4
__Last2$ = 16						; size = 4
?unshift@?$codecvt@DDH@std@@QBEHAAHPAD1AAPAD@Z PROC	; std::codecvt<char,char,int>::unshift, COMDAT
; _this$ = ecx
; __Mid2$ = edx

; 756  : 		return (do_unshift(_State, _First2, _Last2, _Mid2));

	mov	eax, DWORD PTR [ecx]
	mov	eax, DWORD PTR [eax+24]
	push	edx
	mov	edx, DWORD PTR __Last2$[esp]
	push	edx
	mov	edx, DWORD PTR __First2$[esp+4]
	push	edx
	mov	edx, DWORD PTR __State$[esp+8]
	push	edx
	call	eax

; 757  : 		}

	ret	12					; 0000000cH
?unshift@?$codecvt@DDH@std@@QBEHAAHPAD1AAPAD@Z ENDP	; std::codecvt<char,char,int>::unshift
; Function compile flags: /Ogtpy
; File c:\program files\microsoft visual studio 9.0\vc\include\streambuf
_TEXT	ENDS
;	COMDAT ?_Init@?$basic_streambuf@DU?$char_traits@D@std@@@std@@IAEXPAPAD0PAH001@Z
_TEXT	SEGMENT
__Gn$ = 8						; size = 4
__Gc$ = 12						; size = 4
__Pf$ = 16						; size = 4
__Pn$ = 20						; size = 4
__Pc$ = 24						; size = 4
?_Init@?$basic_streambuf@DU?$char_traits@D@std@@@std@@IAEXPAPAD0PAH001@Z PROC ; std::basic_streambuf<char,std::char_traits<char> >::_Init, COMDAT
; _this$ = eax
; __Gf$ = ecx

; 291  : 		_IGfirst = _Gf, _IPfirst = _Pf;

	mov	edx, DWORD PTR __Pf$[esp-4]
	mov	DWORD PTR [eax+16], ecx

; 292  : 		_IGnext = _Gn, _IPnext = _Pn;

	mov	ecx, DWORD PTR __Gn$[esp-4]
	mov	DWORD PTR [eax+20], edx
	mov	edx, DWORD PTR __Pn$[esp-4]
	mov	DWORD PTR [eax+32], ecx

; 293  : 		_IGcount = _Gc, _IPcount = _Pc;

	mov	ecx, DWORD PTR __Gc$[esp-4]
	mov	DWORD PTR [eax+36], edx
	mov	edx, DWORD PTR __Pc$[esp-4]
	mov	DWORD PTR [eax+48], ecx
	mov	DWORD PTR [eax+52], edx

; 294  : 		}

	ret	20					; 00000014H
?_Init@?$basic_streambuf@DU?$char_traits@D@std@@@std@@IAEXPAPAD0PAH001@Z ENDP ; std::basic_streambuf<char,std::char_traits<char> >::_Init
; Function compile flags: /Ogtpy
_TEXT	ENDS
;	COMDAT ?_Lock@?$basic_streambuf@DU?$char_traits@D@std@@@std@@QAEXXZ
_TEXT	SEGMENT
?_Lock@?$basic_streambuf@DU?$char_traits@D@std@@@std@@QAEXXZ PROC ; std::basic_streambuf<char,std::char_traits<char> >::_Lock, COMDAT
; _this$ = ecx

; 173  : 		_Mylock._Lock();

	add	ecx, 4
	jmp	?_Lock@_Mutex@std@@QAEXXZ		; std::_Mutex::_Lock
?_Lock@?$basic_streambuf@DU?$char_traits@D@std@@@std@@QAEXXZ ENDP ; std::basic_streambuf<char,std::char_traits<char> >::_Lock
; Function compile flags: /Ogtpy
; File c:\program files\microsoft visual studio 9.0\vc\include\ios
_TEXT	ENDS
;	COMDAT ?tie@?$basic_ios@DU?$char_traits@D@std@@@std@@QBEPAV?$basic_ostream@DU?$char_traits@D@std@@@2@XZ
_TEXT	SEGMENT
?tie@?$basic_ios@DU?$char_traits@D@std@@@std@@QBEPAV?$basic_ostream@DU?$char_traits@D@std@@@2@XZ PROC ; std::basic_ios<char,std::char_traits<char> >::tie, COMDAT
; _this$ = eax

; 73   : 		return (_Tiestr);

	mov	eax, DWORD PTR [eax+44]

; 74   : 		}

	ret	0
?tie@?$basic_ios@DU?$char_traits@D@std@@@std@@QBEPAV?$basic_ostream@DU?$char_traits@D@std@@@2@XZ ENDP ; std::basic_ios<char,std::char_traits<char> >::tie
; Function compile flags: /Ogtpy
; File c:\program files\microsoft visual studio 9.0\vc\include\xlocale
_TEXT	ENDS
;	COMDAT ?do_length@?$codecvt@DDH@std@@MBEHABHPBD1I@Z
_TEXT	SEGMENT
___formal$ = 8						; size = 4
__First1$ = 12						; size = 4
__Last1$ = 16						; size = 4
__Count$ = 20						; size = 4
?do_length@?$codecvt@DDH@std@@MBEHABHPBD1I@Z PROC	; std::codecvt<char,char,int>::do_length, COMDAT
; _this$ = ecx

; 826  : 		return ((int)(_Count < (size_t)(_Last1 - _First1)
; 827  : 			? _Count : _Last1 - _First1));	// assume 1-to-1 conversion

	mov	eax, DWORD PTR __Last1$[esp-4]
	sub	eax, DWORD PTR __First1$[esp-4]
	mov	ecx, DWORD PTR __Count$[esp-4]
	cmp	ecx, eax
	jae	SHORT $LN4@do_length
	mov	eax, ecx
$LN4@do_length:

; 828  : 		}

	ret	16					; 00000010H
?do_length@?$codecvt@DDH@std@@MBEHABHPBD1I@Z ENDP	; std::codecvt<char,char,int>::do_length
; Function compile flags: /Ogtpy
_TEXT	ENDS
;	COMDAT ?do_unshift@?$codecvt@DDH@std@@MBEHAAHPAD1AAPAD@Z
_TEXT	SEGMENT
___formal$ = 8						; size = 4
__First2$ = 12						; size = 4
___formal$ = 16						; size = 4
__Mid2$ = 20						; size = 4
?do_unshift@?$codecvt@DDH@std@@MBEHAAHPAD1AAPAD@Z PROC	; std::codecvt<char,char,int>::do_unshift, COMDAT
; _this$ = ecx

; 819  : 		_Mid2 = _First2;

	mov	eax, DWORD PTR __Mid2$[esp-4]
	mov	ecx, DWORD PTR __First2$[esp-4]
	mov	DWORD PTR [eax], ecx

; 820  : 		return (noconv);	// convert nothing

	mov	eax, 3

; 821  : 		}

	ret	16					; 00000010H
?do_unshift@?$codecvt@DDH@std@@MBEHAAHPAD1AAPAD@Z ENDP	; std::codecvt<char,char,int>::do_unshift
; Function compile flags: /Ogtpy
_TEXT	ENDS
;	COMDAT ?do_out@?$codecvt@DDH@std@@MBEHAAHPBD1AAPBDPAD3AAPAD@Z
_TEXT	SEGMENT
___formal$ = 8						; size = 4
__First1$ = 12						; size = 4
___formal$ = 16						; size = 4
__Mid1$ = 20						; size = 4
__First2$ = 24						; size = 4
___formal$ = 28						; size = 4
__Mid2$ = 32						; size = 4
?do_out@?$codecvt@DDH@std@@MBEHAAHPBD1AAPBDPAD3AAPAD@Z PROC ; std::codecvt<char,char,int>::do_out, COMDAT
; _this$ = ecx

; 812  : 		_Mid1 = _First1, _Mid2 = _First2;

	mov	eax, DWORD PTR __Mid1$[esp-4]
	mov	ecx, DWORD PTR __First1$[esp-4]
	mov	edx, DWORD PTR __Mid2$[esp-4]
	mov	DWORD PTR [eax], ecx
	mov	eax, DWORD PTR __First2$[esp-4]
	mov	DWORD PTR [edx], eax

; 813  : 		return (noconv);	// convert nothing

	mov	eax, 3

; 814  : 		}

	ret	28					; 0000001cH
?do_out@?$codecvt@DDH@std@@MBEHAAHPBD1AAPBDPAD3AAPAD@Z ENDP ; std::codecvt<char,char,int>::do_out
; Function compile flags: /Ogtpy
_TEXT	ENDS
;	COMDAT ?do_in@?$codecvt@DDH@std@@MBEHAAHPBD1AAPBDPAD3AAPAD@Z
_TEXT	SEGMENT
___formal$ = 8						; size = 4
__First1$ = 12						; size = 4
___formal$ = 16						; size = 4
__Mid1$ = 20						; size = 4
__First2$ = 24						; size = 4
___formal$ = 28						; size = 4
__Mid2$ = 32						; size = 4
?do_in@?$codecvt@DDH@std@@MBEHAAHPBD1AAPBDPAD3AAPAD@Z PROC ; std::codecvt<char,char,int>::do_in, COMDAT
; _this$ = ecx

; 804  : 		_Mid1 = _First1, _Mid2 = _First2;

	mov	eax, DWORD PTR __Mid1$[esp-4]
	mov	ecx, DWORD PTR __First1$[esp-4]
	mov	edx, DWORD PTR __Mid2$[esp-4]
	mov	DWORD PTR [eax], ecx
	mov	eax, DWORD PTR __First2$[esp-4]
	mov	DWORD PTR [edx], eax

; 805  : 		return (noconv);	// convert nothing

	mov	eax, 3

; 806  : 		}

	ret	28					; 0000001cH
?do_in@?$codecvt@DDH@std@@MBEHAAHPBD1AAPBDPAD3AAPAD@Z ENDP ; std::codecvt<char,char,int>::do_in
; Function compile flags: /Ogtpy
_TEXT	ENDS
;	COMDAT ?out@?$codecvt@DDH@std@@QBEHAAHPBD1AAPBDPAD3AAPAD@Z
_TEXT	SEGMENT
__State$ = 8						; size = 4
__First1$ = 12						; size = 4
__Last1$ = 16						; size = 4
__Mid1$ = 20						; size = 4
__First2$ = 24						; size = 4
__Last2$ = 28						; size = 4
?out@?$codecvt@DDH@std@@QBEHAAHPBD1AAPBDPAD3AAPAD@Z PROC ; std::codecvt<char,char,int>::out, COMDAT
; _this$ = ecx
; __Mid2$ = edx

; 749  : 		return (do_out(_State,
; 750  : 			_First1, _Last1, _Mid1, _First2, _Last2, _Mid2));

	mov	eax, DWORD PTR [ecx]
	mov	eax, DWORD PTR [eax+20]
	push	edx
	mov	edx, DWORD PTR __Last2$[esp]
	push	edx
	mov	edx, DWORD PTR __First2$[esp+4]
	push	edx
	mov	edx, DWORD PTR __Mid1$[esp+8]
	push	edx
	mov	edx, DWORD PTR __Last1$[esp+12]
	push	edx
	mov	edx, DWORD PTR __First1$[esp+16]
	push	edx
	mov	edx, DWORD PTR __State$[esp+20]
	push	edx
	call	eax

; 751  : 		}

	ret	24					; 00000018H
?out@?$codecvt@DDH@std@@QBEHAAHPBD1AAPBDPAD3AAPAD@Z ENDP ; std::codecvt<char,char,int>::out
; Function compile flags: /Ogtpy
_TEXT	ENDS
;	COMDAT ?in@?$codecvt@DDH@std@@QBEHAAHPBD1AAPBDPAD3AAPAD@Z
_TEXT	SEGMENT
__State$ = 8						; size = 4
__First1$ = 12						; size = 4
__Last1$ = 16						; size = 4
__Mid1$ = 20						; size = 4
__First2$ = 24						; size = 4
__Last2$ = 28						; size = 4
?in@?$codecvt@DDH@std@@QBEHAAHPBD1AAPBDPAD3AAPAD@Z PROC	; std::codecvt<char,char,int>::in, COMDAT
; _this$ = ecx
; __Mid2$ = edx

; 741  : 		return (do_in(_State,
; 742  : 			_First1, _Last1, _Mid1, _First2, _Last2, _Mid2));

	mov	eax, DWORD PTR [ecx]
	mov	eax, DWORD PTR [eax+16]
	push	edx
	mov	edx, DWORD PTR __Last2$[esp]
	push	edx
	mov	edx, DWORD PTR __First2$[esp+4]
	push	edx
	mov	edx, DWORD PTR __Mid1$[esp+8]
	push	edx
	mov	edx, DWORD PTR __Last1$[esp+12]
	push	edx
	mov	edx, DWORD PTR __First1$[esp+16]
	push	edx
	mov	edx, DWORD PTR __State$[esp+20]
	push	edx
	call	eax

; 743  : 		}

	ret	24					; 00000018H
?in@?$codecvt@DDH@std@@QBEHAAHPBD1AAPBDPAD3AAPAD@Z ENDP	; std::codecvt<char,char,int>::in
; Function compile flags: /Ogtpy
; File c:\program files\microsoft visual studio 9.0\vc\include\iosfwd
_TEXT	ENDS
;	COMDAT ??B?$fpos@H@std@@QBEJXZ
_TEXT	SEGMENT
??B?$fpos@H@std@@QBEJXZ PROC				; std::fpos<int>::operator long, COMDAT
; _this$ = ecx

; 79   : 		return ((streamoff)(_Myoff + _FPOSOFF(_Fpos)));

	mov	eax, DWORD PTR [ecx+8]
	add	eax, DWORD PTR [ecx]

; 80   : 		}

	ret	0
??B?$fpos@H@std@@QBEJXZ ENDP				; std::fpos<int>::operator long
; Function compile flags: /Ogtpy
_TEXT	ENDS
;	COMDAT ?seekpos@?$fpos@H@std@@QBE_JXZ
_TEXT	SEGMENT
?seekpos@?$fpos@H@std@@QBE_JXZ PROC			; std::fpos<int>::seekpos, COMDAT
; _this$ = ecx

; 74   : 		return (_Fpos);

	mov	eax, DWORD PTR [ecx+8]
	mov	edx, DWORD PTR [ecx+12]

; 75   : 		}

	ret	0
?seekpos@?$fpos@H@std@@QBE_JXZ ENDP			; std::fpos<int>::seekpos
; Function compile flags: /Ogtpy
_TEXT	ENDS
;	COMDAT ?state@?$fpos@H@std@@QBEHXZ
_TEXT	SEGMENT
?state@?$fpos@H@std@@QBEHXZ PROC			; std::fpos<int>::state, COMDAT
; _this$ = eax

; 64   : 		return (_Mystate);

	mov	eax, DWORD PTR [eax+16]

; 65   : 		}

	ret	0
?state@?$fpos@H@std@@QBEHXZ ENDP			; std::fpos<int>::state
; Function compile flags: /Ogtpy
_TEXT	ENDS
;	COMDAT ??0?$fpos@H@std@@QAE@H_J@Z
_TEXT	SEGMENT
__State$ = 8						; size = 4
__Fileposition$ = 12					; size = 8
??0?$fpos@H@std@@QAE@H_J@Z PROC				; std::fpos<int>::fpos<int>, COMDAT
; _this$ = eax

; 59   : 		{	// construct with conversion state and C file position

	mov	ecx, DWORD PTR __Fileposition$[esp-4]
	mov	edx, DWORD PTR __Fileposition$[esp]
	mov	DWORD PTR [eax+8], ecx
	mov	ecx, DWORD PTR __State$[esp-4]
	mov	DWORD PTR [eax], 0
	mov	DWORD PTR [eax+12], edx
	mov	DWORD PTR [eax+16], ecx

; 60   : 		}

	ret	12					; 0000000cH
??0?$fpos@H@std@@QAE@H_J@Z ENDP				; std::fpos<int>::fpos<int>
; Function compile flags: /Ogtpy
_TEXT	ENDS
;	COMDAT ??0?$fpos@H@std@@QAE@J@Z
_TEXT	SEGMENT
??0?$fpos@H@std@@QAE@J@Z PROC				; std::fpos<int>::fpos<int>, COMDAT
; _this$ = eax
; __Off$ = ecx

; 54   : 		{	// construct with stream offset

	mov	DWORD PTR [eax], ecx
	xor	ecx, ecx
	mov	DWORD PTR [eax+8], ecx
	mov	DWORD PTR [eax+12], ecx
	mov	DWORD PTR [eax+16], ecx

; 55   : 		}

	ret	0
??0?$fpos@H@std@@QAE@J@Z ENDP				; std::fpos<int>::fpos<int>
; Function compile flags: /Ogtpy
; File c:\program files\microsoft visual studio 9.0\vc\include\ostream
_TEXT	ENDS
;	COMDAT ??Bsentry@?$basic_ostream@DU?$char_traits@D@std@@@std@@QBE_NXZ
_TEXT	SEGMENT
??Bsentry@?$basic_ostream@DU?$char_traits@D@std@@@std@@QBE_NXZ PROC ; std::basic_ostream<char,std::char_traits<char> >::sentry::operator bool, COMDAT
; _this$ = eax

; 116  : 			return (_Ok);

	mov	al, BYTE PTR [eax+4]

; 117  : 			}

	ret	0
??Bsentry@?$basic_ostream@DU?$char_traits@D@std@@@std@@QBE_NXZ ENDP ; std::basic_ostream<char,std::char_traits<char> >::sentry::operator bool
; Function compile flags: /Ogtpy
; File c:\program files\microsoft visual studio 9.0\vc\include\streambuf
_TEXT	ENDS
;	COMDAT ?_Pnavail@?$basic_streambuf@DU?$char_traits@D@std@@@std@@IBEHXZ
_TEXT	SEGMENT
?_Pnavail@?$basic_streambuf@DU?$char_traits@D@std@@@std@@IBEHXZ PROC ; std::basic_streambuf<char,std::char_traits<char> >::_Pnavail, COMDAT
; _this$ = eax

; 277  : 		return (*_IPnext != 0 ? *_IPcount : 0);

	mov	ecx, DWORD PTR [eax+36]
	cmp	DWORD PTR [ecx], 0
	je	SHORT $LN3@Pnavail
	mov	edx, DWORD PTR [eax+52]
	mov	eax, DWORD PTR [edx]

; 278  : 		}

	ret	0
$LN3@Pnavail:

; 277  : 		return (*_IPnext != 0 ? *_IPcount : 0);

	xor	eax, eax

; 278  : 		}

	ret	0
?_Pnavail@?$basic_streambuf@DU?$char_traits@D@std@@@std@@IBEHXZ ENDP ; std::basic_streambuf<char,std::char_traits<char> >::_Pnavail
; Function compile flags: /Ogtpy
_TEXT	ENDS
;	COMDAT ?_Pninc@?$basic_streambuf@DU?$char_traits@D@std@@@std@@IAEPADXZ
_TEXT	SEGMENT
?_Pninc@?$basic_streambuf@DU?$char_traits@D@std@@@std@@IAEPADXZ PROC ; std::basic_streambuf<char,std::char_traits<char> >::_Pninc, COMDAT
; _this$ = ecx

; 271  : 		--*_IPcount;

	mov	eax, DWORD PTR [ecx+52]
	dec	DWORD PTR [eax]

; 272  : 		return ((*_IPnext)++);

	mov	ecx, DWORD PTR [ecx+36]
	mov	eax, DWORD PTR [ecx]
	lea	edx, DWORD PTR [eax+1]
	mov	DWORD PTR [ecx], edx

; 273  : 		}

	ret	0
?_Pninc@?$basic_streambuf@DU?$char_traits@D@std@@@std@@IAEPADXZ ENDP ; std::basic_streambuf<char,std::char_traits<char> >::_Pninc
; Function compile flags: /Ogtpy
_TEXT	ENDS
;	COMDAT ?pbump@?$basic_streambuf@DU?$char_traits@D@std@@@std@@IAEXH@Z
_TEXT	SEGMENT
?pbump@?$basic_streambuf@DU?$char_traits@D@std@@@std@@IAEXH@Z PROC ; std::basic_streambuf<char,std::char_traits<char> >::pbump, COMDAT
; _this$ = edx
; __Off$ = ecx

; 251  : 		*_IPcount -= _Off;

	mov	eax, DWORD PTR [edx+52]
	sub	DWORD PTR [eax], ecx

; 252  : 		*_IPnext += _Off;

	mov	eax, DWORD PTR [edx+36]
	add	DWORD PTR [eax], ecx

; 253  : 		}

	ret	0
?pbump@?$basic_streambuf@DU?$char_traits@D@std@@@std@@IAEXH@Z ENDP ; std::basic_streambuf<char,std::char_traits<char> >::pbump
; Function compile flags: /Ogtpy
_TEXT	ENDS
;	COMDAT ?_Gnavail@?$basic_streambuf@DU?$char_traits@D@std@@@std@@IBEHXZ
_TEXT	SEGMENT
?_Gnavail@?$basic_streambuf@DU?$char_traits@D@std@@@std@@IBEHXZ PROC ; std::basic_streambuf<char,std::char_traits<char> >::_Gnavail, COMDAT
; _this$ = eax

; 246  : 		return (*_IGnext != 0 ? *_IGcount : 0);

	mov	ecx, DWORD PTR [eax+32]
	cmp	DWORD PTR [ecx], 0
	je	SHORT $LN3@Gnavail
	mov	edx, DWORD PTR [eax+48]
	mov	eax, DWORD PTR [edx]

; 247  : 		}

	ret	0
$LN3@Gnavail:

; 246  : 		return (*_IGnext != 0 ? *_IGcount : 0);

	xor	eax, eax

; 247  : 		}

	ret	0
?_Gnavail@?$basic_streambuf@DU?$char_traits@D@std@@@std@@IBEHXZ ENDP ; std::basic_streambuf<char,std::char_traits<char> >::_Gnavail
; Function compile flags: /Ogtpy
_TEXT	ENDS
;	COMDAT ?_Gninc@?$basic_streambuf@DU?$char_traits@D@std@@@std@@IAEPADXZ
_TEXT	SEGMENT
?_Gninc@?$basic_streambuf@DU?$char_traits@D@std@@@std@@IAEPADXZ PROC ; std::basic_streambuf<char,std::char_traits<char> >::_Gninc, COMDAT
; _this$ = ecx

; 234  : 		--*_IGcount;

	mov	eax, DWORD PTR [ecx+48]
	dec	DWORD PTR [eax]

; 235  : 		return ((*_IGnext)++);

	mov	ecx, DWORD PTR [ecx+32]
	mov	eax, DWORD PTR [ecx]
	lea	edx, DWORD PTR [eax+1]
	mov	DWORD PTR [ecx], edx

; 236  : 		}

	ret	0
?_Gninc@?$basic_streambuf@DU?$char_traits@D@std@@@std@@IAEPADXZ ENDP ; std::basic_streambuf<char,std::char_traits<char> >::_Gninc
; Function compile flags: /Ogtpy
_TEXT	ENDS
;	COMDAT ?_Gndec@?$basic_streambuf@DU?$char_traits@D@std@@@std@@IAEPADXZ
_TEXT	SEGMENT
?_Gndec@?$basic_streambuf@DU?$char_traits@D@std@@@std@@IAEPADXZ PROC ; std::basic_streambuf<char,std::char_traits<char> >::_Gndec, COMDAT
; _this$ = eax

; 228  : 		++*_IGcount;

	mov	ecx, DWORD PTR [eax+48]
	inc	DWORD PTR [ecx]

; 229  : 		return (--*_IGnext);

	mov	ecx, DWORD PTR [eax+32]
	dec	DWORD PTR [ecx]
	mov	eax, DWORD PTR [eax+32]
	mov	eax, DWORD PTR [eax]

; 230  : 		}

	ret	0
?_Gndec@?$basic_streambuf@DU?$char_traits@D@std@@@std@@IAEPADXZ ENDP ; std::basic_streambuf<char,std::char_traits<char> >::_Gndec
; Function compile flags: /Ogtpy
_TEXT	ENDS
;	COMDAT ?epptr@?$basic_streambuf@DU?$char_traits@D@std@@@std@@IBEPADXZ
_TEXT	SEGMENT
?epptr@?$basic_streambuf@DU?$char_traits@D@std@@@std@@IBEPADXZ PROC ; std::basic_streambuf<char,std::char_traits<char> >::epptr, COMDAT
; _this$ = eax

; 223  : 		return (*_IPnext + *_IPcount);

	mov	ecx, DWORD PTR [eax+52]
	mov	edx, DWORD PTR [eax+36]
	mov	eax, DWORD PTR [ecx]
	add	eax, DWORD PTR [edx]

; 224  : 		}

	ret	0
?epptr@?$basic_streambuf@DU?$char_traits@D@std@@@std@@IBEPADXZ ENDP ; std::basic_streambuf<char,std::char_traits<char> >::epptr
; Function compile flags: /Ogtpy
_TEXT	ENDS
;	COMDAT ?setg@?$basic_streambuf@DU?$char_traits@D@std@@@std@@IAEXPAD00@Z
_TEXT	SEGMENT
_this$ = 8						; size = 4
?setg@?$basic_streambuf@DU?$char_traits@D@std@@@std@@IAEXPAD00@Z PROC ; std::basic_streambuf<char,std::char_traits<char> >::setg, COMDAT
; __First$ = edi
; __Next$ = edx
; __Last$ = eax

; 215  : 		{	// set pointers for read buffer

	mov	ecx, DWORD PTR _this$[esp-4]
	push	esi

; 216  : 		*_IGfirst = _First;

	mov	esi, DWORD PTR [ecx+16]
	mov	DWORD PTR [esi], edi

; 217  : 		*_IGnext = _Next;

	mov	esi, DWORD PTR [ecx+32]
	mov	DWORD PTR [esi], edx

; 218  : 		*_IGcount = (int)(_Last - _Next);

	mov	ecx, DWORD PTR [ecx+48]
	sub	eax, edx
	mov	DWORD PTR [ecx], eax
	pop	esi

; 219  : 		}

	ret	4
?setg@?$basic_streambuf@DU?$char_traits@D@std@@@std@@IAEXPAD00@Z ENDP ; std::basic_streambuf<char,std::char_traits<char> >::setg
; Function compile flags: /Ogtpy
_TEXT	ENDS
;	COMDAT ?gbump@?$basic_streambuf@DU?$char_traits@D@std@@@std@@IAEXH@Z
_TEXT	SEGMENT
?gbump@?$basic_streambuf@DU?$char_traits@D@std@@@std@@IAEXH@Z PROC ; std::basic_streambuf<char,std::char_traits<char> >::gbump, COMDAT
; _this$ = edx
; __Off$ = ecx

; 210  : 		*_IGcount -= _Off;

	mov	eax, DWORD PTR [edx+48]
	sub	DWORD PTR [eax], ecx

; 211  : 		*_IGnext += _Off;

	mov	eax, DWORD PTR [edx+32]
	add	DWORD PTR [eax], ecx

; 212  : 		}

	ret	0
?gbump@?$basic_streambuf@DU?$char_traits@D@std@@@std@@IAEXH@Z ENDP ; std::basic_streambuf<char,std::char_traits<char> >::gbump
; Function compile flags: /Ogtpy
_TEXT	ENDS
;	COMDAT ?egptr@?$basic_streambuf@DU?$char_traits@D@std@@@std@@IBEPADXZ
_TEXT	SEGMENT
?egptr@?$basic_streambuf@DU?$char_traits@D@std@@@std@@IBEPADXZ PROC ; std::basic_streambuf<char,std::char_traits<char> >::egptr, COMDAT
; _this$ = eax

; 205  : 		return (*_IGnext + *_IGcount);

	mov	ecx, DWORD PTR [eax+48]
	mov	edx, DWORD PTR [eax+32]
	mov	eax, DWORD PTR [ecx]
	add	eax, DWORD PTR [edx]

; 206  : 		}

	ret	0
?egptr@?$basic_streambuf@DU?$char_traits@D@std@@@std@@IBEPADXZ ENDP ; std::basic_streambuf<char,std::char_traits<char> >::egptr
; Function compile flags: /Ogtpy
_TEXT	ENDS
;	COMDAT ?pptr@?$basic_streambuf@DU?$char_traits@D@std@@@std@@IBEPADXZ
_TEXT	SEGMENT
?pptr@?$basic_streambuf@DU?$char_traits@D@std@@@std@@IBEPADXZ PROC ; std::basic_streambuf<char,std::char_traits<char> >::pptr, COMDAT
; _this$ = eax

; 200  : 		return (*_IPnext);

	mov	ecx, DWORD PTR [eax+36]
	mov	eax, DWORD PTR [ecx]

; 201  : 		}

	ret	0
?pptr@?$basic_streambuf@DU?$char_traits@D@std@@@std@@IBEPADXZ ENDP ; std::basic_streambuf<char,std::char_traits<char> >::pptr
; Function compile flags: /Ogtpy
_TEXT	ENDS
;	COMDAT ?gptr@?$basic_streambuf@DU?$char_traits@D@std@@@std@@IBEPADXZ
_TEXT	SEGMENT
?gptr@?$basic_streambuf@DU?$char_traits@D@std@@@std@@IBEPADXZ PROC ; std::basic_streambuf<char,std::char_traits<char> >::gptr, COMDAT
; _this$ = eax

; 190  : 		return (*_IGnext);

	mov	ecx, DWORD PTR [eax+32]
	mov	eax, DWORD PTR [ecx]

; 191  : 		}

	ret	0
?gptr@?$basic_streambuf@DU?$char_traits@D@std@@@std@@IBEPADXZ ENDP ; std::basic_streambuf<char,std::char_traits<char> >::gptr
; Function compile flags: /Ogtpy
_TEXT	ENDS
;	COMDAT ?eback@?$basic_streambuf@DU?$char_traits@D@std@@@std@@IBEPADXZ
_TEXT	SEGMENT
?eback@?$basic_streambuf@DU?$char_traits@D@std@@@std@@IBEPADXZ PROC ; std::basic_streambuf<char,std::char_traits<char> >::eback, COMDAT
; _this$ = eax

; 185  : 		return (*_IGfirst);

	mov	ecx, DWORD PTR [eax+16]
	mov	eax, DWORD PTR [ecx]

; 186  : 		}

	ret	0
?eback@?$basic_streambuf@DU?$char_traits@D@std@@@std@@IBEPADXZ ENDP ; std::basic_streambuf<char,std::char_traits<char> >::eback
; Function compile flags: /Ogtpy
_TEXT	ENDS
;	COMDAT ?_Unlock@?$basic_streambuf@DU?$char_traits@D@std@@@std@@QAEXXZ
_TEXT	SEGMENT
?_Unlock@?$basic_streambuf@DU?$char_traits@D@std@@@std@@QAEXXZ PROC ; std::basic_streambuf<char,std::char_traits<char> >::_Unlock, COMDAT
; _this$ = ecx

; 178  : 		_Mylock._Unlock();

	add	ecx, 4
	jmp	?_Unlock@_Mutex@std@@QAEXXZ		; std::_Mutex::_Unlock
?_Unlock@?$basic_streambuf@DU?$char_traits@D@std@@@std@@QAEXXZ ENDP ; std::basic_streambuf<char,std::char_traits<char> >::_Unlock
; Function compile flags: /Ogtpy
_TEXT	ENDS
;	COMDAT ?pubsync@?$basic_streambuf@DU?$char_traits@D@std@@@std@@QAEHXZ
_TEXT	SEGMENT
?pubsync@?$basic_streambuf@DU?$char_traits@D@std@@@std@@QAEHXZ PROC ; std::basic_streambuf<char,std::char_traits<char> >::pubsync, COMDAT
; _this$ = ecx

; 100  : 		return (sync());

	mov	eax, DWORD PTR [ecx]
	mov	edx, DWORD PTR [eax+48]
	jmp	edx
?pubsync@?$basic_streambuf@DU?$char_traits@D@std@@@std@@QAEHXZ ENDP ; std::basic_streambuf<char,std::char_traits<char> >::pubsync
; Function compile flags: /Ogtpy
_TEXT	ENDS
;	COMDAT ?imbue@?$basic_streambuf@DU?$char_traits@D@std@@@std@@MAEXABVlocale@2@@Z
_TEXT	SEGMENT
___formal$ = 8						; size = 4
?imbue@?$basic_streambuf@DU?$char_traits@D@std@@@std@@MAEXABVlocale@2@@Z PROC ; std::basic_streambuf<char,std::char_traits<char> >::imbue, COMDAT
; _this$ = ecx

; 414  : 		}

	ret	4
?imbue@?$basic_streambuf@DU?$char_traits@D@std@@@std@@MAEXABVlocale@2@@Z ENDP ; std::basic_streambuf<char,std::char_traits<char> >::imbue
; Function compile flags: /Ogtpy
_TEXT	ENDS
;	COMDAT ?sync@?$basic_streambuf@DU?$char_traits@D@std@@@std@@MAEHXZ
_TEXT	SEGMENT
?sync@?$basic_streambuf@DU?$char_traits@D@std@@@std@@MAEHXZ PROC ; std::basic_streambuf<char,std::char_traits<char> >::sync, COMDAT
; _this$ = ecx

; 409  : 		return (0);

	xor	eax, eax

; 410  : 		}

	ret	0
?sync@?$basic_streambuf@DU?$char_traits@D@std@@@std@@MAEHXZ ENDP ; std::basic_streambuf<char,std::char_traits<char> >::sync
; Function compile flags: /Ogtpy
_TEXT	ENDS
;	COMDAT ?setbuf@?$basic_streambuf@DU?$char_traits@D@std@@@std@@MAEPAV12@PADH@Z
_TEXT	SEGMENT
___formal$ = 8						; size = 4
___formal$ = 12						; size = 4
?setbuf@?$basic_streambuf@DU?$char_traits@D@std@@@std@@MAEPAV12@PADH@Z PROC ; std::basic_streambuf<char,std::char_traits<char> >::setbuf, COMDAT
; _this$ = ecx

; 403  : 		{	// offer buffer to external agent (do nothing)

	mov	eax, ecx

; 404  : 		return (this);
; 405  : 		}

	ret	8
?setbuf@?$basic_streambuf@DU?$char_traits@D@std@@@std@@MAEPAV12@PADH@Z ENDP ; std::basic_streambuf<char,std::char_traits<char> >::setbuf
; Function compile flags: /Ogtpy
_TEXT	ENDS
;	COMDAT ?seekpos@?$basic_streambuf@DU?$char_traits@D@std@@@std@@MAE?AV?$fpos@H@2@V32@H@Z
_TEXT	SEGMENT
___$ReturnUdt$ = 8					; size = 4
___formal$ = 12						; size = 24
___formal$ = 36						; size = 4
?seekpos@?$basic_streambuf@DU?$char_traits@D@std@@@std@@MAE?AV?$fpos@H@2@V32@H@Z PROC ; std::basic_streambuf<char,std::char_traits<char> >::seekpos, COMDAT
; _this$ = ecx

; 399  : 		return (streampos(_BADOFF));

	mov	eax, DWORD PTR ___$ReturnUdt$[esp-4]
	mov	ecx, DWORD PTR ?_BADOFF@std@@3JB	; std::_BADOFF
	mov	DWORD PTR [eax], ecx
	xor	ecx, ecx
	mov	DWORD PTR [eax+8], ecx
	mov	DWORD PTR [eax+12], ecx
	mov	DWORD PTR [eax+16], ecx

; 400  : 		}

	ret	32					; 00000020H
?seekpos@?$basic_streambuf@DU?$char_traits@D@std@@@std@@MAE?AV?$fpos@H@2@V32@H@Z ENDP ; std::basic_streambuf<char,std::char_traits<char> >::seekpos
; Function compile flags: /Ogtpy
_TEXT	ENDS
;	COMDAT ?seekoff@?$basic_streambuf@DU?$char_traits@D@std@@@std@@MAE?AV?$fpos@H@2@JHH@Z
_TEXT	SEGMENT
___$ReturnUdt$ = 8					; size = 4
___formal$ = 12						; size = 4
___formal$ = 16						; size = 4
___formal$ = 20						; size = 4
?seekoff@?$basic_streambuf@DU?$char_traits@D@std@@@std@@MAE?AV?$fpos@H@2@JHH@Z PROC ; std::basic_streambuf<char,std::char_traits<char> >::seekoff, COMDAT
; _this$ = ecx

; 393  : 		return (streampos(_BADOFF));

	mov	eax, DWORD PTR ___$ReturnUdt$[esp-4]
	mov	ecx, DWORD PTR ?_BADOFF@std@@3JB	; std::_BADOFF
	mov	DWORD PTR [eax], ecx
	xor	ecx, ecx
	mov	DWORD PTR [eax+8], ecx
	mov	DWORD PTR [eax+12], ecx
	mov	DWORD PTR [eax+16], ecx

; 394  : 		}

	ret	16					; 00000010H
?seekoff@?$basic_streambuf@DU?$char_traits@D@std@@@std@@MAE?AV?$fpos@H@2@JHH@Z ENDP ; std::basic_streambuf<char,std::char_traits<char> >::seekoff
; Function compile flags: /Ogtpy
_TEXT	ENDS
;	COMDAT ?xsgetn@?$basic_streambuf@DU?$char_traits@D@std@@@std@@MAEHPADH@Z
_TEXT	SEGMENT
__Ptr$ = 8						; size = 4
__Count$ = 12						; size = 4
?xsgetn@?$basic_streambuf@DU?$char_traits@D@std@@@std@@MAEHPADH@Z PROC ; std::basic_streambuf<char,std::char_traits<char> >::xsgetn, COMDAT
; _this$ = ecx

; 326  : 		// assume the destination buffer is large enough
; 327  : 		return _Xsgetn_s(_Ptr, (size_t)-1, _Count);

	mov	edx, DWORD PTR __Count$[esp-4]
	mov	eax, DWORD PTR [ecx]
	mov	eax, DWORD PTR [eax+28]
	push	edx
	mov	edx, DWORD PTR __Ptr$[esp]
	push	-1
	push	edx
	call	eax

; 328  : 		}

	ret	8
?xsgetn@?$basic_streambuf@DU?$char_traits@D@std@@@std@@MAEHPADH@Z ENDP ; std::basic_streambuf<char,std::char_traits<char> >::xsgetn
; Function compile flags: /Ogtpy
_TEXT	ENDS
;	COMDAT ?showmanyc@?$basic_streambuf@DU?$char_traits@D@std@@@std@@MAEHXZ
_TEXT	SEGMENT
?showmanyc@?$basic_streambuf@DU?$char_traits@D@std@@@std@@MAEHXZ PROC ; std::basic_streambuf<char,std::char_traits<char> >::showmanyc, COMDAT
; _this$ = ecx

; 308  : 		return (0);

	xor	eax, eax

; 309  : 		}

	ret	0
?showmanyc@?$basic_streambuf@DU?$char_traits@D@std@@@std@@MAEHXZ ENDP ; std::basic_streambuf<char,std::char_traits<char> >::showmanyc
; Function compile flags: /Ogtpy
; File c:\program files\microsoft visual studio 9.0\vc\include\istream
_TEXT	ENDS
;	COMDAT ??1?$basic_istream@DU?$char_traits@D@std@@@std@@UAE@XZ
_TEXT	SEGMENT
??1?$basic_istream@DU?$char_traits@D@std@@@std@@UAE@XZ PROC ; std::basic_istream<char,std::char_traits<char> >::~basic_istream<char,std::char_traits<char> >, COMDAT
; _this$ = ecx

; 42   : 		{	// destroy the object

	mov	eax, DWORD PTR [ecx-8]
	mov	edx, DWORD PTR [eax+4]
	mov	DWORD PTR [edx+ecx-8], OFFSET ??_7?$basic_istream@DU?$char_traits@D@std@@@std@@6B@

; 43   : 		}

	ret	0
??1?$basic_istream@DU?$char_traits@D@std@@@std@@UAE@XZ ENDP ; std::basic_istream<char,std::char_traits<char> >::~basic_istream<char,std::char_traits<char> >
; Function compile flags: /Ogtpy
; File c:\program files\microsoft visual studio 9.0\vc\include\ios
_TEXT	ENDS
;	COMDAT ?rdbuf@?$basic_ios@DU?$char_traits@D@std@@@std@@QBEPAV?$basic_streambuf@DU?$char_traits@D@std@@@2@XZ
_TEXT	SEGMENT
?rdbuf@?$basic_ios@DU?$char_traits@D@std@@@std@@QBEPAV?$basic_streambuf@DU?$char_traits@D@std@@@2@XZ PROC ; std::basic_ios<char,std::char_traits<char> >::rdbuf, COMDAT
; _this$ = eax

; 85   : 		return (_Mystrbuf);

	mov	eax, DWORD PTR [eax+40]

; 86   : 		}

	ret	0
?rdbuf@?$basic_ios@DU?$char_traits@D@std@@@std@@QBEPAV?$basic_streambuf@DU?$char_traits@D@std@@@2@XZ ENDP ; std::basic_ios<char,std::char_traits<char> >::rdbuf
; Function compile flags: /Ogtpy
; File c:\program files\microsoft visual studio 9.0\vc\include\ostream
_TEXT	ENDS
;	COMDAT ??1?$basic_ostream@DU?$char_traits@D@std@@@std@@UAE@XZ
_TEXT	SEGMENT
??1?$basic_ostream@DU?$char_traits@D@std@@@std@@UAE@XZ PROC ; std::basic_ostream<char,std::char_traits<char> >::~basic_ostream<char,std::char_traits<char> >, COMDAT
; _this$ = ecx

; 63   : 		{	// destroy the object

	mov	eax, DWORD PTR [ecx-4]
	mov	edx, DWORD PTR [eax+4]
	mov	DWORD PTR [edx+ecx-4], OFFSET ??_7?$basic_ostream@DU?$char_traits@D@std@@@std@@6B@

; 64   : 		}

	ret	0
??1?$basic_ostream@DU?$char_traits@D@std@@@std@@UAE@XZ ENDP ; std::basic_ostream<char,std::char_traits<char> >::~basic_ostream<char,std::char_traits<char> >
; Function compile flags: /Ogtpy
; File c:\program files\microsoft visual studio 9.0\vc\include\fstream
_TEXT	ENDS
;	COMDAT ??$_Ungetc@D@std@@YA_NABDPAU_iobuf@@@Z
_TEXT	SEGMENT
??$_Ungetc@D@std@@YA_NABDPAU_iobuf@@@Z PROC		; std::_Ungetc<char>, COMDAT
; __Byte$ = ecx
; __File$ = eax

; 85   : 	return (ungetc((unsigned char)_Byte, _File) != EOF);

	movzx	edx, BYTE PTR [ecx]
	push	eax
	push	edx
	call	_ungetc
	xor	ecx, ecx
	add	esp, 8
	cmp	eax, -1
	setne	cl
	mov	al, cl

; 86   : 	}

	ret	0
??$_Ungetc@D@std@@YA_NABDPAU_iobuf@@@Z ENDP		; std::_Ungetc<char>
; Function compile flags: /Ogtpy
_TEXT	ENDS
;	COMDAT ??$_Fputc@D@std@@YA_NDPAU_iobuf@@@Z
_TEXT	SEGMENT
??$_Fputc@D@std@@YA_NDPAU_iobuf@@@Z PROC		; std::_Fputc<char>, COMDAT
; __Byte$ = ecx
; __File$ = eax

; 67   : 	return (fputc(_Byte, _File) != EOF);

	movsx	ecx, cl
	push	eax
	push	ecx
	call	_fputc
	xor	edx, edx
	add	esp, 8
	cmp	eax, -1
	setne	dl
	mov	al, dl

; 68   : 	}

	ret	0
??$_Fputc@D@std@@YA_NDPAU_iobuf@@@Z ENDP		; std::_Fputc<char>
; Function compile flags: /Ogtpy
_TEXT	ENDS
;	COMDAT ??$_Fgetc@D@std@@YA_NAADPAU_iobuf@@@Z
_TEXT	SEGMENT
__Byte$ = 8						; size = 4
??$_Fgetc@D@std@@YA_NAADPAU_iobuf@@@Z PROC		; std::_Fgetc<char>, COMDAT
; __File$ = eax

; 35   : 	int _Meta;
; 36   : 	if ((_Meta = fgetc(_File)) == EOF)

	push	eax
	call	_fgetc
	add	esp, 4
	cmp	eax, -1
	jne	SHORT $LN2@Fgetc

; 37   : 		return (false);

	xor	al, al

; 42   : 		}
; 43   : 	}

	ret	0
$LN2@Fgetc:

; 38   : 	else
; 39   : 		{	// got one, convert to char
; 40   : 		_Byte = (char)_Meta;

	mov	ecx, DWORD PTR __Byte$[esp-4]
	mov	BYTE PTR [ecx], al

; 41   : 		return (true);

	mov	al, 1

; 42   : 		}
; 43   : 	}

	ret	0
??$_Fgetc@D@std@@YA_NAADPAU_iobuf@@@Z ENDP		; std::_Fgetc<char>
; Function compile flags: /Ogtpy
; File c:\program files\microsoft visual studio 9.0\vc\include\xiosbase
_TEXT	ENDS
;	COMDAT ??1ios_base@std@@UAE@XZ
_TEXT	SEGMENT
??1ios_base@std@@UAE@XZ PROC				; std::ios_base::~ios_base, COMDAT
; _this$ = ecx

; 494  :         _Ios_base_dtor(this);

	push	ecx
	mov	DWORD PTR [ecx], OFFSET ??_7ios_base@std@@6B@
	call	?_Ios_base_dtor@ios_base@std@@CAXPAV12@@Z ; std::ios_base::_Ios_base_dtor
	pop	ecx

; 495  :         }

	ret	0
??1ios_base@std@@UAE@XZ ENDP				; std::ios_base::~ios_base
; Function compile flags: /Ogtpy
_TEXT	ENDS
;	COMDAT ?width@ios_base@std@@QAEHH@Z
_TEXT	SEGMENT
?width@ios_base@std@@QAEHH@Z PROC			; std::ios_base::width, COMDAT
; _this$ = ecx

; 424  : 		streamsize _Oldwidth = _Wide;

	mov	eax, DWORD PTR [ecx+24]

; 425  : 		_Wide = _Newwidth;

	mov	DWORD PTR [ecx+24], 0

; 426  : 		return (_Oldwidth);
; 427  : 		}

	ret	0
?width@ios_base@std@@QAEHH@Z ENDP			; std::ios_base::width
; Function compile flags: /Ogtpy
_TEXT	ENDS
;	COMDAT ?width@ios_base@std@@QBEHXZ
_TEXT	SEGMENT
?width@ios_base@std@@QBEHXZ PROC			; std::ios_base::width, COMDAT
; _this$ = eax

; 419  : 		return (_Wide);

	mov	eax, DWORD PTR [eax+24]

; 420  : 		}

	ret	0
?width@ios_base@std@@QBEHXZ ENDP			; std::ios_base::width
; Function compile flags: /Ogtpy
_TEXT	ENDS
;	COMDAT ?precision@ios_base@std@@QBEHXZ
_TEXT	SEGMENT
?precision@ios_base@std@@QBEHXZ PROC			; std::ios_base::precision, COMDAT
; _this$ = eax

; 407  : 		return (_Prec);

	mov	eax, DWORD PTR [eax+20]

; 408  : 		}

	ret	0
?precision@ios_base@std@@QBEHXZ ENDP			; std::ios_base::precision
; Function compile flags: /Ogtpy
_TEXT	ENDS
;	COMDAT ?flags@ios_base@std@@QBEHXZ
_TEXT	SEGMENT
?flags@ios_base@std@@QBEHXZ PROC			; std::ios_base::flags, COMDAT
; _this$ = eax

; 374  : 		return (_Fmtfl);

	mov	eax, DWORD PTR [eax+16]

; 375  : 		}

	ret	0
?flags@ios_base@std@@QBEHXZ ENDP			; std::ios_base::flags
; Function compile flags: /Ogtpy
_TEXT	ENDS
;	COMDAT ?rdstate@ios_base@std@@QBEHXZ
_TEXT	SEGMENT
?rdstate@ios_base@std@@QBEHXZ PROC			; std::ios_base::rdstate, COMDAT
; _this$ = eax

; 311  : 		return (_Mystate);

	mov	eax, DWORD PTR [eax+8]

; 312  : 		}

	ret	0
?rdstate@ios_base@std@@QBEHXZ ENDP			; std::ios_base::rdstate
; Function compile flags: /Ogtpy
; File c:\program files\microsoft visual studio 9.0\vc\include\xlocale
_TEXT	ENDS
;	COMDAT ?_Do_narrow_s@?$ctype@D@std@@MBEPBDPBD0DPADI@Z
_TEXT	SEGMENT
__First$ = 8						; size = 4
__Last$ = 12						; size = 4
___formal$ = 16						; size = 1
__Dest$ = 20						; size = 4
__Dest_size$ = 24					; size = 4
?_Do_narrow_s@?$ctype@D@std@@MBEPBDPBD0DPADI@Z PROC	; std::ctype<char>::_Do_narrow_s, COMDAT
; _this$ = ecx

; 1887 : 		{	// narrow elements in [_First, _Last) to chars

	push	ebx

; 1888 : 		_DEBUG_RANGE(_First, _Last);
; 1889 : 		_DEBUG_POINTER(_Dest);
; 1890 : 		_SCL_SECURE_ALWAYS_VALIDATE_RANGE(_Dest_size >= (size_t)(_Last - _First));

	mov	ebx, DWORD PTR __First$[esp]
	push	ebp
	mov	ebp, DWORD PTR __Dest_size$[esp+4]
	push	esi
	push	edi
	mov	edi, DWORD PTR __Last$[esp+12]
	mov	esi, edi
	sub	esi, ebx
	cmp	ebp, esi
	jae	SHORT $LN1@Do_narrow_
	call	__invalid_parameter_noinfo
$LN1@Do_narrow_:

; 1891 : 		_CRT_SECURE_MEMCPY(_Dest, _Dest_size, _First, _Last - _First);

	mov	eax, DWORD PTR __Dest$[esp+12]
	push	esi
	push	ebx
	push	ebp
	push	eax
	call	_memcpy_s
	add	esp, 16					; 00000010H

; 1892 : 		return (_Last);

	mov	eax, edi
	pop	edi
	pop	esi
	pop	ebp
	pop	ebx

; 1893 : 		}

	ret	20					; 00000014H
?_Do_narrow_s@?$ctype@D@std@@MBEPBDPBD0DPADI@Z ENDP	; std::ctype<char>::_Do_narrow_s
; Function compile flags: /Ogtpy
_TEXT	ENDS
;	COMDAT ?do_narrow@?$ctype@D@std@@MBEPBDPBD0DPAD@Z
_TEXT	SEGMENT
__First$ = 8						; size = 4
__Last$ = 12						; size = 4
__Dflt$ = 16						; size = 1
__Dest$ = 20						; size = 4
?do_narrow@?$ctype@D@std@@MBEPBDPBD0DPAD@Z PROC		; std::ctype<char>::do_narrow, COMDAT
; _this$ = ecx

; 1880 : 		// assume there is enough space in _Dest
; 1881 : 		return _Do_narrow_s(_First, _Last, _Dflt, _Dest, _Last - _First);

	mov	eax, DWORD PTR __Last$[esp-4]
	mov	edx, DWORD PTR __First$[esp-4]
	push	esi
	mov	esi, DWORD PTR [ecx]
	push	edi
	mov	edi, eax
	sub	edi, edx
	push	edi
	mov	edi, DWORD PTR __Dest$[esp+8]
	push	edi
	mov	edi, DWORD PTR __Dflt$[esp+12]
	push	edi
	push	eax
	mov	eax, DWORD PTR [esi+40]
	push	edx
	call	eax
	pop	edi
	pop	esi

; 1882 : 		}

	ret	16					; 00000010H
?do_narrow@?$ctype@D@std@@MBEPBDPBD0DPAD@Z ENDP		; std::ctype<char>::do_narrow
; Function compile flags: /Ogtpy
_TEXT	ENDS
;	COMDAT ?do_narrow@?$ctype@D@std@@MBEDDD@Z
_TEXT	SEGMENT
__Ch$ = 8						; size = 1
___formal$ = 12						; size = 1
?do_narrow@?$ctype@D@std@@MBEDDD@Z PROC			; std::ctype<char>::do_narrow, COMDAT
; _this$ = ecx

; 1872 : 		return (_Ch);

	mov	al, BYTE PTR __Ch$[esp-4]

; 1873 : 		}

	ret	8
?do_narrow@?$ctype@D@std@@MBEDDD@Z ENDP			; std::ctype<char>::do_narrow
; Function compile flags: /Ogtpy
_TEXT	ENDS
;	COMDAT ?_Do_widen_s@?$ctype@D@std@@MBEPBDPBD0PADI@Z
_TEXT	SEGMENT
__First$ = 8						; size = 4
__Last$ = 12						; size = 4
__Dest$ = 16						; size = 4
__Dest_size$ = 20					; size = 4
?_Do_widen_s@?$ctype@D@std@@MBEPBDPBD0PADI@Z PROC	; std::ctype<char>::_Do_widen_s, COMDAT
; _this$ = ecx

; 1862 : 		{	// widen chars in [_First, _Last)

	push	ebx

; 1863 : 		_DEBUG_RANGE(_First, _Last);
; 1864 : 		_DEBUG_POINTER(_Dest);
; 1865 : 		_SCL_SECURE_ALWAYS_VALIDATE_RANGE(_Dest_size >= (size_t)(_Last - _First));

	mov	ebx, DWORD PTR __First$[esp]
	push	ebp
	mov	ebp, DWORD PTR __Dest_size$[esp+4]
	push	esi
	push	edi
	mov	edi, DWORD PTR __Last$[esp+12]
	mov	esi, edi
	sub	esi, ebx
	cmp	ebp, esi
	jae	SHORT $LN1@Do_widen_s
	call	__invalid_parameter_noinfo
$LN1@Do_widen_s:

; 1866 : 		_CRT_SECURE_MEMCPY(_Dest, _Dest_size, _First, _Last - _First);

	mov	eax, DWORD PTR __Dest$[esp+12]
	push	esi
	push	ebx
	push	ebp
	push	eax
	call	_memcpy_s
	add	esp, 16					; 00000010H

; 1867 : 		return (_Last);

	mov	eax, edi
	pop	edi
	pop	esi
	pop	ebp
	pop	ebx

; 1868 : 		}

	ret	16					; 00000010H
?_Do_widen_s@?$ctype@D@std@@MBEPBDPBD0PADI@Z ENDP	; std::ctype<char>::_Do_widen_s
; Function compile flags: /Ogtpy
_TEXT	ENDS
;	COMDAT ?do_widen@?$ctype@D@std@@MBEPBDPBD0PAD@Z
_TEXT	SEGMENT
__First$ = 8						; size = 4
__Last$ = 12						; size = 4
__Dest$ = 16						; size = 4
?do_widen@?$ctype@D@std@@MBEPBDPBD0PAD@Z PROC		; std::ctype<char>::do_widen, COMDAT
; _this$ = ecx

; 1856 : 		// assume there is enough space in _Dest
; 1857 : 		return _Do_widen_s(_First, _Last, _Dest, _Last - _First);

	mov	eax, DWORD PTR __Last$[esp-4]
	mov	edx, DWORD PTR __First$[esp-4]
	push	esi
	mov	esi, DWORD PTR [ecx]
	push	edi
	mov	edi, eax
	sub	edi, edx
	push	edi
	mov	edi, DWORD PTR __Dest$[esp+8]
	push	edi
	push	eax
	mov	eax, DWORD PTR [esi+28]
	push	edx
	call	eax
	pop	edi
	pop	esi

; 1858 : 		}

	ret	12					; 0000000cH
?do_widen@?$ctype@D@std@@MBEPBDPBD0PAD@Z ENDP		; std::ctype<char>::do_widen
; Function compile flags: /Ogtpy
_TEXT	ENDS
;	COMDAT ?do_widen@?$ctype@D@std@@MBEDD@Z
_TEXT	SEGMENT
__Byte$ = 8						; size = 1
?do_widen@?$ctype@D@std@@MBEDD@Z PROC			; std::ctype<char>::do_widen, COMDAT
; _this$ = ecx

; 1849 : 		return (_Byte);

	mov	al, BYTE PTR __Byte$[esp-4]

; 1850 : 		}

	ret	4
?do_widen@?$ctype@D@std@@MBEDD@Z ENDP			; std::ctype<char>::do_widen
; Function compile flags: /Ogtpy
_TEXT	ENDS
;	COMDAT ?do_toupper@?$ctype@D@std@@MBEPBDPADPBD@Z
_TEXT	SEGMENT
__First$ = 8						; size = 4
__Last$ = 12						; size = 4
?do_toupper@?$ctype@D@std@@MBEPBDPADPBD@Z PROC		; std::ctype<char>::do_toupper, COMDAT
; _this$ = ecx

; 1840 : 		{	// convert [_First, _Last) in place to upper case

	push	ebx

; 1841 : 		_DEBUG_RANGE((const _Elem *)_First, _Last);
; 1842 : 		for (; _First != _Last; ++_First)

	mov	ebx, DWORD PTR __Last$[esp]
	push	esi
	mov	esi, DWORD PTR __First$[esp+4]
	cmp	esi, ebx
	je	SHORT $LN8@do_toupper
	push	edi
	lea	edi, DWORD PTR [ecx+8]
$LL3@do_toupper:

; 1843 : 			*_First = (_Elem)_Toupper((unsigned char)*_First, &_Ctype);

	movzx	eax, BYTE PTR [esi]
	push	edi
	push	eax
	call	__Toupper
	mov	BYTE PTR [esi], al
	inc	esi
	add	esp, 8
	cmp	esi, ebx
	jne	SHORT $LL3@do_toupper
	pop	edi
$LN8@do_toupper:

; 1844 : 		return ((const _Elem *)_First);

	mov	eax, esi
	pop	esi
	pop	ebx

; 1845 : 		}

	ret	8
?do_toupper@?$ctype@D@std@@MBEPBDPADPBD@Z ENDP		; std::ctype<char>::do_toupper
; Function compile flags: /Ogtpy
_TEXT	ENDS
;	COMDAT ?do_toupper@?$ctype@D@std@@MBEDD@Z
_TEXT	SEGMENT
__Ch$ = 8						; size = 1
?do_toupper@?$ctype@D@std@@MBEDD@Z PROC			; std::ctype<char>::do_toupper, COMDAT
; _this$ = ecx

; 1835 : 		return ((_Elem)_Toupper((unsigned char)_Ch, &_Ctype));

	movzx	eax, BYTE PTR __Ch$[esp-4]
	add	ecx, 8
	push	ecx
	push	eax
	call	__Toupper
	add	esp, 8

; 1836 : 		}

	ret	4
?do_toupper@?$ctype@D@std@@MBEDD@Z ENDP			; std::ctype<char>::do_toupper
; Function compile flags: /Ogtpy
_TEXT	ENDS
;	COMDAT ?do_tolower@?$ctype@D@std@@MBEPBDPADPBD@Z
_TEXT	SEGMENT
__First$ = 8						; size = 4
__Last$ = 12						; size = 4
?do_tolower@?$ctype@D@std@@MBEPBDPADPBD@Z PROC		; std::ctype<char>::do_tolower, COMDAT
; _this$ = ecx

; 1826 : 		{	// convert [_First, _Last) in place to lower case

	push	ebx

; 1827 : 		_DEBUG_RANGE((const _Elem *)_First, _Last);
; 1828 : 		for (; _First != _Last; ++_First)

	mov	ebx, DWORD PTR __Last$[esp]
	push	esi
	mov	esi, DWORD PTR __First$[esp+4]
	cmp	esi, ebx
	je	SHORT $LN8@do_tolower
	push	edi
	lea	edi, DWORD PTR [ecx+8]
$LL3@do_tolower:

; 1829 : 			*_First = (_Elem)_Tolower((unsigned char)*_First, &_Ctype);

	movzx	eax, BYTE PTR [esi]
	push	edi
	push	eax
	call	__Tolower
	mov	BYTE PTR [esi], al
	inc	esi
	add	esp, 8
	cmp	esi, ebx
	jne	SHORT $LL3@do_tolower
	pop	edi
$LN8@do_tolower:

; 1830 : 		return ((const _Elem *)_First);

	mov	eax, esi
	pop	esi
	pop	ebx

; 1831 : 		}

	ret	8
?do_tolower@?$ctype@D@std@@MBEPBDPADPBD@Z ENDP		; std::ctype<char>::do_tolower
; Function compile flags: /Ogtpy
_TEXT	ENDS
;	COMDAT ?do_tolower@?$ctype@D@std@@MBEDD@Z
_TEXT	SEGMENT
__Ch$ = 8						; size = 1
?do_tolower@?$ctype@D@std@@MBEDD@Z PROC			; std::ctype<char>::do_tolower, COMDAT
; _this$ = ecx

; 1821 : 		return ((_Elem)_Tolower((unsigned char)_Ch, &_Ctype));

	movzx	eax, BYTE PTR __Ch$[esp-4]
	add	ecx, 8
	push	ecx
	push	eax
	call	__Tolower
	add	esp, 8

; 1822 : 		}

	ret	4
?do_tolower@?$ctype@D@std@@MBEDD@Z ENDP			; std::ctype<char>::do_tolower
; Function compile flags: /Ogtpy
_TEXT	ENDS
;	COMDAT ?_Tidy@?$ctype@D@std@@IAEXXZ
_TEXT	SEGMENT
?_Tidy@?$ctype@D@std@@IAEXXZ PROC			; std::ctype<char>::_Tidy, COMDAT
; _this$ = ecx

; 1813 : 		if (0 < _Ctype._Delfl)

	mov	eax, DWORD PTR [ecx+20]
	test	eax, eax
	jle	SHORT $LN8@Tidy

; 1814 : 			free((void *)_Ctype._Table);

	mov	eax, DWORD PTR [ecx+16]
	push	eax
	call	_free
	add	esp, 4

; 1817 : 		}

	ret	0
$LN8@Tidy:

; 1815 : 		else if (_Ctype._Delfl < 0)

	jge	SHORT $LN6@Tidy

; 1816 : 			delete[] (void *)_Ctype._Table;

	mov	ecx, DWORD PTR [ecx+16]
	push	ecx
	call	DWORD PTR ?RenVecDelete@@3P6AXPAX@ZA	; RenVecDelete
	pop	ecx
$LN6@Tidy:

; 1817 : 		}

	ret	0
?_Tidy@?$ctype@D@std@@IAEXXZ ENDP			; std::ctype<char>::_Tidy
; Function compile flags: /Ogtpy
_TEXT	ENDS
;	COMDAT ?do_encoding@codecvt_base@std@@MBEHXZ
_TEXT	SEGMENT
?do_encoding@codecvt_base@std@@MBEHXZ PROC		; std::codecvt_base::do_encoding, COMDAT
; _this$ = ecx

; 720  : 		return (1);	// -1 ==> state dependent, 0 ==> varying length

	mov	eax, 1

; 721  : 		}

	ret	0
?do_encoding@codecvt_base@std@@MBEHXZ ENDP		; std::codecvt_base::do_encoding
; Function compile flags: /Ogtpy
_TEXT	ENDS
;	COMDAT ?do_max_length@codecvt_base@std@@MBEHXZ
_TEXT	SEGMENT
?do_max_length@codecvt_base@std@@MBEHXZ PROC		; std::codecvt_base::do_max_length, COMDAT
; _this$ = ecx

; 715  : 		return (1);

	mov	eax, 1

; 716  : 		}

	ret	0
?do_max_length@codecvt_base@std@@MBEHXZ ENDP		; std::codecvt_base::do_max_length
; Function compile flags: /Ogtpy
_TEXT	ENDS
;	COMDAT ?do_always_noconv@codecvt_base@std@@MBE_NXZ
_TEXT	SEGMENT
?do_always_noconv@codecvt_base@std@@MBE_NXZ PROC	; std::codecvt_base::do_always_noconv, COMDAT
; _this$ = ecx

; 710  : 		return (true);

	mov	al, 1

; 711  : 		}

	ret	0
?do_always_noconv@codecvt_base@std@@MBE_NXZ ENDP	; std::codecvt_base::do_always_noconv
; Function compile flags: /Ogtpy
_TEXT	ENDS
;	COMDAT ?always_noconv@codecvt_base@std@@QBE_NXZ
_TEXT	SEGMENT
?always_noconv@codecvt_base@std@@QBE_NXZ PROC		; std::codecvt_base::always_noconv, COMDAT
; _this$ = ecx

; 690  : 		return (do_always_noconv());

	mov	eax, DWORD PTR [ecx]
	mov	edx, DWORD PTR [eax+4]
	jmp	edx
?always_noconv@codecvt_base@std@@QBE_NXZ ENDP		; std::codecvt_base::always_noconv
; Function compile flags: /Ogtpy
_TEXT	ENDS
;	COMDAT ?_Getfacet@locale@std@@QBEPBVfacet@12@I@Z
_TEXT	SEGMENT
?_Getfacet@locale@std@@QBEPBVfacet@12@I@Z PROC		; std::locale::_Getfacet, COMDAT
; _this$ = eax
; __Id$ = esi

; 413  : 		const facet *_Facptr = _Id < _Ptr->_Facetcount
; 414  : 			? _Ptr->_Facetvec[_Id] : 0;	// null if id off end

	mov	ecx, DWORD PTR [eax]
	cmp	esi, DWORD PTR [ecx+12]
	jae	SHORT $LN6@Getfacet
	mov	edx, DWORD PTR [ecx+8]
	mov	eax, DWORD PTR [edx+esi*4]

; 415  : 		if (_Facptr != 0 || !_Ptr->_Xparent)

	test	eax, eax
	jne	SHORT $LN1@Getfacet
$LN10@Getfacet:
	cmp	BYTE PTR [ecx+20], 0
	je	SHORT $LN1@Getfacet

; 416  : 			return (_Facptr);	// found facet or not transparent, return pointer
; 417  : 		else
; 418  : 			{	// look in current locale
; 419  : 			locale::_Locimp *_Ptr = _Getgloballocale();

	call	?_Getgloballocale@locale@std@@CAPAV_Locimp@12@XZ ; std::locale::_Getgloballocale

; 420  : 			return (_Id < _Ptr->_Facetcount
; 421  : 				? _Ptr->_Facetvec[_Id]	// get from current locale
; 422  : 				: 0);	// no entry in current locale

	cmp	esi, DWORD PTR [eax+12]
	jae	SHORT $LN8@Getfacet
	mov	eax, DWORD PTR [eax+8]
	mov	eax, DWORD PTR [eax+esi*4]

; 423  : 			}
; 424  : 		}

	ret	0
$LN6@Getfacet:

; 413  : 		const facet *_Facptr = _Id < _Ptr->_Facetcount
; 414  : 			? _Ptr->_Facetvec[_Id] : 0;	// null if id off end

	xor	eax, eax

; 415  : 		if (_Facptr != 0 || !_Ptr->_Xparent)

	jmp	SHORT $LN10@Getfacet
$LN8@Getfacet:

; 420  : 			return (_Id < _Ptr->_Facetcount
; 421  : 				? _Ptr->_Facetvec[_Id]	// get from current locale
; 422  : 				: 0);	// no entry in current locale

	xor	eax, eax
$LN1@Getfacet:

; 423  : 			}
; 424  : 		}

	ret	0
?_Getfacet@locale@std@@QBEPBVfacet@12@I@Z ENDP		; std::locale::_Getfacet
; Function compile flags: /Ogtpy
_TEXT	ENDS
;	COMDAT ??0facet@locale@std@@IAE@I@Z
_TEXT	SEGMENT
__Initrefs$ = 8						; size = 4
??0facet@locale@std@@IAE@I@Z PROC			; std::locale::facet::facet, COMDAT
; _this$ = ecx

; 176  : 			{	// construct with initial reference count

	mov	eax, ecx
	mov	ecx, DWORD PTR __Initrefs$[esp-4]
	mov	DWORD PTR [eax], OFFSET ??_7facet@locale@std@@6B@
	mov	DWORD PTR [eax+4], ecx

; 177  : 			}

	ret	4
??0facet@locale@std@@IAE@I@Z ENDP			; std::locale::facet::facet
; Function compile flags: /Ogtpy
_TEXT	ENDS
;	COMDAT ??1facet@locale@std@@UAE@XZ
_TEXT	SEGMENT
??1facet@locale@std@@UAE@XZ PROC			; std::locale::facet::~facet, COMDAT
; _this$ = ecx

; 170  : 			{	// destroy the object

	mov	DWORD PTR [ecx], OFFSET ??_7facet@locale@std@@6B@

; 171  : 			}

	ret	0
??1facet@locale@std@@UAE@XZ ENDP			; std::locale::facet::~facet
; Function compile flags: /Ogtpy
_TEXT	ENDS
;	COMDAT ?_Register@facet@locale@std@@QAEXXZ
_TEXT	SEGMENT
?_Register@facet@locale@std@@QAEXXZ PROC		; std::locale::facet::_Register, COMDAT
; _this$ = eax

; 135  : #if defined(_M_CEE)
; 136  : 			facet_Register_m(this);
; 137  : #else
; 138  : 			facet_Register(this);

	push	eax
	call	?facet_Register@facet@locale@std@@CAXPAV123@@Z ; std::locale::facet::facet_Register
	pop	ecx

; 139  : #endif
; 140  : 			}

	ret	0
?_Register@facet@locale@std@@QAEXXZ ENDP		; std::locale::facet::_Register
; Function compile flags: /Ogtpy
_TEXT	ENDS
;	COMDAT ?_Decref@facet@locale@std@@QAEPAV123@XZ
_TEXT	SEGMENT
__Lock$14251 = -4					; size = 4
?_Decref@facet@locale@std@@QAEPAV123@XZ PROC		; std::locale::facet::_Decref, COMDAT
; _this$ = ecx

; 125  : 			{	// safely decrement the reference count, return this when dead

	push	ecx
	push	esi
	push	edi
	mov	edi, ecx

; 126  : 			_BEGIN_LOCK(_LOCK_LOCALE)

	push	0
	lea	ecx, DWORD PTR __Lock$14251[esp+16]
	call	??0_Lockit@std@@QAE@H@Z			; std::_Lockit::_Lockit

; 127  : 				if (0 < _Refs && _Refs < (size_t)(-1))

	mov	eax, DWORD PTR [edi+4]
	test	eax, eax
	jbe	SHORT $LN1@Decref
	cmp	eax, -1
	jae	SHORT $LN1@Decref

; 128  : 					--_Refs;

	dec	eax
	mov	DWORD PTR [edi+4], eax
$LN1@Decref:

; 129  : 				return (_Refs == 0 ? this : 0);

	mov	esi, DWORD PTR [edi+4]
	neg	esi
	sbb	esi, esi
	not	esi
	lea	ecx, DWORD PTR __Lock$14251[esp+12]
	and	esi, edi
	call	??1_Lockit@std@@QAE@XZ			; std::_Lockit::~_Lockit
	pop	edi
	mov	eax, esi
	pop	esi

; 130  : 			_END_LOCK()
; 131  : 			}

	pop	ecx
	ret	0
?_Decref@facet@locale@std@@QAEPAV123@XZ ENDP		; std::locale::facet::_Decref
; Function compile flags: /Ogtpy
_TEXT	ENDS
;	COMDAT ?_Incref@facet@locale@std@@QAEXXZ
_TEXT	SEGMENT
__Lock$14246 = -4					; size = 4
?_Incref@facet@locale@std@@QAEXXZ PROC			; std::locale::facet::_Incref, COMDAT
; _this$ = ecx

; 117  : 			{	// safely increment the reference count

	push	ecx
	push	esi
	mov	esi, ecx

; 118  : 			_BEGIN_LOCK(_LOCK_LOCALE)

	push	0
	lea	ecx, DWORD PTR __Lock$14246[esp+12]
	call	??0_Lockit@std@@QAE@H@Z			; std::_Lockit::_Lockit

; 119  : 				if (_Refs < (size_t)(-1))

	mov	eax, DWORD PTR [esi+4]
	cmp	eax, -1
	jae	SHORT $LN1@Incref

; 120  : 					++_Refs;

	inc	eax
	mov	DWORD PTR [esi+4], eax
$LN1@Incref:

; 121  : 			_END_LOCK()

	lea	ecx, DWORD PTR __Lock$14246[esp+8]
	call	??1_Lockit@std@@QAE@XZ			; std::_Lockit::~_Lockit
	pop	esi

; 122  : 			}

	pop	ecx
	ret	0
?_Incref@facet@locale@std@@QAEXXZ ENDP			; std::locale::facet::_Incref
; Function compile flags: /Ogtpy
_TEXT	ENDS
;	COMDAT ??Bid@locale@std@@QAEIXZ
_TEXT	SEGMENT
__Lock$14240 = -4					; size = 4
??Bid@locale@std@@QAEIXZ PROC				; std::locale::id::operator unsigned int, COMDAT
; _this$ = esi

; 77   : 			{	// get stamp, with lazy allocation

	push	ecx

; 78   : 			if (_Id == 0)

	cmp	DWORD PTR [esi], 0
	jne	SHORT $LN6@operator

; 79   : 				{	// still zero, allocate stamp
; 80   : 				_BEGIN_LOCK(_LOCK_LOCALE)

	push	0
	lea	ecx, DWORD PTR __Lock$14240[esp+8]
	call	??0_Lockit@std@@QAE@H@Z			; std::_Lockit::_Lockit

; 81   : 					if (_Id == 0)

	cmp	DWORD PTR [esi], 0
	jne	SHORT $LN1@operator

; 82   : 						_Id = ++_Id_cnt;

	mov	eax, DWORD PTR ?_Id_cnt@id@locale@std@@0HA ; std::locale::id::_Id_cnt
	inc	eax
	mov	DWORD PTR ?_Id_cnt@id@locale@std@@0HA, eax ; std::locale::id::_Id_cnt
	mov	DWORD PTR [esi], eax
$LN1@operator:

; 83   : 				_END_LOCK()

	lea	ecx, DWORD PTR __Lock$14240[esp+4]
	call	??1_Lockit@std@@QAE@XZ			; std::_Lockit::~_Lockit
$LN6@operator:

; 84   : 				}
; 85   : 			return (_Id);

	mov	eax, DWORD PTR [esi]

; 86   : 			}

	pop	ecx
	ret	0
??Bid@locale@std@@QAEIXZ ENDP				; std::locale::id::operator unsigned int
; Function compile flags: /Ogtpy
_TEXT	ENDS
;	COMDAT ??0id@locale@std@@QAE@I@Z
_TEXT	SEGMENT
__Val$ = 8						; size = 4
??0id@locale@std@@QAE@I@Z PROC				; std::locale::id::id, COMDAT
; _this$ = ecx

; 73   : 			{	// construct with specified stamp value

	mov	eax, ecx
	mov	ecx, DWORD PTR __Val$[esp-4]
	mov	DWORD PTR [eax], ecx

; 74   : 			}

	ret	4
??0id@locale@std@@QAE@I@Z ENDP				; std::locale::id::id
; Function compile flags: /Ogtpy
; File c:\program files\microsoft visual studio 9.0\vc\include\xlocinfo
_TEXT	ENDS
;	COMDAT ?_Gettrue@_Locinfo@std@@QBEPBDXZ
_TEXT	SEGMENT
?_Gettrue@_Locinfo@std@@QBEPBDXZ PROC			; std::_Locinfo::_Gettrue, COMDAT

; 177  : 		return ("true");

	mov	eax, OFFSET ??_C@_04LOAJBDKD@true?$AA@

; 178  : 		}

	ret	0
?_Gettrue@_Locinfo@std@@QBEPBDXZ ENDP			; std::_Locinfo::_Gettrue
; Function compile flags: /Ogtpy
_TEXT	ENDS
;	COMDAT ?_Getfalse@_Locinfo@std@@QBEPBDXZ
_TEXT	SEGMENT
?_Getfalse@_Locinfo@std@@QBEPBDXZ PROC			; std::_Locinfo::_Getfalse, COMDAT

; 172  : 		return ("false");

	mov	eax, OFFSET ??_C@_05LAPONLG@false?$AA@

; 173  : 		}

	ret	0
?_Getfalse@_Locinfo@std@@QBEPBDXZ ENDP			; std::_Locinfo::_Getfalse
; Function compile flags: /Ogtpy
_TEXT	ENDS
;	COMDAT ?_Getlconv@_Locinfo@std@@QBEPBUlconv@@XZ
_TEXT	SEGMENT
?_Getlconv@_Locinfo@std@@QBEPBUlconv@@XZ PROC		; std::_Locinfo::_Getlconv, COMDAT

; 134  : 		return (localeconv());

	jmp	_localeconv
?_Getlconv@_Locinfo@std@@QBEPBUlconv@@XZ ENDP		; std::_Locinfo::_Getlconv
; Function compile flags: /Ogtpy
_TEXT	ENDS
;	COMDAT ?_Getcvt@_Locinfo@std@@QBE?AU_Cvtvec@@XZ
_TEXT	SEGMENT
?_Getcvt@_Locinfo@std@@QBE?AU_Cvtvec@@XZ PROC		; std::_Locinfo::_Getcvt, COMDAT
; ___$ReturnUdt$ = esi

; 129  : 		return (::_Getcvt());

	call	__Getcvt
	mov	DWORD PTR [esi], eax
	mov	DWORD PTR [esi+4], edx
	mov	eax, esi

; 130  : 		}

	ret	0
?_Getcvt@_Locinfo@std@@QBE?AU_Cvtvec@@XZ ENDP		; std::_Locinfo::_Getcvt
; Function compile flags: /Ogtpy
; File c:\program files\microsoft visual studio 9.0\vc\include\xutility
_TEXT	ENDS
;	COMDAT ?_Has_container@_Iterator_base_secure@std@@QBE_NXZ
_TEXT	SEGMENT
?_Has_container@_Iterator_base_secure@std@@QBE_NXZ PROC	; std::_Iterator_base_secure::_Has_container, COMDAT
; _this$ = ecx

; 582  : 		return _Mycont != 0;

	xor	eax, eax
	cmp	DWORD PTR [ecx], eax
	setne	al

; 583  : 		}

	ret	0
?_Has_container@_Iterator_base_secure@std@@QBE_NXZ ENDP	; std::_Iterator_base_secure::_Has_container
; Function compile flags: /Ogtpy
_TEXT	ENDS
;	COMDAT ??0_Iterator_base_secure@std@@QAE@XZ
_TEXT	SEGMENT
??0_Iterator_base_secure@std@@QAE@XZ PROC		; std::_Iterator_base_secure::_Iterator_base_secure, COMDAT
; _this$ = eax

; 567  : 		{

	mov	DWORD PTR [eax], 0

; 568  : 		}

	ret	0
??0_Iterator_base_secure@std@@QAE@XZ ENDP		; std::_Iterator_base_secure::_Iterator_base_secure
; Function compile flags: /Ogtpy
; File c:\program files\microsoft visual studio 9.0\vc\include\iosfwd
_TEXT	ENDS
;	COMDAT ?eof@?$char_traits@D@std@@SAHXZ
_TEXT	SEGMENT
?eof@?$char_traits@D@std@@SAHXZ PROC			; std::char_traits<char>::eof, COMDAT

; 517  : 		return (EOF);

	or	eax, -1

; 518  : 		}

	ret	0
?eof@?$char_traits@D@std@@SAHXZ ENDP			; std::char_traits<char>::eof
; Function compile flags: /Ogtpy
_TEXT	ENDS
;	COMDAT ?eq_int_type@?$char_traits@D@std@@SA_NABH0@Z
_TEXT	SEGMENT
?eq_int_type@?$char_traits@D@std@@SA_NABH0@Z PROC	; std::char_traits<char>::eq_int_type, COMDAT
; __Left$ = eax
; __Right$ = edx

; 512  : 		return (_Left == _Right);

	mov	ecx, DWORD PTR [eax]
	xor	eax, eax
	cmp	ecx, DWORD PTR [edx]
	sete	al

; 513  : 		}

	ret	0
?eq_int_type@?$char_traits@D@std@@SA_NABH0@Z ENDP	; std::char_traits<char>::eq_int_type
; Function compile flags: /Ogtpy
_TEXT	ENDS
;	COMDAT ?to_int_type@?$char_traits@D@std@@SAHABD@Z
_TEXT	SEGMENT
?to_int_type@?$char_traits@D@std@@SAHABD@Z PROC		; std::char_traits<char>::to_int_type, COMDAT
; __Ch$ = eax

; 506  : 		return ((unsigned char)_Ch);

	movzx	eax, BYTE PTR [eax]

; 507  : 		}

	ret	0
?to_int_type@?$char_traits@D@std@@SAHABD@Z ENDP		; std::char_traits<char>::to_int_type
; Function compile flags: /Ogtpy
_TEXT	ENDS
;	COMDAT ?to_char_type@?$char_traits@D@std@@SADABH@Z
_TEXT	SEGMENT
?to_char_type@?$char_traits@D@std@@SADABH@Z PROC	; std::char_traits<char>::to_char_type, COMDAT
; __Meta$ = eax

; 501  : 		return ((_Elem)_Meta);

	mov	al, BYTE PTR [eax]

; 502  : 		}

	ret	0
?to_char_type@?$char_traits@D@std@@SADABH@Z ENDP	; std::char_traits<char>::to_char_type
; Function compile flags: /Ogtpy
_TEXT	ENDS
;	COMDAT ?assign@?$char_traits@D@std@@SAPADPADID@Z
_TEXT	SEGMENT
__First$ = 8						; size = 4
?assign@?$char_traits@D@std@@SAPADPADID@Z PROC		; std::char_traits<char>::assign, COMDAT
; __Count$ = eax
; __Ch$ = ecx

; 495  : //		_DEBUG_POINTER(_First);
; 496  : 		return ((_Elem *)::memset(_First, _Ch, _Count));

	mov	edx, DWORD PTR __First$[esp-4]
	movsx	ecx, cl
	push	eax
	push	ecx
	push	edx
	call	_memset
	add	esp, 12					; 0000000cH

; 497  : 		}

	ret	0
?assign@?$char_traits@D@std@@SAPADPADID@Z ENDP		; std::char_traits<char>::assign
; Function compile flags: /Ogtpy
_TEXT	ENDS
;	COMDAT ?eq@?$char_traits@D@std@@SA_NABD0@Z
_TEXT	SEGMENT
?eq@?$char_traits@D@std@@SA_NABD0@Z PROC		; std::char_traits<char>::eq, COMDAT
; __Left$ = eax
; __Right$ = edx

; 430  : 		return (_Left == _Right);

	mov	cl, BYTE PTR [eax]
	xor	eax, eax
	cmp	cl, BYTE PTR [edx]
	sete	al

; 431  : 		}

	ret	0
?eq@?$char_traits@D@std@@SA_NABD0@Z ENDP		; std::char_traits<char>::eq
; Function compile flags: /Ogtpy
; File c:\program files\microsoft visual studio 9.0\vc\include\xlocale
;	COMDAT ??$_Maklocstr@D@std@@YAPADPBDPADABU_Cvtvec@@@Z
_TEXT	SEGMENT
??$_Maklocstr@D@std@@YAPADPBDPADABU_Cvtvec@@@Z PROC	; std::_Maklocstr<char>, COMDAT
; __Ptr$ = eax

; 624  : 	{	// convert C string to _Elem sequence using _Cvtvec

	push	esi
	push	edi
	mov	edi, eax

; 625  : 	size_t _Count = ::strlen(_Ptr) + 1;

	lea	edx, DWORD PTR [eax+1]
$LL11@Maklocstr:
	mov	cl, BYTE PTR [eax]
	inc	eax
	test	cl, cl
	jne	SHORT $LL11@Maklocstr
	sub	eax, edx

; 626  : 	_Elem *_Ptrdest = _NEW_CRT _Elem[_Count];

	cmp	DWORD PTR ?RenVecNew@@3P6APAXK@ZA, 0	; RenVecNew
	lea	esi, DWORD PTR [eax+1]
	jne	SHORT $LN6@Maklocstr
	call	?InitEngine@@YAXXZ			; InitEngine
$LN6@Maklocstr:
	push	esi
	call	DWORD PTR ?RenVecNew@@3P6APAXK@ZA	; RenVecNew
	add	esp, 4

; 627  : 
; 628  : #pragma warning(push)
; 629  : #pragma warning(disable: 6011)
; 630  : 	/* prefast noise */
; 631  : 	for (_Elem *_Ptrnext = _Ptrdest; 0 < _Count; --_Count, ++_Ptrnext, ++_Ptr)

	mov	ecx, eax
	test	esi, esi
	jbe	SHORT $LN1@Maklocstr
$LL3@Maklocstr:

; 632  : 		*_Ptrnext = (_Elem)(unsigned char)*_Ptr;

	mov	dl, BYTE PTR [edi]
	mov	BYTE PTR [ecx], dl
	dec	esi
	inc	ecx
	inc	edi
	test	esi, esi
	ja	SHORT $LL3@Maklocstr
$LN1@Maklocstr:
	pop	edi
	pop	esi

; 633  : 	return (_Ptrdest);
; 634  : #pragma warning(pop)
; 635  : 	}

	ret	0
??$_Maklocstr@D@std@@YAPADPBDPADABU_Cvtvec@@@Z ENDP	; std::_Maklocstr<char>
_TEXT	ENDS
EXTRN	__CxxThrowException@8:PROC
EXTRN	___CxxFrameHandler3:PROC
;	COMDAT xdata$x
xdata$x	SEGMENT
__unwindtable$?_Init@?$numpunct@D@std@@IAEXABV_Locinfo@2@_N@Z DD 0ffffffffH
	DD	00H
	DD	0ffffffffH
	DD	00H
__catchsym$?_Init@?$numpunct@D@std@@IAEXABV_Locinfo@2@_N@Z$2 DD 040H
	DD	00H
	DD	00H
	DD	FLAT:__catch$?_Init@?$numpunct@D@std@@IAEXABV_Locinfo@2@_N@Z$0
__tryblocktable$?_Init@?$numpunct@D@std@@IAEXABV_Locinfo@2@_N@Z DD 00H
	DD	00H
	DD	01H
	DD	01H
	DD	FLAT:__catchsym$?_Init@?$numpunct@D@std@@IAEXABV_Locinfo@2@_N@Z$2
__ehfuncinfo$?_Init@?$numpunct@D@std@@IAEXABV_Locinfo@2@_N@Z DD 019930522H
	DD	02H
	DD	FLAT:__unwindtable$?_Init@?$numpunct@D@std@@IAEXABV_Locinfo@2@_N@Z
	DD	01H
	DD	FLAT:__tryblocktable$?_Init@?$numpunct@D@std@@IAEXABV_Locinfo@2@_N@Z
	DD	2 DUP(00H)
	DD	00H
	DD	01H
; Function compile flags: /Ogtpy
; File c:\program files\microsoft visual studio 9.0\vc\include\xlocnum
xdata$x	ENDS
;	COMDAT ?_Init@?$numpunct@D@std@@IAEXABV_Locinfo@2@_N@Z
_TEXT	SEGMENT
__Ptr$ = -20						; size = 4
__$EHRec$ = -16						; size = 16
_this$ = 8						; size = 4
?_Init@?$numpunct@D@std@@IAEXABV_Locinfo@2@_N@Z PROC	; std::numpunct<char>::_Init, COMDAT

; 135  : 		{	// initialize from _Lobj

	push	ebp
	mov	ebp, esp
	push	-1
	push	__ehhandler$?_Init@?$numpunct@D@std@@IAEXABV_Locinfo@2@_N@Z
	mov	eax, DWORD PTR fs:0
	push	eax
	mov	DWORD PTR fs:0, esp
	sub	esp, 12					; 0000000cH
	push	ebx
	mov	ebx, DWORD PTR _this$[ebp]
	push	esi
	push	edi
	mov	DWORD PTR __$EHRec$[ebp], esp

; 136  : 		const lconv *_Ptr = _Lobj._Getlconv();

	call	_localeconv
	mov	esi, eax

; 137  : 
; 138  : 		_Grouping = 0;

	xor	eax, eax
	mov	DWORD PTR __Ptr$[ebp], esi
	mov	DWORD PTR [ebx+8], eax

; 139  : 		_Falsename = 0;

	mov	DWORD PTR [ebx+16], eax

; 140  : 		_Truename = 0;

	mov	DWORD PTR [ebx+20], eax

; 141  : 
; 142  : 		_TRY_BEGIN

	mov	DWORD PTR __$EHRec$[ebp+12], eax

; 143  : 		_Grouping = _MAKLOCSTR(char, _Ptr->grouping, _Lobj._Getcvt());

	call	__Getcvt
	mov	edi, DWORD PTR [esi+8]
	mov	eax, edi
	lea	edx, DWORD PTR [eax+1]
	npad	7
$LL77@Init:
	mov	cl, BYTE PTR [eax]
	inc	eax
	test	cl, cl
	jne	SHORT $LL77@Init
	sub	eax, edx
	cmp	DWORD PTR ?RenVecNew@@3P6APAXK@ZA, 0	; RenVecNew
	lea	esi, DWORD PTR [eax+1]
	jne	SHORT $LN18@Init
	call	?InitEngine@@YAXXZ			; InitEngine
$LN18@Init:
	push	esi
	call	DWORD PTR ?RenVecNew@@3P6APAXK@ZA	; RenVecNew
	add	esp, 4
	mov	ecx, eax
$LL15@Init:
	test	esi, esi
	jbe	SHORT $LN13@Init
	mov	dl, BYTE PTR [edi]
	mov	BYTE PTR [ecx], dl
	dec	esi
	inc	ecx
	inc	edi
	jmp	SHORT $LL15@Init
$LN13@Init:
	mov	DWORD PTR [ebx+8], eax

; 144  : 		_Falsename = _MAKLOCSTR(_Elem, _Lobj._Getfalse(), _Lobj._Getcvt());

	call	__Getcvt
	mov	edi, OFFSET ??_C@_05LAPONLG@false?$AA@
	mov	eax, edi
	lea	edx, DWORD PTR [eax+1]
$LL78@Init:
	mov	cl, BYTE PTR [eax]
	inc	eax
	test	cl, cl
	jne	SHORT $LL78@Init
	sub	eax, edx
	cmp	DWORD PTR ?RenVecNew@@3P6APAXK@ZA, 0	; RenVecNew
	lea	esi, DWORD PTR [eax+1]
	jne	SHORT $LN30@Init
	call	?InitEngine@@YAXXZ			; InitEngine
$LN30@Init:
	push	esi
	call	DWORD PTR ?RenVecNew@@3P6APAXK@ZA	; RenVecNew
	add	esp, 4
	mov	ecx, eax
	npad	5
$LL27@Init:
	test	esi, esi
	jbe	SHORT $LN25@Init
	mov	dl, BYTE PTR [edi]
	mov	BYTE PTR [ecx], dl
	dec	esi
	inc	ecx
	inc	edi
	jmp	SHORT $LL27@Init
$LN25@Init:
	mov	DWORD PTR [ebx+16], eax

; 145  : 		_Truename = _MAKLOCSTR(_Elem, _Lobj._Gettrue(), _Lobj._Getcvt());

	call	__Getcvt
	mov	edi, OFFSET ??_C@_04LOAJBDKD@true?$AA@
	mov	eax, edi
	lea	edx, DWORD PTR [eax+1]
	npad	1
$LL79@Init:
	mov	cl, BYTE PTR [eax]
	inc	eax
	test	cl, cl
	jne	SHORT $LL79@Init
	sub	eax, edx
	cmp	DWORD PTR ?RenVecNew@@3P6APAXK@ZA, 0	; RenVecNew
	lea	esi, DWORD PTR [eax+1]
	jne	SHORT $LN42@Init
	call	?InitEngine@@YAXXZ			; InitEngine
$LN42@Init:
	push	esi
	call	DWORD PTR ?RenVecNew@@3P6APAXK@ZA	; RenVecNew
	add	esp, 4
	mov	ecx, eax
$LL39@Init:
	test	esi, esi
	jbe	SHORT $LN37@Init
	mov	dl, BYTE PTR [edi]
	mov	BYTE PTR [ecx], dl
	dec	esi
	inc	ecx
	inc	edi
	jmp	SHORT $LL39@Init
$LN37@Init:
	mov	DWORD PTR [ebx+20], eax
	mov	DWORD PTR __$EHRec$[ebp+12], -1

; 149  : 		_CATCH_END
; 150  : 
; 151  : 		_Dp = _MAKLOCCHR(_Elem, _Ptr->decimal_point[0], _Lobj._Getcvt());

	call	__Getcvt
	mov	esi, DWORD PTR __Ptr$[ebp]
	mov	eax, DWORD PTR [esi]
	mov	cl, BYTE PTR [eax]
	mov	BYTE PTR [ebx+12], cl

; 152  : 		_Kseparator =
; 153  : 			_MAKLOCCHR(_Elem, _Ptr->thousands_sep[0], _Lobj._Getcvt());

	call	__Getcvt
	mov	edx, DWORD PTR [esi+4]
	mov	al, BYTE PTR [edx]
	mov	BYTE PTR [ebx+13], al

; 154  : 
; 155  : 		if (_Isdef)

	mov	al, 1
	test	al, al
	je	SHORT $LN1@Init

; 156  : 			{	// apply defaults for required facets
; 157  : 			_Grouping = _MAKLOCSTR(char, "", _Lobj._Getcvt());

	call	__Getcvt
	mov	edi, OFFSET ??_C@_00CNPNBAHC@?$AA@
	mov	eax, edi
	lea	edx, DWORD PTR [eax+1]
	npad	2
$LL80@Init:
	mov	cl, BYTE PTR [eax]
	inc	eax
	test	cl, cl
	jne	SHORT $LL80@Init
	sub	eax, edx
	cmp	DWORD PTR ?RenVecNew@@3P6APAXK@ZA, 0	; RenVecNew
	lea	esi, DWORD PTR [eax+1]
	jne	SHORT $LN60@Init
	call	?InitEngine@@YAXXZ			; InitEngine
$LN60@Init:
	push	esi
	call	DWORD PTR ?RenVecNew@@3P6APAXK@ZA	; RenVecNew
	add	esp, 4
	mov	ecx, eax
	test	esi, esi
	jbe	SHORT $LN55@Init
	npad	6
$LL57@Init:
	mov	dl, BYTE PTR [edi]
	mov	BYTE PTR [ecx], dl
	dec	esi
	inc	ecx
	inc	edi
	test	esi, esi
	ja	SHORT $LL57@Init
$LN55@Init:
	mov	DWORD PTR [ebx+8], eax

; 158  : 			_Dp = _MAKLOCCHR(_Elem, '.', _Lobj._Getcvt());

	call	__Getcvt
	mov	BYTE PTR [ebx+12], 46			; 0000002eH

; 159  : 			_Kseparator = _MAKLOCCHR(_Elem, ',', _Lobj._Getcvt());

	call	__Getcvt
	mov	BYTE PTR [ebx+13], 44			; 0000002cH
$LN1@Init:

; 160  : 			}
; 161  : 		}

	mov	ecx, DWORD PTR __$EHRec$[ebp+4]
	pop	edi
	pop	esi
	mov	DWORD PTR fs:0, ecx
	pop	ebx
	mov	esp, ebp
	pop	ebp
	ret	4
__catch$?_Init@?$numpunct@D@std@@IAEXABV_Locinfo@2@_N@Z$0:

; 146  : 		_CATCH_ALL
; 147  : 		_Tidy();

	mov	esi, DWORD PTR _this$[ebp]
	call	?_Tidy@?$numpunct@D@std@@AAEXXZ		; std::numpunct<char>::_Tidy

; 148  : 		_RERAISE;

	push	0
	push	0
	call	__CxxThrowException@8
$LN83@Init:
$LN82@Init:
	int	3
_TEXT	ENDS
;	COMDAT text$x
text$x	SEGMENT
__ehhandler$?_Init@?$numpunct@D@std@@IAEXABV_Locinfo@2@_N@Z:
	mov	eax, OFFSET __ehfuncinfo$?_Init@?$numpunct@D@std@@IAEXABV_Locinfo@2@_N@Z
	jmp	___CxxFrameHandler3
text$x	ENDS
?_Init@?$numpunct@D@std@@IAEXABV_Locinfo@2@_N@Z ENDP	; std::numpunct<char>::_Init
;	COMDAT xdata$x
; File c:\program files\microsoft visual studio 9.0\vc\include\xlocale
xdata$x	SEGMENT
__unwindtable$??0?$numpunct@D@std@@QAE@ABV_Locinfo@1@I_N@Z DD 0ffffffffH
	DD	FLAT:__unwindfunclet$??0?$numpunct@D@std@@QAE@ABV_Locinfo@1@I_N@Z$0
__ehfuncinfo$??0?$numpunct@D@std@@QAE@ABV_Locinfo@1@I_N@Z DD 019930522H
	DD	01H
	DD	FLAT:__unwindtable$??0?$numpunct@D@std@@QAE@ABV_Locinfo@1@I_N@Z
	DD	2 DUP(00H)
	DD	2 DUP(00H)
	DD	00H
	DD	01H
; Function compile flags: /Ogtpy
; File c:\program files\microsoft visual studio 9.0\vc\include\xlocnum
xdata$x	ENDS
;	COMDAT ??0?$numpunct@D@std@@QAE@ABV_Locinfo@1@I_N@Z
_TEXT	SEGMENT
__$EHRec$ = -12						; size = 12
_this$ = 8						; size = 4
??0?$numpunct@D@std@@QAE@ABV_Locinfo@1@I_N@Z PROC	; std::numpunct<char>::numpunct<char>, COMDAT

; 106  : 		{	// construct from specified locale

	mov	eax, DWORD PTR fs:0
	push	-1
	push	__ehhandler$??0?$numpunct@D@std@@QAE@ABV_Locinfo@1@I_N@Z
	push	eax
	mov	DWORD PTR fs:0, esp
	push	esi
	mov	esi, DWORD PTR _this$[esp+12]
	xor	eax, eax
	mov	DWORD PTR [esi+4], eax
	mov	DWORD PTR __$EHRec$[esp+24], eax

; 107  : 		_Init(_Lobj, _Isdef);

	push	esi
	mov	DWORD PTR [esi], OFFSET ??_7?$numpunct@D@std@@6B@
	call	?_Init@?$numpunct@D@std@@IAEXABV_Locinfo@2@_N@Z ; std::numpunct<char>::_Init

; 108  : 		}

	mov	ecx, DWORD PTR __$EHRec$[esp+16]
	mov	eax, esi
	mov	DWORD PTR fs:0, ecx
	pop	esi
	add	esp, 12					; 0000000cH
	ret	4
_TEXT	ENDS
;	COMDAT text$x
text$x	SEGMENT
__unwindfunclet$??0?$numpunct@D@std@@QAE@ABV_Locinfo@1@I_N@Z$0:
	mov	ecx, DWORD PTR _this$[ebp-4]
	jmp	??1facet@locale@std@@UAE@XZ		; std::locale::facet::~facet
__ehhandler$??0?$numpunct@D@std@@QAE@ABV_Locinfo@1@I_N@Z:
	mov	eax, OFFSET __ehfuncinfo$??0?$numpunct@D@std@@QAE@ABV_Locinfo@1@I_N@Z
	jmp	___CxxFrameHandler3
text$x	ENDS
??0?$numpunct@D@std@@QAE@ABV_Locinfo@1@I_N@Z ENDP	; std::numpunct<char>::numpunct<char>
; Function compile flags: /Ogtpy
; File c:\program files\microsoft visual studio 9.0\vc\include\xstring
;	COMDAT ??A?$basic_string@DU?$char_traits@D@std@@V?$allocator@D@2@@std@@QAEAADI@Z
_TEXT	SEGMENT
??A?$basic_string@DU?$char_traits@D@std@@V?$allocator@D@2@@std@@QAEAADI@Z PROC ; std::basic_string<char,std::char_traits<char>,std::allocator<char> >::operator[], COMDAT
; _this$ = eax

; 1558 : 
; 1559 :  #if _HAS_ITERATOR_DEBUGGING
; 1560 : 		// skip debug checks if the container is initizialed with _IGNORE_MYITERLIST
; 1561 : 		if (this->_Myfirstiter != _IGNORE_MYITERLIST)
; 1562 : 			{
; 1563 : 			if (_Mysize < _Off)
; 1564 : 				{
; 1565 : 				_DEBUG_ERROR("string subscript out of range");
; 1566 : 				_SCL_SECURE_OUT_OF_RANGE;
; 1567 : 				}
; 1568 : 			}
; 1569 :  #else
; 1570 : 		_SCL_SECURE_VALIDATE_RANGE(_Off <= _Mysize);
; 1571 :  #endif /* _HAS_ITERATOR_DEBUGGING */
; 1572 : 
; 1573 : 		return (_Myptr()[_Off]);

	cmp	DWORD PTR [eax+24], 16			; 00000010H
	jb	SHORT $LN6@operator@4
	mov	eax, DWORD PTR [eax+4]

; 1574 : 		}

	ret	0

; 1558 : 
; 1559 :  #if _HAS_ITERATOR_DEBUGGING
; 1560 : 		// skip debug checks if the container is initizialed with _IGNORE_MYITERLIST
; 1561 : 		if (this->_Myfirstiter != _IGNORE_MYITERLIST)
; 1562 : 			{
; 1563 : 			if (_Mysize < _Off)
; 1564 : 				{
; 1565 : 				_DEBUG_ERROR("string subscript out of range");
; 1566 : 				_SCL_SECURE_OUT_OF_RANGE;
; 1567 : 				}
; 1568 : 			}
; 1569 :  #else
; 1570 : 		_SCL_SECURE_VALIDATE_RANGE(_Off <= _Mysize);
; 1571 :  #endif /* _HAS_ITERATOR_DEBUGGING */
; 1572 : 
; 1573 : 		return (_Myptr()[_Off]);

$LN6@operator@4:
	add	eax, 4

; 1574 : 		}

	ret	0
??A?$basic_string@DU?$char_traits@D@std@@V?$allocator@D@2@@std@@QAEAADI@Z ENDP ; std::basic_string<char,std::char_traits<char>,std::allocator<char> >::operator[]
; Function compile flags: /Ogtpy
; File c:\program files\microsoft visual studio 9.0\vc\include\xlocnum
_TEXT	ENDS
;	COMDAT ??1?$numpunct@D@std@@MAE@XZ
_TEXT	SEGMENT
??1?$numpunct@D@std@@MAE@XZ PROC			; std::numpunct<char>::~numpunct<char>, COMDAT
; _this$ = ecx

; 121  : 		{	// destroy the object

	push	esi
	mov	esi, ecx

; 122  : 		_Tidy();

	mov	eax, DWORD PTR [esi+8]
	push	eax
	mov	DWORD PTR [esi], OFFSET ??_7?$numpunct@D@std@@6B@
	call	DWORD PTR ?RenVecDelete@@3P6AXPAX@ZA	; RenVecDelete
	mov	ecx, DWORD PTR [esi+16]
	push	ecx
	call	DWORD PTR ?RenVecDelete@@3P6AXPAX@ZA	; RenVecDelete
	mov	edx, DWORD PTR [esi+20]
	push	edx
	call	DWORD PTR ?RenVecDelete@@3P6AXPAX@ZA	; RenVecDelete
	add	esp, 12					; 0000000cH

; 123  : 		}

	mov	DWORD PTR [esi], OFFSET ??_7facet@locale@std@@6B@
	pop	esi
	ret	0
??1?$numpunct@D@std@@MAE@XZ ENDP			; std::numpunct<char>::~numpunct<char>
; Function compile flags: /Ogtpy
_TEXT	ENDS
;	COMDAT ??1?$num_put@DV?$ostreambuf_iterator@DU?$char_traits@D@std@@@std@@@std@@MAE@XZ
_TEXT	SEGMENT
??1?$num_put@DV?$ostreambuf_iterator@DU?$char_traits@D@std@@@std@@@std@@MAE@XZ PROC ; std::num_put<char,std::ostreambuf_iterator<char,std::char_traits<char> > >::~num_put<char,std::ostreambuf_iterator<char,std::char_traits<char> > >, COMDAT
; _this$ = ecx

; 1042 : 		}

	mov	DWORD PTR [ecx], OFFSET ??_7facet@locale@std@@6B@
	ret	0
??1?$num_put@DV?$ostreambuf_iterator@DU?$char_traits@D@std@@@std@@@std@@MAE@XZ ENDP ; std::num_put<char,std::ostreambuf_iterator<char,std::char_traits<char> > >::~num_put<char,std::ostreambuf_iterator<char,std::char_traits<char> > >
; Function compile flags: /Ogtpy
; File c:\program files\microsoft visual studio 9.0\vc\include\sstream
_TEXT	ENDS
;	COMDAT ?_Tidy@?$basic_stringbuf@DU?$char_traits@D@std@@V?$allocator@D@2@@std@@IAEXXZ
_TEXT	SEGMENT
?_Tidy@?$basic_stringbuf@DU?$char_traits@D@std@@V?$allocator@D@2@@std@@IAEXXZ PROC ; std::basic_stringbuf<char,std::char_traits<char>,std::allocator<char> >::_Tidy, COMDAT
; _this$ = esi

; 301  : 		if (_Mystate & _Allocated)

	test	BYTE PTR [esi+64], 1
	je	SHORT $LN18@Tidy@3

; 302  : 			_Al.deallocate(_Mysb::eback(),
; 303  : 				(_Mysb::pptr() != 0 ? _Mysb::epptr()
; 304  : 					: _Mysb::egptr()) - _Mysb::eback());

	mov	eax, DWORD PTR [esi+16]
	mov	ecx, DWORD PTR [eax]
	push	ecx
	call	DWORD PTR ?RenDelete@@3P6AXPAX@ZA	; RenDelete
	add	esp, 4
$LN18@Tidy@3:

; 305  : 		_Mysb::setg(0, 0, 0);

	mov	edx, DWORD PTR [esi+16]
	mov	DWORD PTR [edx], 0
	mov	eax, DWORD PTR [esi+32]
	mov	DWORD PTR [eax], 0
	mov	ecx, DWORD PTR [esi+48]
	mov	DWORD PTR [ecx], 0

; 306  : 		_Mysb::setp(0, 0);

	mov	edx, DWORD PTR [esi+20]
	mov	DWORD PTR [edx], 0
	mov	eax, DWORD PTR [esi+36]
	mov	DWORD PTR [eax], 0
	mov	ecx, DWORD PTR [esi+52]
	mov	DWORD PTR [ecx], 0

; 307  : 		_Seekhigh = 0;
; 308  : 		_Mystate &= ~_Allocated;

	and	DWORD PTR [esi+64], -2			; fffffffeH
	mov	DWORD PTR [esi+60], 0

; 309  : 		}

	ret	0
?_Tidy@?$basic_stringbuf@DU?$char_traits@D@std@@V?$allocator@D@2@@std@@IAEXXZ ENDP ; std::basic_stringbuf<char,std::char_traits<char>,std::allocator<char> >::_Tidy
; Function compile flags: /Ogtpy
_TEXT	ENDS
;	COMDAT ?seekpos@?$basic_stringbuf@DU?$char_traits@D@std@@V?$allocator@D@2@@std@@MAE?AV?$fpos@H@2@V32@H@Z
_TEXT	SEGMENT
___$ReturnUdt$ = 8					; size = 4
__Ptr$ = 12						; size = 24
__Mode$ = 36						; size = 4
?seekpos@?$basic_stringbuf@DU?$char_traits@D@std@@V?$allocator@D@2@@std@@MAE?AV?$fpos@H@2@V32@H@Z PROC ; std::basic_stringbuf<char,std::char_traits<char>,std::allocator<char> >::seekpos, COMDAT
; _this$ = ecx

; 240  : 		streamoff _Off = (streamoff)_Ptr;

	mov	eax, DWORD PTR __Ptr$[esp-4]
	mov	edx, DWORD PTR __Ptr$[esp+4]
	push	ebp
	push	edi

; 241  : 		if (_Mysb::pptr() != 0 && _Seekhigh < _Mysb::pptr())

	mov	edi, DWORD PTR [ecx+36]
	add	edx, eax
	mov	eax, DWORD PTR [edi]
	test	eax, eax
	je	SHORT $LN12@seekpos
	cmp	DWORD PTR [ecx+60], eax
	jae	SHORT $LN12@seekpos

; 242  : 			_Seekhigh = _Mysb::pptr();	// update high-water pointer

	mov	DWORD PTR [ecx+60], eax
$LN12@seekpos:

; 243  : 
; 244  : 		if (_Off == _BADOFF)

	mov	ebp, DWORD PTR ?_BADOFF@std@@3JB	; std::_BADOFF
	cmp	edx, ebp
	je	$LN56@seekpos
	push	ebx

; 245  : 			;
; 246  : 		else if (_Mode & ios_base::in && _Mysb::gptr() != 0)

	mov	bl, BYTE PTR __Mode$[esp+8]
	push	esi
	test	bl, 1
	je	SHORT $LN55@seekpos
	mov	eax, DWORD PTR [ecx+32]
	mov	esi, DWORD PTR [eax]
	test	esi, esi
	je	SHORT $LN55@seekpos

; 247  : 			{	// position within read buffer
; 248  : 			if (0 <= _Off && _Off <= _Seekhigh - _Mysb::eback())

	test	edx, edx
	jl	SHORT $LN4@seekpos
	mov	eax, DWORD PTR [ecx+16]
	mov	eax, DWORD PTR [eax]
	mov	edi, DWORD PTR [ecx+60]
	sub	edi, eax
	cmp	edx, edi
	jg	SHORT $LN4@seekpos

; 249  : 				{	// change read position
; 250  : 				_Mysb::gbump((int)(_Mysb::eback() - _Mysb::gptr() + _Off));

	sub	eax, esi
	mov	esi, DWORD PTR [ecx+48]
	add	eax, edx
	sub	DWORD PTR [esi], eax
	mov	esi, DWORD PTR [ecx+32]
	add	DWORD PTR [esi], eax

; 251  : 				if (_Mode & ios_base::out && _Mysb::pptr() != 0)

	test	bl, 2
	je	SHORT $LN57@seekpos
	mov	edi, DWORD PTR [ecx+36]
	mov	ebx, DWORD PTR [edi]
	test	ebx, ebx
	je	SHORT $LN57@seekpos

; 252  : 					_Mysb::setp(_Mysb::pbase(), _Mysb::gptr(),
; 253  : 						_Mysb::epptr());	// change write position to match

	mov	eax, DWORD PTR [ecx+32]
	mov	esi, DWORD PTR [eax]
	mov	eax, DWORD PTR [ecx+52]
	mov	eax, DWORD PTR [eax]
	add	eax, ebx
	mov	DWORD PTR [edi], esi
	mov	ecx, DWORD PTR [ecx+52]
	sub	eax, esi
	mov	DWORD PTR [ecx], eax

; 254  : 				}
; 255  : 			else
; 256  : 				_Off = _BADOFF;

	jmp	SHORT $LN57@seekpos
$LN55@seekpos:

; 257  : 			}
; 258  : 		else if (_Mode & ios_base::out && _Mysb::pptr() != 0)

	test	bl, 2
	je	SHORT $LN4@seekpos
	mov	edi, DWORD PTR [edi]
	test	edi, edi
	je	SHORT $LN4@seekpos

; 259  : 			{	// position within write buffer
; 260  : 			if (0 <= _Off && _Off <= _Seekhigh - _Mysb::eback())

	test	edx, edx
	jl	SHORT $LN4@seekpos
	mov	eax, DWORD PTR [ecx+16]
	mov	eax, DWORD PTR [eax]
	mov	esi, DWORD PTR [ecx+60]
	sub	esi, eax
	cmp	edx, esi
	jg	SHORT $LN4@seekpos

; 261  : 				_Mysb::pbump((int)(_Mysb::eback()
; 262  : 					- _Mysb::pptr() + _Off));	// change write position

	mov	esi, DWORD PTR [ecx+52]
	sub	eax, edi
	add	eax, edx
	sub	DWORD PTR [esi], eax
	mov	ecx, DWORD PTR [ecx+36]
	add	DWORD PTR [ecx], eax

; 263  : 			else

	jmp	SHORT $LN57@seekpos
$LN4@seekpos:

; 264  : 				_Off = _BADOFF;
; 265  : 			}
; 266  : 		else
; 267  : 			_Off = _BADOFF;

	mov	edx, ebp
$LN57@seekpos:
	pop	esi
	pop	ebx
$LN56@seekpos:

; 268  : 		return (streampos(_Off));

	mov	eax, DWORD PTR ___$ReturnUdt$[esp+4]
	xor	ecx, ecx
	pop	edi
	mov	DWORD PTR [eax], edx
	mov	DWORD PTR [eax+8], ecx
	mov	DWORD PTR [eax+12], ecx
	mov	DWORD PTR [eax+16], ecx
	pop	ebp

; 269  : 		}

	ret	32					; 00000020H
?seekpos@?$basic_stringbuf@DU?$char_traits@D@std@@V?$allocator@D@2@@std@@MAE?AV?$fpos@H@2@V32@H@Z ENDP ; std::basic_stringbuf<char,std::char_traits<char>,std::allocator<char> >::seekpos
; Function compile flags: /Ogtpy
_TEXT	ENDS
;	COMDAT ?seekoff@?$basic_stringbuf@DU?$char_traits@D@std@@V?$allocator@D@2@@std@@MAE?AV?$fpos@H@2@JHH@Z
_TEXT	SEGMENT
___$ReturnUdt$ = 8					; size = 4
__Off$ = 12						; size = 4
__Way$ = 16						; size = 4
__Which$ = 20						; size = 4
?seekoff@?$basic_stringbuf@DU?$char_traits@D@std@@V?$allocator@D@2@@std@@MAE?AV?$fpos@H@2@JHH@Z PROC ; std::basic_stringbuf<char,std::char_traits<char>,std::allocator<char> >::seekoff, COMDAT
; _this$ = ecx

; 194  : 		if (_Mysb::pptr() != 0 && _Seekhigh < _Mysb::pptr())

	mov	edx, DWORD PTR [ecx+36]
	mov	eax, DWORD PTR [edx]
	test	eax, eax
	je	SHORT $LN20@seekoff
	cmp	DWORD PTR [ecx+60], eax
	jae	SHORT $LN20@seekoff

; 195  : 			_Seekhigh = _Mysb::pptr();	// update high-water pointer

	mov	DWORD PTR [ecx+60], eax
$LN20@seekoff:
	push	ebx

; 196  : 
; 197  : 		if (_Which & ios_base::in && _Mysb::gptr() != 0)

	mov	bl, BYTE PTR __Which$[esp]
	push	esi
	push	edi
	test	bl, 1
	je	$LN19@seekoff
	mov	eax, DWORD PTR [ecx+32]
	mov	esi, DWORD PTR [eax]
	test	esi, esi
	je	$LN19@seekoff

; 198  : 			{	// position within read buffer
; 199  : 			if (_Way == ios_base::end)

	mov	eax, DWORD PTR __Way$[esp+8]
	mov	edi, DWORD PTR ?_BADOFF@std@@3JB	; std::_BADOFF
	cmp	eax, 2
	jne	SHORT $LN18@seekoff

; 200  : 				_Off += (off_type)(_Seekhigh - _Mysb::eback());

	mov	edx, DWORD PTR [ecx+16]
	mov	eax, DWORD PTR [ecx+60]
	sub	eax, DWORD PTR [edx]
	mov	edx, DWORD PTR __Off$[esp+8]
	add	edx, eax

; 201  : 			else if (_Way == ios_base::cur

	jmp	SHORT $LN14@seekoff
$LN18@seekoff:

; 202  : 				&& (_Which & ios_base::out) == 0)

	cmp	eax, 1
	jne	SHORT $LN16@seekoff
	test	bl, 2
	jne	SHORT $LN73@seekoff

; 203  : 				_Off += (off_type)(_Mysb::gptr() - _Mysb::eback());

	mov	edx, DWORD PTR [ecx+16]
	mov	eax, esi
	sub	eax, DWORD PTR [edx]
	mov	edx, DWORD PTR __Off$[esp+8]
	add	edx, eax
	jmp	SHORT $LN14@seekoff
$LN16@seekoff:

; 204  : 			else if (_Way != ios_base::beg)

	test	eax, eax
	je	SHORT $LN74@seekoff
$LN73@seekoff:

; 205  : 				_Off = _BADOFF;

	mov	edx, edi
	jmp	SHORT $LN14@seekoff
$LN74@seekoff:
	mov	edx, DWORD PTR __Off$[esp+8]
$LN14@seekoff:

; 206  : 
; 207  : 			if (0 <= _Off && _Off <= _Seekhigh - _Mysb::eback())

	test	edx, edx
	jl	$LN3@seekoff
	mov	eax, DWORD PTR [ecx+16]
	mov	eax, DWORD PTR [eax]
	push	ebp
	mov	ebp, DWORD PTR [ecx+60]
	sub	ebp, eax
	cmp	edx, ebp
	pop	ebp
	jg	$LN3@seekoff

; 208  : 				{	// change read position
; 209  : 				_Mysb::gbump((int)(_Mysb::eback() - _Mysb::gptr() + _Off));

	sub	eax, esi
	mov	esi, DWORD PTR [ecx+48]
	add	eax, edx
	sub	DWORD PTR [esi], eax
	mov	esi, DWORD PTR [ecx+32]
	add	DWORD PTR [esi], eax

; 210  : 				if (_Which & ios_base::out && _Mysb::pptr() != 0)

	test	bl, 2
	je	$LN77@seekoff
	mov	edi, DWORD PTR [ecx+36]
	mov	ebx, DWORD PTR [edi]
	test	ebx, ebx
	je	$LN77@seekoff

; 211  : 					_Mysb::setp(_Mysb::pbase(), _Mysb::gptr(),
; 212  : 						_Mysb::epptr());	// change write position to match

	mov	eax, DWORD PTR [ecx+32]
	mov	esi, DWORD PTR [eax]
	mov	eax, DWORD PTR [ecx+52]
	mov	eax, DWORD PTR [eax]
	add	eax, ebx
	mov	DWORD PTR [edi], esi
	mov	ecx, DWORD PTR [ecx+52]
	sub	eax, esi
	mov	DWORD PTR [ecx], eax

; 213  : 				}
; 214  : 			else

	jmp	SHORT $LN77@seekoff
$LN19@seekoff:

; 215  : 				_Off = _BADOFF;
; 216  : 			}
; 217  : 		else if (_Which & ios_base::out && _Mysb::pptr() != 0)

	test	bl, 2
	je	SHORT $LN9@seekoff
	mov	esi, DWORD PTR [edx]
	test	esi, esi
	je	SHORT $LN9@seekoff

; 218  : 			{	// position within write buffer
; 219  : 			if (_Way == ios_base::end)

	mov	eax, DWORD PTR __Way$[esp+8]
	mov	edi, DWORD PTR ?_BADOFF@std@@3JB	; std::_BADOFF
	cmp	eax, 2
	jne	SHORT $LN8@seekoff

; 220  : 				_Off += (off_type)(_Seekhigh - _Mysb::eback());

	mov	edx, DWORD PTR [ecx+16]
	mov	eax, DWORD PTR [ecx+60]
	sub	eax, DWORD PTR [edx]
	mov	edx, DWORD PTR __Off$[esp+8]
	add	edx, eax
	jmp	SHORT $LN4@seekoff
$LN8@seekoff:

; 221  : 			else if (_Way == ios_base::cur)

	cmp	eax, 1
	jne	SHORT $LN6@seekoff

; 222  : 				_Off += (off_type)(_Mysb::pptr() - _Mysb::eback());

	mov	edx, DWORD PTR [ecx+16]
	mov	eax, esi
	sub	eax, DWORD PTR [edx]
	mov	edx, DWORD PTR __Off$[esp+8]
	add	edx, eax
	jmp	SHORT $LN4@seekoff
$LN6@seekoff:

; 223  : 			else if (_Way != ios_base::beg)
; 224  : 				_Off = _BADOFF;

	mov	edx, edi
	test	eax, eax
	jne	SHORT $LN4@seekoff
	mov	edx, DWORD PTR __Off$[esp+8]
$LN4@seekoff:

; 225  : 
; 226  : 			if (0 <= _Off && _Off <= _Seekhigh - _Mysb::eback())

	test	edx, edx
	jl	SHORT $LN3@seekoff
	mov	eax, DWORD PTR [ecx+16]
	mov	eax, DWORD PTR [eax]
	mov	ebx, DWORD PTR [ecx+60]
	sub	ebx, eax
	cmp	edx, ebx
	jg	SHORT $LN3@seekoff

; 227  : 				_Mysb::pbump((int)(_Mysb::eback()
; 228  : 					- _Mysb::pptr() + _Off));	// change write position

	sub	eax, esi
	mov	esi, DWORD PTR [ecx+52]
	add	eax, edx
	sub	DWORD PTR [esi], eax
	mov	ecx, DWORD PTR [ecx+36]
	add	DWORD PTR [ecx], eax

; 229  : 			else

	jmp	SHORT $LN77@seekoff
$LN3@seekoff:

; 230  : 				_Off = _BADOFF;

	mov	edx, edi

; 231  : 			}
; 232  : 		else

	jmp	SHORT $LN77@seekoff
$LN9@seekoff:

; 233  : 			_Off = _BADOFF;	// neither read nor write buffer selected, fail

	mov	edx, DWORD PTR ?_BADOFF@std@@3JB	; std::_BADOFF
$LN77@seekoff:

; 234  : 		return (pos_type(_Off));

	mov	eax, DWORD PTR ___$ReturnUdt$[esp+8]
	pop	edi
	xor	ecx, ecx
	pop	esi
	mov	DWORD PTR [eax], edx
	mov	DWORD PTR [eax+8], ecx
	mov	DWORD PTR [eax+12], ecx
	mov	DWORD PTR [eax+16], ecx
	pop	ebx

; 235  : 		}

	ret	16					; 00000010H
?seekoff@?$basic_stringbuf@DU?$char_traits@D@std@@V?$allocator@D@2@@std@@MAE?AV?$fpos@H@2@JHH@Z ENDP ; std::basic_stringbuf<char,std::char_traits<char>,std::allocator<char> >::seekoff
; Function compile flags: /Ogtpy
_TEXT	ENDS
;	COMDAT ?underflow@?$basic_stringbuf@DU?$char_traits@D@std@@V?$allocator@D@2@@std@@MAEHXZ
_TEXT	SEGMENT
?underflow@?$basic_stringbuf@DU?$char_traits@D@std@@V?$allocator@D@2@@std@@MAEHXZ PROC ; std::basic_stringbuf<char,std::char_traits<char>,std::allocator<char> >::underflow, COMDAT
; _this$ = ecx

; 174  : 		if (_Mysb::gptr() == 0)

	mov	edx, DWORD PTR [ecx+32]
	push	esi
	mov	esi, DWORD PTR [edx]
	test	esi, esi
	jne	SHORT $LN8@underflow

; 175  : 			return (_Traits::eof());	// no character buffer, fail

	or	eax, -1
	pop	esi

; 187  : 			}
; 188  : 		}

	ret	0
$LN8@underflow:
	push	ebx
	push	edi

; 176  : 		else if (_Mysb::gptr() < _Mysb::egptr())

	mov	edi, DWORD PTR [ecx+48]
	mov	ebx, DWORD PTR [edi]
	mov	eax, esi
	add	ebx, eax
	cmp	eax, ebx
	jae	SHORT $LN6@underflow

; 177  : 			return (_Traits::to_int_type(*_Mysb::gptr()));	// return buffered

	movzx	eax, BYTE PTR [esi]
	pop	edi
	pop	ebx
	pop	esi

; 187  : 			}
; 188  : 		}

	ret	0
$LN6@underflow:

; 178  : 		else if (_Mystate & _Noread || _Mysb::pptr() == 0
; 179  : 			|| _Mysb::pptr() <= _Mysb::gptr() && _Seekhigh <= _Mysb::gptr())

	test	BYTE PTR [ecx+64], 4
	jne	SHORT $LN3@underflow
	mov	eax, DWORD PTR [ecx+36]
	mov	eax, DWORD PTR [eax]
	test	eax, eax
	je	SHORT $LN3@underflow
	cmp	eax, esi
	ja	SHORT $LN4@underflow
	cmp	DWORD PTR [ecx+60], esi
	jbe	SHORT $LN3@underflow
$LN4@underflow:

; 181  : 		else
; 182  : 			{	// extend read buffer into written area, then return buffered
; 183  : 			if (_Seekhigh < _Mysb::pptr())

	cmp	DWORD PTR [ecx+60], eax
	jae	SHORT $LN1@underflow

; 184  : 				_Seekhigh = _Mysb::pptr();

	mov	DWORD PTR [ecx+60], eax
$LN1@underflow:

; 185  : 			_Mysb::setg(_Mysb::eback(), _Mysb::gptr(), _Seekhigh);

	mov	edx, DWORD PTR [edx]
	mov	eax, DWORD PTR [ecx+60]
	sub	eax, edx
	mov	DWORD PTR [edi], eax

; 186  : 			return (_Traits::to_int_type(*_Mysb::gptr()));

	mov	ecx, DWORD PTR [ecx+32]
	mov	edx, DWORD PTR [ecx]
	movzx	eax, BYTE PTR [edx]
	pop	edi
	pop	ebx
	pop	esi

; 187  : 			}
; 188  : 		}

	ret	0
$LN3@underflow:
	pop	edi
	pop	ebx

; 180  : 			return (_Traits::eof());	// can't read, fail

	or	eax, -1
	pop	esi

; 187  : 			}
; 188  : 		}

	ret	0
?underflow@?$basic_stringbuf@DU?$char_traits@D@std@@V?$allocator@D@2@@std@@MAEHXZ ENDP ; std::basic_stringbuf<char,std::char_traits<char>,std::allocator<char> >::underflow
; Function compile flags: /Ogtpy
; File c:\program files\microsoft visual studio 9.0\vc\include\istream
_TEXT	ENDS
;	COMDAT ??1?$basic_iostream@DU?$char_traits@D@std@@@std@@UAE@XZ
_TEXT	SEGMENT
??1?$basic_iostream@DU?$char_traits@D@std@@@std@@UAE@XZ PROC ; std::basic_iostream<char,std::char_traits<char> >::~basic_iostream<char,std::char_traits<char> >, COMDAT
; _this$ = ecx

; 918  : 		{	// destroy the object

	mov	eax, DWORD PTR [ecx-12]
	mov	edx, DWORD PTR [eax+4]
	mov	DWORD PTR [edx+ecx-12], OFFSET ??_7?$basic_iostream@DU?$char_traits@D@std@@@std@@6B@

; 919  : 		}

	mov	eax, DWORD PTR [ecx-4]
	mov	edx, DWORD PTR [eax+4]
	mov	DWORD PTR [edx+ecx-4], OFFSET ??_7?$basic_ostream@DU?$char_traits@D@std@@@std@@6B@
	mov	eax, DWORD PTR [ecx-12]
	mov	edx, DWORD PTR [eax+4]
	mov	DWORD PTR [edx+ecx-12], OFFSET ??_7?$basic_istream@DU?$char_traits@D@std@@@std@@6B@
	ret	0
??1?$basic_iostream@DU?$char_traits@D@std@@@std@@UAE@XZ ENDP ; std::basic_iostream<char,std::char_traits<char> >::~basic_iostream<char,std::char_traits<char> >
; Function compile flags: /Ogtpy
_TEXT	ENDS
;	COMDAT ??0?$_Ranit_base@DHPBDABDV_Iterator_base_secure@std@@@std@@QAE@XZ
_TEXT	SEGMENT
??0?$_Ranit_base@DHPBDABDV_Iterator_base_secure@std@@@std@@QAE@XZ PROC ; std::_Ranit_base<char,int,char const *,char const &,std::_Iterator_base_secure>::_Ranit_base<char,int,char const *,char const &,std::_Iterator_base_secure>, COMDAT
; _this$ = eax
	mov	DWORD PTR [eax], 0
	ret	0
??0?$_Ranit_base@DHPBDABDV_Iterator_base_secure@std@@@std@@QAE@XZ ENDP ; std::_Ranit_base<char,int,char const *,char const &,std::_Iterator_base_secure>::_Ranit_base<char,int,char const *,char const &,std::_Iterator_base_secure>
; Function compile flags: /Ogtpy
; File c:\program files\microsoft visual studio 9.0\vc\include\ostream
_TEXT	ENDS
;	COMDAT ??1_Sentry_base@?$basic_ostream@DU?$char_traits@D@std@@@std@@QAE@XZ
_TEXT	SEGMENT
??1_Sentry_base@?$basic_ostream@DU?$char_traits@D@std@@@std@@QAE@XZ PROC ; std::basic_ostream<char,std::char_traits<char> >::_Sentry_base::~_Sentry_base, COMDAT
; _this$ = eax

; 82   : 			if (_Myostr.rdbuf() != 0)

	mov	eax, DWORD PTR [eax]
	mov	ecx, DWORD PTR [eax]
	mov	edx, DWORD PTR [ecx+4]
	mov	eax, DWORD PTR [edx+eax+40]
	test	eax, eax
	je	SHORT $LN8@Sentry_bas

; 83   : 				_Myostr.rdbuf()->_Unlock();

	lea	ecx, DWORD PTR [eax+4]
	jmp	?_Unlock@_Mutex@std@@QAEXXZ		; std::_Mutex::_Unlock
$LN8@Sentry_bas:

; 84   : 			}

	ret	0
??1_Sentry_base@?$basic_ostream@DU?$char_traits@D@std@@@std@@QAE@XZ ENDP ; std::basic_ostream<char,std::char_traits<char> >::_Sentry_base::~_Sentry_base
; Function compile flags: /Ogtpy
_TEXT	ENDS
;	COMDAT ??0_Sentry_base@?$basic_ostream@DU?$char_traits@D@std@@@std@@QAE@AAV12@@Z
_TEXT	SEGMENT
??0_Sentry_base@?$basic_ostream@DU?$char_traits@D@std@@@std@@QAE@AAV12@@Z PROC ; std::basic_ostream<char,std::char_traits<char> >::_Sentry_base::_Sentry_base, COMDAT
; _this$ = esi
; __Ostr$ = eax

; 75   : 			{	// lock the stream buffer, if there

	mov	DWORD PTR [esi], eax

; 76   : 			if (_Myostr.rdbuf() != 0)

	mov	ecx, DWORD PTR [eax]
	mov	edx, DWORD PTR [ecx+4]
	mov	eax, DWORD PTR [edx+eax+40]
	test	eax, eax
	je	SHORT $LN10@Sentry_bas@2

; 77   : 				_Myostr.rdbuf()->_Lock();

	lea	ecx, DWORD PTR [eax+4]
	call	?_Lock@_Mutex@std@@QAEXXZ		; std::_Mutex::_Lock
$LN10@Sentry_bas@2:

; 78   : 			}

	mov	eax, esi
	ret	0
??0_Sentry_base@?$basic_ostream@DU?$char_traits@D@std@@@std@@QAE@AAV12@@Z ENDP ; std::basic_ostream<char,std::char_traits<char> >::_Sentry_base::_Sentry_base
; Function compile flags: /Ogtpy
; File c:\program files\microsoft visual studio 9.0\vc\include\xstring
_TEXT	ENDS
;	COMDAT ??D?$_String_const_iterator@DU?$char_traits@D@std@@V?$allocator@D@2@@std@@QBEABDXZ
_TEXT	SEGMENT
??D?$_String_const_iterator@DU?$char_traits@D@std@@V?$allocator@D@2@@std@@QBEABDXZ PROC ; std::_String_const_iterator<char,std::char_traits<char>,std::allocator<char> >::operator*, COMDAT
; _this$ = esi

; 105  : 
; 106  :  #if _HAS_ITERATOR_DEBUGGING
; 107  : 		if (this->_Mycont == 0 || _Myptr == 0
; 108  : 			|| _Myptr < ((_Mystring *)this->_Mycont)->_Myptr()
; 109  : 			|| ((_Mystring *)this->_Mycont)->_Myptr()
; 110  : 				+ ((_Mystring *)this->_Mycont)->_Mysize <= _Myptr)
; 111  : 			{
; 112  : 			_DEBUG_ERROR("string iterator not dereferencable");
; 113  : 			_SCL_SECURE_OUT_OF_RANGE;
; 114  : 			}
; 115  : 		__analysis_assume(_Myptr != 0);
; 116  :  #else
; 117  : 		if (this->_Mycont != _IGNORE_MYCONT)

	mov	eax, DWORD PTR [esi]
	cmp	eax, -4					; fffffffcH
	je	SHORT $LN13@operator@5

; 118  : 		{
; 119  : 			_SCL_SECURE_VALIDATE(this->_Has_container());

	test	eax, eax
	jne	SHORT $LN2@operator@5
	call	__invalid_parameter_noinfo
$LN2@operator@5:

; 120  : 			_SCL_SECURE_VALIDATE_RANGE(_Myptr < (((_Mystring *)this->_Mycont)->_Myptr() + ((_Mystring *)(this->_Mycont))->_Mysize));

	mov	eax, DWORD PTR [esi]
	cmp	DWORD PTR [eax+24], 16			; 00000010H
	jb	SHORT $LN10@operator@5
	mov	ecx, DWORD PTR [eax+4]
	jmp	SHORT $LN11@operator@5
$LN10@operator@5:
	lea	ecx, DWORD PTR [eax+4]
$LN11@operator@5:
	mov	eax, DWORD PTR [eax+20]
	add	eax, ecx
	cmp	DWORD PTR [esi+4], eax
	jb	SHORT $LN13@operator@5
	call	__invalid_parameter_noinfo
$LN13@operator@5:

; 121  : 		}
; 122  :  #endif /* _HAS_ITERATOR_DEBUGGING */
; 123  : 
; 124  : 		return (*_Myptr);

	mov	eax, DWORD PTR [esi+4]

; 125  : 		}

	ret	0
??D?$_String_const_iterator@DU?$char_traits@D@std@@V?$allocator@D@2@@std@@QBEABDXZ ENDP ; std::_String_const_iterator<char,std::char_traits<char>,std::allocator<char> >::operator*
; Function compile flags: /Ogtpy
_TEXT	ENDS
;	COMDAT ??0?$_String_const_iterator@DU?$char_traits@D@std@@V?$allocator@D@2@@std@@QAE@PBDPBV_Container_base_secure@1@@Z
_TEXT	SEGMENT
_this$ = 8						; size = 4
??0?$_String_const_iterator@DU?$char_traits@D@std@@V?$allocator@D@2@@std@@QAE@PBDPBV_Container_base_secure@1@@Z PROC ; std::_String_const_iterator<char,std::char_traits<char>,std::allocator<char> >::_String_const_iterator<char,std::char_traits<char>,std::allocator<char> >, COMDAT
; __Ptr$ = edi
; __Pstring$ = esi

; 83   : 		__CLR_OR_THIS_CALL _String_const_iterator(pointer _Ptr, const _Container_base_secure *_Pstring)

	push	ebx
	mov	ebx, DWORD PTR _this$[esp]
	mov	DWORD PTR [ebx], 0

; 84   : 			{	// construct with pointer _Ptr
; 85   : 			_SCL_SECURE_VALIDATE(

	test	esi, esi
	je	SHORT $LN1@String_con
	test	edi, edi
	je	SHORT $LN1@String_con
	mov	edx, DWORD PTR [esi+24]
	lea	eax, DWORD PTR [esi+4]
	cmp	edx, 16					; 00000010H
	jb	SHORT $LN11@String_con
	mov	ecx, DWORD PTR [eax]
	jmp	SHORT $LN12@String_con
$LN11@String_con:
	mov	ecx, eax
$LN12@String_con:
	cmp	ecx, edi
	ja	SHORT $LN1@String_con
	cmp	edx, 16					; 00000010H
	jb	SHORT $LN15@String_con
	mov	eax, DWORD PTR [eax]
$LN15@String_con:
	mov	ecx, DWORD PTR [esi+20]
	add	ecx, eax
	cmp	edi, ecx
	jbe	SHORT $LN2@String_con
$LN1@String_con:

; 86   : 				_Pstring != NULL && 
; 87   : 				_Ptr != NULL && 
; 88   : 				((_Mystring *)_Pstring)->_Myptr() <= _Ptr && _Ptr <= (((_Mystring *)_Pstring)->_Myptr() + ((_Mystring *)_Pstring)->_Mysize));

	call	__invalid_parameter_noinfo
$LN2@String_con:

; 89   : 			this->_Mycont = _Pstring;

	mov	DWORD PTR [ebx], esi

; 90   : 			_Myptr = _Ptr;

	mov	DWORD PTR [ebx+4], edi

; 91   : 			}

	mov	eax, ebx
	pop	ebx
	ret	4
??0?$_String_const_iterator@DU?$char_traits@D@std@@V?$allocator@D@2@@std@@QAE@PBDPBV_Container_base_secure@1@@Z ENDP ; std::_String_const_iterator<char,std::char_traits<char>,std::allocator<char> >::_String_const_iterator<char,std::char_traits<char>,std::allocator<char> >
; Function compile flags: /Ogtpy
; File c:\program files\microsoft visual studio 9.0\vc\include\streambuf
_TEXT	ENDS
;	COMDAT ?_Init@?$basic_streambuf@DU?$char_traits@D@std@@@std@@IAEXXZ
_TEXT	SEGMENT
?_Init@?$basic_streambuf@DU?$char_traits@D@std@@@std@@IAEXXZ PROC ; std::basic_streambuf<char,std::char_traits<char> >::_Init, COMDAT
; _this$ = eax

; 282  : 		_IGfirst = &_Gfirst, _IPfirst = &_Pfirst;
; 283  : 		_IGnext = &_Gnext, _IPnext = &_Pnext;

	lea	edx, DWORD PTR [eax+24]
	mov	DWORD PTR [eax+32], edx
	lea	edx, DWORD PTR [eax+28]
	mov	DWORD PTR [eax+36], edx
	lea	ecx, DWORD PTR [eax+8]
	mov	DWORD PTR [eax+16], ecx

; 284  : 		_IGcount = &_Gcount, _IPcount = &_Pcount;

	lea	edx, DWORD PTR [eax+40]
	mov	DWORD PTR [eax+48], edx
	lea	ecx, DWORD PTR [eax+12]
	mov	DWORD PTR [eax+20], ecx
	lea	edx, DWORD PTR [eax+44]
	mov	DWORD PTR [eax+52], edx

; 285  : 		setp(0, 0), setg(0, 0, 0);

	mov	DWORD PTR [ecx], 0
	mov	ecx, DWORD PTR [eax+36]
	mov	DWORD PTR [ecx], 0
	mov	edx, DWORD PTR [eax+52]
	mov	DWORD PTR [edx], 0
	mov	ecx, DWORD PTR [eax+16]
	mov	DWORD PTR [ecx], 0
	mov	edx, DWORD PTR [eax+32]
	mov	DWORD PTR [edx], 0
	mov	eax, DWORD PTR [eax+48]
	mov	DWORD PTR [eax], 0

; 286  : 		}

	ret	0
?_Init@?$basic_streambuf@DU?$char_traits@D@std@@@std@@IAEXXZ ENDP ; std::basic_streambuf<char,std::char_traits<char> >::_Init
; Function compile flags: /Ogtpy
; File c:\program files\microsoft visual studio 9.0\vc\include\xstring
_TEXT	ENDS
;	COMDAT ?_Chassign@?$basic_string@DU?$char_traits@D@std@@V?$allocator@D@2@@std@@IAEXIID@Z
_TEXT	SEGMENT
_this$ = 8						; size = 4
?_Chassign@?$basic_string@DU?$char_traits@D@std@@V?$allocator@D@2@@std@@IAEXIID@Z PROC ; std::basic_string<char,std::char_traits<char>,std::allocator<char> >::_Chassign, COMDAT
; __Off$ = esi
; __Count$ = ecx
; __Ch$ = edx

; 2075 : 		{	// assign _Count copies of _Ch beginning at _Off

	mov	eax, DWORD PTR _this$[esp-4]

; 2076 : 		if (_Count == 1)

	cmp	ecx, 1
	jne	SHORT $LN2@Chassign

; 2077 : 			_Traits::assign(*(_Myptr() + _Off), _Ch);

	cmp	DWORD PTR [eax+24], 16			; 00000010H
	jb	SHORT $LN7@Chassign
	mov	eax, DWORD PTR [eax+4]
	mov	BYTE PTR [eax+esi], dl

; 2080 : 		}

	ret	4

; 2077 : 			_Traits::assign(*(_Myptr() + _Off), _Ch);

$LN7@Chassign:
	add	eax, 4
	mov	BYTE PTR [eax+esi], dl

; 2080 : 		}

	ret	4
$LN2@Chassign:

; 2078 : 		else
; 2079 : 			_Traits::assign(_Myptr() + _Off, _Count, _Ch);

	cmp	DWORD PTR [eax+24], 16			; 00000010H
	jb	SHORT $LN13@Chassign
	mov	eax, DWORD PTR [eax+4]
	push	ecx
	movsx	ecx, dl
	push	ecx
	add	eax, esi
	push	eax
	call	_memset
	add	esp, 12					; 0000000cH

; 2080 : 		}

	ret	4

; 2078 : 		else
; 2079 : 			_Traits::assign(_Myptr() + _Off, _Count, _Ch);

$LN13@Chassign:
	push	ecx
	movsx	ecx, dl
	add	eax, 4
	push	ecx
	add	eax, esi
	push	eax
	call	_memset
	add	esp, 12					; 0000000cH

; 2080 : 		}

	ret	4
?_Chassign@?$basic_string@DU?$char_traits@D@std@@V?$allocator@D@2@@std@@IAEXIID@Z ENDP ; std::basic_string<char,std::char_traits<char>,std::allocator<char> >::_Chassign
; Function compile flags: /Ogtpy
; File c:\program files\microsoft visual studio 9.0\vc\include\fstream
_TEXT	ENDS
;	COMDAT ?_Initcvt@?$basic_filebuf@DU?$char_traits@D@std@@@std@@IAEXPAV?$codecvt@DDH@2@@Z
_TEXT	SEGMENT
?_Initcvt@?$basic_filebuf@DU?$char_traits@D@std@@@std@@IAEXPAV?$codecvt@DDH@2@@Z PROC ; std::basic_filebuf<char,std::char_traits<char> >::_Initcvt, COMDAT
; _this$ = esi
; __Newpcvt$ = edi

; 532  : 		if (_Newpcvt->always_noconv())

	mov	eax, DWORD PTR [edi]
	mov	edx, DWORD PTR [eax+4]
	mov	ecx, edi
	call	edx
	test	al, al
	je	SHORT $LN2@Initcvt

; 533  : 			_Pcvt = 0;	// nothing to do

	mov	DWORD PTR [esi+60], 0

; 538  : 			}
; 539  : 		}

	ret	0
$LN2@Initcvt:

; 534  : 		else
; 535  : 			{	// set up for nontrivial codecvt facet
; 536  : 			_Pcvt = _Newpcvt;
; 537  : 			_Mysb::_Init();	// reset any buffering

	lea	eax, DWORD PTR [esi+8]
	mov	DWORD PTR [esi+16], eax
	lea	ecx, DWORD PTR [esi+24]
	mov	DWORD PTR [esi+32], ecx
	lea	edx, DWORD PTR [esi+28]
	mov	DWORD PTR [esi+36], edx
	mov	DWORD PTR [esi+60], edi
	lea	eax, DWORD PTR [esi+12]
	mov	DWORD PTR [esi+20], eax
	lea	ecx, DWORD PTR [esi+40]
	mov	DWORD PTR [esi+48], ecx
	lea	edx, DWORD PTR [esi+44]
	mov	DWORD PTR [esi+52], edx
	mov	DWORD PTR [eax], 0
	mov	eax, DWORD PTR [esi+36]
	mov	DWORD PTR [eax], 0
	mov	ecx, DWORD PTR [esi+52]
	mov	DWORD PTR [ecx], 0
	mov	edx, DWORD PTR [esi+16]
	mov	DWORD PTR [edx], 0
	mov	eax, DWORD PTR [esi+32]
	mov	DWORD PTR [eax], 0
	mov	ecx, DWORD PTR [esi+48]
	mov	DWORD PTR [ecx], 0

; 538  : 			}
; 539  : 		}

	ret	0
?_Initcvt@?$basic_filebuf@DU?$char_traits@D@std@@@std@@IAEXPAV?$codecvt@DDH@2@@Z ENDP ; std::basic_filebuf<char,std::char_traits<char> >::_Initcvt
_TEXT	ENDS
PUBLIC	?_Stinit@?1??_Init@?$basic_filebuf@DU?$char_traits@D@std@@@std@@IAEXPAU_iobuf@@W4_Initfl@23@@Z@4HA ; `std::basic_filebuf<char,std::char_traits<char> >::_Init'::`2'::_Stinit
;	COMDAT ?_Stinit@?1??_Init@?$basic_filebuf@DU?$char_traits@D@std@@@std@@IAEXPAU_iobuf@@W4_Initfl@23@@Z@4HA
; File c:\program files\microsoft visual studio 9.0\vc\include\streambuf
_BSS	SEGMENT
?_Stinit@?1??_Init@?$basic_filebuf@DU?$char_traits@D@std@@@std@@IAEXPAU_iobuf@@W4_Initfl@23@@Z@4HA DD 01H DUP (?) ; `std::basic_filebuf<char,std::char_traits<char> >::_Init'::`2'::_Stinit
; Function compile flags: /Ogtpy
; File c:\program files\microsoft visual studio 9.0\vc\include\fstream
_BSS	ENDS
;	COMDAT ?_Init@?$basic_filebuf@DU?$char_traits@D@std@@@std@@IAEXPAU_iobuf@@W4_Initfl@12@@Z
_TEXT	SEGMENT
__Which$ = 8						; size = 4
?_Init@?$basic_filebuf@DU?$char_traits@D@std@@@std@@IAEXPAU_iobuf@@W4_Initfl@12@@Z PROC ; std::basic_filebuf<char,std::char_traits<char> >::_Init, COMDAT
; _this$ = eax
; __File$ = ecx

; 460  : 		__PURE_APPDOMAIN_GLOBAL static _Myst _Stinit;	// initial state
; 461  : 		_Closef = _Which == _Openfl;

	cmp	DWORD PTR __Which$[esp-4], 1
	push	esi

; 462  : 		_Wrotesome = false;
; 463  : 
; 464  : 		_Mysb::_Init();	// initialize stream buffer base object

	lea	esi, DWORD PTR [eax+24]
	mov	DWORD PTR [eax+32], esi
	sete	dl
	mov	BYTE PTR [eax+72], dl
	lea	esi, DWORD PTR [eax+28]
	mov	DWORD PTR [eax+36], esi
	lea	edx, DWORD PTR [eax+8]
	mov	DWORD PTR [eax+16], edx
	lea	esi, DWORD PTR [eax+40]
	mov	DWORD PTR [eax+48], esi
	mov	BYTE PTR [eax+65], 0
	lea	edx, DWORD PTR [eax+12]
	mov	DWORD PTR [eax+20], edx
	lea	esi, DWORD PTR [eax+44]
	mov	DWORD PTR [eax+52], esi
	mov	DWORD PTR [edx], 0
	mov	edx, DWORD PTR [eax+36]
	mov	DWORD PTR [edx], 0
	mov	edx, DWORD PTR [eax+52]
	mov	DWORD PTR [edx], 0
	mov	edx, DWORD PTR [eax+16]
	mov	DWORD PTR [edx], 0
	mov	edx, DWORD PTR [eax+32]
	mov	DWORD PTR [edx], 0
	mov	edx, DWORD PTR [eax+48]
	mov	DWORD PTR [edx], 0
	pop	esi

; 465  : 
; 466  :  #ifndef _IORCNT
; 467  :   #define _IORCNT	_IOCNT	/* read and write counts are the same */
; 468  :   #define _IOWCNT _IOCNT
; 469  :  #endif /* _IORCNT */
; 470  : 
; 471  : #pragma warning(push)
; 472  : #pragma warning(disable: 6240)
; 473  : 		/* prefast noise VSW 489858 */
; 474  : 		if (_File != 0 && sizeof (_Elem) == 1)

	test	ecx, ecx
	je	SHORT $LN10@Init@2

; 475  : #pragma warning(pop)
; 476  : 			{	// point inside C stream with [first, first + count) buffer
; 477  : 			_Elem **_Pb = (_Elem **)&_File->_IOBASE;

	lea	edx, DWORD PTR [ecx+8]

; 478  : 			_Elem **_Pn = (_Elem **)&_File->_IOPTR;
; 479  : 			int *_Nr = (int *)&_File->_IORCNT;
; 480  : 			int *_Nw = (int *)&_File->_IOWCNT;
; 481  : 			_Mysb::_Init(_Pb, _Pn, _Nr, _Pb, _Pn, _Nw);

	mov	DWORD PTR [eax+16], edx
	mov	DWORD PTR [eax+20], edx
	lea	edx, DWORD PTR [ecx+4]
	mov	DWORD PTR [eax+32], ecx
	mov	DWORD PTR [eax+36], ecx
	mov	DWORD PTR [eax+48], edx
	mov	DWORD PTR [eax+52], edx
$LN10@Init@2:

; 482  : 			}
; 483  : 
; 484  : 		_Myfile = _File;

	mov	DWORD PTR [eax+76], ecx

; 485  : 		_State = _Stinit;

	mov	ecx, DWORD PTR ?_Stinit@?1??_Init@?$basic_filebuf@DU?$char_traits@D@std@@@std@@IAEXPAU_iobuf@@W4_Initfl@23@@Z@4HA ; `std::basic_filebuf<char,std::char_traits<char> >::_Init'::`2'::_Stinit
	mov	DWORD PTR [eax+68], ecx

; 486  : 		_Pcvt = 0;	// pointer to codecvt facet

	mov	DWORD PTR [eax+60], 0

; 487  : 		}

	ret	4
?_Init@?$basic_filebuf@DU?$char_traits@D@std@@@std@@IAEXPAU_iobuf@@W4_Initfl@12@@Z ENDP ; std::basic_filebuf<char,std::char_traits<char> >::_Init
; Function compile flags: /Ogtpy
; File c:\program files\microsoft visual studio 9.0\vc\include\xstring
_TEXT	ENDS
;	COMDAT ??D?$_String_iterator@DU?$char_traits@D@std@@V?$allocator@D@2@@std@@QBEAADXZ
_TEXT	SEGMENT
??D?$_String_iterator@DU?$char_traits@D@std@@V?$allocator@D@2@@std@@QBEAADXZ PROC ; std::_String_iterator<char,std::char_traits<char>,std::allocator<char> >::operator*, COMDAT
; _this$ = esi

; 369  : 		return ((reference)**(_Mybase *)this);

	mov	eax, DWORD PTR [esi]
	cmp	eax, -4					; fffffffcH
	je	SHORT $LN15@operator@6
	test	eax, eax
	jne	SHORT $LN4@operator@6
	call	__invalid_parameter_noinfo
$LN4@operator@6:
	mov	eax, DWORD PTR [esi]
	cmp	DWORD PTR [eax+24], 16			; 00000010H
	jb	SHORT $LN12@operator@6
	mov	ecx, DWORD PTR [eax+4]
	jmp	SHORT $LN13@operator@6
$LN12@operator@6:
	lea	ecx, DWORD PTR [eax+4]
$LN13@operator@6:
	mov	eax, DWORD PTR [eax+20]
	add	eax, ecx
	cmp	DWORD PTR [esi+4], eax
	jb	SHORT $LN15@operator@6
	call	__invalid_parameter_noinfo
$LN15@operator@6:
	mov	eax, DWORD PTR [esi+4]

; 370  : 		}

	ret	0
??D?$_String_iterator@DU?$char_traits@D@std@@V?$allocator@D@2@@std@@QBEAADXZ ENDP ; std::_String_iterator<char,std::char_traits<char>,std::allocator<char> >::operator*
; Function compile flags: /Ogtpy
_TEXT	ENDS
;	COMDAT ??0?$_String_iterator@DU?$char_traits@D@std@@V?$allocator@D@2@@std@@QAE@PADPBV_Container_base_secure@1@@Z
_TEXT	SEGMENT
_this$ = 8						; size = 4
??0?$_String_iterator@DU?$char_traits@D@std@@V?$allocator@D@2@@std@@QAE@PADPBV_Container_base_secure@1@@Z PROC ; std::_String_iterator<char,std::char_traits<char>,std::allocator<char> >::_String_iterator<char,std::char_traits<char>,std::allocator<char> >, COMDAT
; __Ptr$ = edi
; __Pstring$ = esi

; 341  : 			{	// construct with pointer _Ptr

	push	ebx
	mov	ebx, DWORD PTR _this$[esp]
	mov	DWORD PTR [ebx], 0
	test	esi, esi
	je	SHORT $LN3@String_ite
	test	edi, edi
	je	SHORT $LN3@String_ite
	mov	edx, DWORD PTR [esi+24]
	lea	eax, DWORD PTR [esi+4]
	cmp	edx, 16					; 00000010H
	jb	SHORT $LN13@String_ite
	mov	ecx, DWORD PTR [eax]
	jmp	SHORT $LN14@String_ite
$LN13@String_ite:
	mov	ecx, eax
$LN14@String_ite:
	cmp	ecx, edi
	ja	SHORT $LN3@String_ite
	cmp	edx, 16					; 00000010H
	jb	SHORT $LN17@String_ite
	mov	eax, DWORD PTR [eax]
$LN17@String_ite:
	mov	ecx, DWORD PTR [esi+20]
	add	ecx, eax
	cmp	edi, ecx
	jbe	SHORT $LN4@String_ite
$LN3@String_ite:
	call	__invalid_parameter_noinfo
$LN4@String_ite:
	mov	DWORD PTR [ebx], esi
	mov	DWORD PTR [ebx+4], edi

; 342  : 			}

	mov	eax, ebx
	pop	ebx
	ret	4
??0?$_String_iterator@DU?$char_traits@D@std@@V?$allocator@D@2@@std@@QAE@PADPBV_Container_base_secure@1@@Z ENDP ; std::_String_iterator<char,std::char_traits<char>,std::allocator<char> >::_String_iterator<char,std::char_traits<char>,std::allocator<char> >
; Function compile flags: /Ogtpy
; File c:\program files\microsoft visual studio 9.0\vc\include\streambuf
_TEXT	ENDS
;	COMDAT ?sputc@?$basic_streambuf@DU?$char_traits@D@std@@@std@@QAEHD@Z
_TEXT	SEGMENT
?sputc@?$basic_streambuf@DU?$char_traits@D@std@@@std@@QAEHD@Z PROC ; std::basic_streambuf<char,std::char_traits<char> >::sputc, COMDAT
; _this$ = ecx
; __Ch$ = edx

; 161  : 		return (0 < _Pnavail()
; 162  : 			? _Traits::to_int_type(*_Pninc() = _Ch)
; 163  : 			: overflow(_Traits::to_int_type(_Ch)));

	mov	eax, DWORD PTR [ecx+36]
	cmp	DWORD PTR [eax], 0
	je	SHORT $LN3@sputc
	mov	eax, DWORD PTR [ecx+52]
	cmp	DWORD PTR [eax], 0
	jle	SHORT $LN3@sputc
	dec	DWORD PTR [eax]
	mov	ecx, DWORD PTR [ecx+36]
	mov	eax, DWORD PTR [ecx]
	push	esi
	lea	esi, DWORD PTR [eax+1]
	mov	DWORD PTR [ecx], esi
	mov	BYTE PTR [eax], dl
	movzx	eax, dl
	pop	esi

; 164  : 		}

	ret	0
$LN3@sputc:

; 161  : 		return (0 < _Pnavail()
; 162  : 			? _Traits::to_int_type(*_Pninc() = _Ch)
; 163  : 			: overflow(_Traits::to_int_type(_Ch)));

	mov	eax, DWORD PTR [ecx]
	mov	eax, DWORD PTR [eax+4]
	movzx	edx, dl
	push	edx
	call	eax

; 164  : 		}

	ret	0
?sputc@?$basic_streambuf@DU?$char_traits@D@std@@@std@@QAEHD@Z ENDP ; std::basic_streambuf<char,std::char_traits<char> >::sputc
; Function compile flags: /Ogtpy
; File c:\program files\microsoft visual studio 9.0\vc\include\fstream
_TEXT	ENDS
;	COMDAT ?sync@?$basic_filebuf@DU?$char_traits@D@std@@@std@@MAEHXZ
_TEXT	SEGMENT
?sync@?$basic_filebuf@DU?$char_traits@D@std@@@std@@MAEHXZ PROC ; std::basic_filebuf<char,std::char_traits<char> >::sync, COMDAT
; _this$ = ecx

; 447  : 		{	// synchronize C stream with external file

	push	esi
	mov	esi, ecx

; 448  : 		return (_Myfile == 0
; 449  : 			|| _Traits::eq_int_type(_Traits::eof(), overflow())
; 450  : 			|| 0 <= fflush(_Myfile) ? 0 : -1);

	cmp	DWORD PTR [esi+76], 0
	je	SHORT $LN3@sync
	mov	eax, DWORD PTR [esi]
	mov	edx, DWORD PTR [eax+4]
	push	-1
	call	edx
	cmp	eax, -1
	je	SHORT $LN3@sync
	mov	eax, DWORD PTR [esi+76]
	push	eax
	call	_fflush
	add	esp, 4
	test	eax, eax
	jge	SHORT $LN3@sync
	or	eax, -1
	pop	esi

; 451  : 		}

	ret	0
$LN3@sync:

; 448  : 		return (_Myfile == 0
; 449  : 			|| _Traits::eq_int_type(_Traits::eof(), overflow())
; 450  : 			|| 0 <= fflush(_Myfile) ? 0 : -1);

	xor	eax, eax
	pop	esi

; 451  : 		}

	ret	0
?sync@?$basic_filebuf@DU?$char_traits@D@std@@@std@@MAEHXZ ENDP ; std::basic_filebuf<char,std::char_traits<char> >::sync
; Function compile flags: /Ogtpy
_TEXT	ENDS
;	COMDAT ?setbuf@?$basic_filebuf@DU?$char_traits@D@std@@@std@@MAEPAV?$basic_streambuf@DU?$char_traits@D@std@@@2@PADH@Z
_TEXT	SEGMENT
__Buffer$ = 8						; size = 4
__Count$ = 12						; size = 4
?setbuf@?$basic_filebuf@DU?$char_traits@D@std@@@std@@MAEPAV?$basic_streambuf@DU?$char_traits@D@std@@@2@PADH@Z PROC ; std::basic_filebuf<char,std::char_traits<char> >::setbuf, COMDAT
; _this$ = ecx

; 434  : 		{	// offer _Buffer to C stream

	push	edi
	mov	edi, ecx

; 435  : 		if (_Myfile == 0 || setvbuf(_Myfile, (char *)_Buffer,
; 436  : 			_Buffer == 0 && _Count == 0 ? _IONBF : _IOFBF,
; 437  : 			_Count * sizeof (_Elem)) != 0)

	mov	ecx, DWORD PTR [edi+76]
	test	ecx, ecx
	je	SHORT $LN2@setbuf
	mov	edx, DWORD PTR __Buffer$[esp]
	push	esi
	mov	esi, DWORD PTR __Count$[esp+4]
	test	edx, edx
	jne	SHORT $LN6@setbuf
	test	esi, esi
	jne	SHORT $LN6@setbuf
	lea	eax, DWORD PTR [esi+4]
	jmp	SHORT $LN7@setbuf
$LN6@setbuf:
	xor	eax, eax
$LN7@setbuf:
	push	esi
	push	eax
	push	edx
	push	ecx
	call	_setvbuf
	add	esp, 16					; 00000010H
	pop	esi
	test	eax, eax
	jne	SHORT $LN2@setbuf

; 439  : 		else
; 440  : 			{	// new buffer, reinitialize pointers
; 441  : 			_Init(_Myfile, _Openfl);

	mov	ecx, DWORD PTR [edi+76]
	push	1
	mov	eax, edi
	call	?_Init@?$basic_filebuf@DU?$char_traits@D@std@@@std@@IAEXPAU_iobuf@@W4_Initfl@12@@Z ; std::basic_filebuf<char,std::char_traits<char> >::_Init

; 442  : 			return (this);

	mov	eax, edi
	pop	edi

; 443  : 			}
; 444  : 		}

	ret	8
$LN2@setbuf:

; 438  : 			return (0);	// failed

	xor	eax, eax
	pop	edi

; 443  : 			}
; 444  : 		}

	ret	8
?setbuf@?$basic_filebuf@DU?$char_traits@D@std@@@std@@MAEPAV?$basic_streambuf@DU?$char_traits@D@std@@@2@PADH@Z ENDP ; std::basic_filebuf<char,std::char_traits<char> >::setbuf
; Function compile flags: /Ogtpy
_TEXT	ENDS
;	COMDAT ?underflow@?$basic_filebuf@DU?$char_traits@D@std@@@std@@MAEHXZ
_TEXT	SEGMENT
?underflow@?$basic_filebuf@DU?$char_traits@D@std@@@std@@MAEHXZ PROC ; std::basic_filebuf<char,std::char_traits<char> >::underflow, COMDAT
; _this$ = ecx

; 310  : 		{	// get an element from stream, but don't point past it

	push	esi
	mov	esi, ecx

; 311  : 		int_type _Meta;
; 312  : 		if (_Mysb::gptr() != 0
; 313  : 			&& _Mysb::gptr() < _Mysb::egptr())

	mov	eax, DWORD PTR [esi+32]
	mov	ecx, DWORD PTR [eax]
	test	ecx, ecx
	je	SHORT $LN4@underflow@2
	mov	edx, eax
	mov	eax, DWORD PTR [edx]
	mov	edx, DWORD PTR [esi+48]
	mov	edx, DWORD PTR [edx]
	add	edx, eax
	cmp	eax, edx
	jae	SHORT $LN4@underflow@2

; 314  : 			return (_Traits::to_int_type(*_Mysb::gptr()));	// return buffered

	movzx	eax, BYTE PTR [ecx]
	pop	esi

; 321  : 			}
; 322  : 		}

	ret	0
$LN4@underflow@2:

; 315  : 		else if (_Traits::eq_int_type(_Traits::eof(), _Meta = uflow()))

	mov	eax, DWORD PTR [esi]
	mov	edx, DWORD PTR [eax+20]
	push	edi
	mov	ecx, esi
	call	edx
	mov	edi, eax
	cmp	edi, -1
	jne	SHORT $LN2@underflow@2
	pop	edi

; 316  : 			return (_Meta);	// uflow failed, return EOF

