; Listing generated by Microsoft (R) Optimizing Compiler Version 15.00.30729.01 

	TITLE	c:\Users\Admin\Desktop\Projects\SEye_Server\dllmain.cpp
	.686P
	.XMM
	include listing.inc
	.model	flat

INCLUDELIB OLDNAMES

PUBLIC	??1ChatCommandInfo@@QAE@XZ			; ChatCommandInfo::~ChatCommandInfo
PUBLIC	??_GChatCommandInfo@@QAEPAXI@Z			; ChatCommandInfo::`scalar deleting destructor'
PUBLIC	?_Make_iter@?$vector@PAUChatCommandInfo@@V?$allocator@PAUChatCommandInfo@@@std@@@std@@QBE?AV?$_Vector_iterator@PAUChatCommandInfo@@V?$allocator@PAUChatCommandInfo@@@std@@@2@V?$_Vector_const_iterator@PAUChatCommandInfo@@V?$allocator@PAUChatCommandInfo@@@std@@@2@@Z ; std::vector<ChatCommandInfo *,std::allocator<ChatCommandInfo *> >::_Make_iter
PUBLIC	??$_Copy_opt@PAPAUChatCommandInfo@@PAPAU1@Urandom_access_iterator_tag@std@@@std@@YAPAPAUChatCommandInfo@@PAPAU1@00Urandom_access_iterator_tag@0@U_Scalar_ptr_iterator_tag@0@U_Range_checked_iterator_tag@0@@Z ; std::_Copy_opt<ChatCommandInfo * *,ChatCommandInfo * *,std::random_access_iterator_tag>
PUBLIC	??$unchecked_copy@PAPAUChatCommandInfo@@PAPAU1@@stdext@@YAPAPAUChatCommandInfo@@PAPAU1@00@Z ; stdext::unchecked_copy<ChatCommandInfo * *,ChatCommandInfo * *>
PUBLIC	?erase@?$vector@PAUChatCommandInfo@@V?$allocator@PAUChatCommandInfo@@@std@@@std@@QAE?AV?$_Vector_iterator@PAUChatCommandInfo@@V?$allocator@PAUChatCommandInfo@@@std@@@2@V?$_Vector_const_iterator@PAUChatCommandInfo@@V?$allocator@PAUChatCommandInfo@@@std@@@2@0@Z ; std::vector<ChatCommandInfo *,std::allocator<ChatCommandInfo *> >::erase
PUBLIC	?clear@?$vector@PAUChatCommandInfo@@V?$allocator@PAUChatCommandInfo@@@std@@@std@@QAEXXZ ; std::vector<ChatCommandInfo *,std::allocator<ChatCommandInfo *> >::clear
PUBLIC	?_Tidy@?$vector@PAUChatCommandInfo@@V?$allocator@PAUChatCommandInfo@@@std@@@std@@IAEXXZ ; std::vector<ChatCommandInfo *,std::allocator<ChatCommandInfo *> >::_Tidy
PUBLIC	??1?$vector@PAUChatCommandInfo@@V?$allocator@PAUChatCommandInfo@@@std@@@std@@QAE@XZ ; std::vector<ChatCommandInfo *,std::allocator<ChatCommandInfo *> >::~vector<ChatCommandInfo *,std::allocator<ChatCommandInfo *> >
PUBLIC	??_G?$vector@PAUChatCommandInfo@@V?$allocator@PAUChatCommandInfo@@@std@@@std@@QAEPAXI@Z ; std::vector<ChatCommandInfo *,std::allocator<ChatCommandInfo *> >::`scalar deleting destructor'
PUBLIC	??0?$_Vector_const_iterator@PAUChatCommandInfo@@V?$allocator@PAUChatCommandInfo@@@std@@@std@@QAE@XZ ; std::_Vector_const_iterator<ChatCommandInfo *,std::allocator<ChatCommandInfo *> >::_Vector_const_iterator<ChatCommandInfo *,std::allocator<ChatCommandInfo *> >
PUBLIC	?Commands@@3PAUScriptCommands@@A		; Commands
PUBLIC	?bhs@@3PAUHINSTANCE__@@A			; bhs
PUBLIC	??_C@_0CM@MKMOBENL@Error?5getting?5function?5address?5f@ ; `string'
PUBLIC	??_C@_0BD@CEDCHKBB@New_Enable_Stealth?$AA@	; `string'
PUBLIC	??_C@_0BF@LANEKPIK@New_Create_Explosion?$AA@	; `string'
PUBLIC	??_C@_0BN@FMOGPLMC@New_Create_Explosion_At_Bone?$AA@ ; `string'
PUBLIC	??_C@_0BD@LMPMLNOO@New_Set_Fog_Enable?$AA@	; `string'
PUBLIC	??_C@_0BC@LEAPKNGA@New_Set_Fog_Range?$AA@	; `string'
PUBLIC	??_C@_0BC@DFFBEOEP@New_Set_War_Blitz?$AA@	; `string'
PUBLIC	??_C@_0BK@FMEFIGMJ@New_Fade_Background_Music?$AA@ ; `string'
PUBLIC	??_C@_0BJ@CHDMIIDC@New_Set_Background_Music?$AA@ ; `string'
PUBLIC	??_C@_0BK@GHEGIDEJ@New_Stop_Background_Music?$AA@ ; `string'
PUBLIC	??_C@_0BB@DMKAPJOM@New_Create_Sound?$AA@	; `string'
PUBLIC	??_C@_0BE@OHJEGAJE@New_Create_2D_Sound?$AA@	; `string'
PUBLIC	??_C@_0BI@HGKHHIKA@New_Create_2D_WAV_Sound?$AA@	; `string'
PUBLIC	??_C@_0CA@COANFJBN@New_Create_3D_WAV_Sound_At_Bone?$AA@ ; `string'
PUBLIC	??_C@_0BM@NEPOFEN@New_Create_3D_Sound_At_Bone?$AA@ ; `string'
PUBLIC	??_C@_0BP@JPAENPMP@New_Play_Building_Announcement?$AA@ ; `string'
PUBLIC	??_C@_0BC@KOFDDJA@New_Clear_Weapons?$AA@	; `string'
PUBLIC	??_C@_0BP@HAHCDGEG@New_Enable_Vehicle_Transitions?$AA@ ; `string'
PUBLIC	??_C@_0BE@ONIFHAHC@New_Set_Player_Type?$AA@	; `string'
PUBLIC	??_C@_0BK@FDMKHFBH@New_Set_Screen_Fade_Color?$AA@ ; `string'
PUBLIC	??_C@_0BM@LAKGIHPF@New_Set_Screen_Fade_Opacity?$AA@ ; `string'
PUBLIC	??_C@_0BG@IEMOFMGB@New_Set_Display_Color?$AA@	; `string'
PUBLIC	??_C@_0BB@COAKGDMN@New_Display_Text?$AA@	; `string'
PUBLIC	??_C@_0BC@DKIFMHMA@New_Display_Float?$AA@	; `string'
PUBLIC	??_C@_0BA@OLJFNGPH@New_Display_Int?$AA@		; `string'
PUBLIC	??_C@_0BC@NCKGKIKH@New_Select_Weapon?$AA@	; `string'
PUBLIC	??_C@_0BB@MNJLFKNF@New_Shake_Camera?$AA@	; `string'
PUBLIC	??_C@_0O@COMKEHBD@New_Set_Model?$AA@		; `string'
PUBLIC	??_C@_0BK@KODEAOPK@New_Enable_Stealth_Player?$AA@ ; `string'
PUBLIC	??_C@_0BK@BODOPFDH@New_Set_Fog_Enable_Player?$AA@ ; `string'
PUBLIC	??_C@_0BJ@POBGEGB@New_Set_Fog_Range_Player?$AA@	; `string'
PUBLIC	??_C@_0CA@KFLOIEGG@New_Set_Background_Music_Player?$AA@ ; `string'
PUBLIC	??_C@_0CB@LBDBCOBG@New_Fade_Background_Music_Player@ ; `string'
PUBLIC	??_C@_0CB@JGAFACH@New_Stop_Background_Music_Player@ ; `string'
PUBLIC	??_C@_0BI@MCHCNCJI@New_Enable_Radar_Player?$AA@	; `string'
PUBLIC	??_C@_0CH@GGHFFKPO@New_Display_GDI_Player_Terminal_@ ; `string'
PUBLIC	??_C@_0CH@BPDIBODD@New_Display_NOD_Player_Terminal_@ ; `string'
PUBLIC	??_C@_0CB@LCBOAKKM@New_Set_Screen_Fade_Color_Player@ ; `string'
PUBLIC	??_C@_0CD@OGHDHBBK@New_Set_Screen_Fade_Opacity_Play@ ; `string'
PUBLIC	??_C@_0BN@MANAFNCH@New_Force_Camera_Look_Player?$AA@ ; `string'
PUBLIC	??_C@_0BG@OABCCFFJ@New_Enable_HUD_Player?$AA@	; `string'
PUBLIC	??_C@_0BI@NNCDIJF@New_Create_Sound_Player?$AA@	; `string'
PUBLIC	??_C@_0BL@ENMIMBIM@New_Create_2D_Sound_Player?$AA@ ; `string'
PUBLIC	??_C@_0BP@BNBMIEKM@New_Create_2D_WAV_Sound_Player?$AA@ ; `string'
PUBLIC	??_C@_0CH@KEGANMCF@New_Create_3D_WAV_Sound_At_Bone_@ ; `string'
PUBLIC	??_C@_0CD@HKAJONGF@New_Create_3D_Sound_At_Bone_Play@ ; `string'
PUBLIC	??_C@_0BN@FDAGJMKD@New_Set_Display_Color_Player?$AA@ ; `string'
PUBLIC	??_C@_0BI@BIGCCHLL@New_Display_Text_Player?$AA@	; `string'
PUBLIC	??_C@_0BH@EMLDPBJE@New_Display_Int_Player?$AA@	; `string'
PUBLIC	??_C@_0BJ@BHPFPCAI@New_Display_Float_Player?$AA@ ; `string'
PUBLIC	??_C@_0BN@ICDIBFBA@New_Set_Obj_Radar_Blip_Shape?$AA@ ; `string'
PUBLIC	??_C@_0BN@NDFNHDJN@New_Set_Obj_Radar_Blip_Color?$AA@ ; `string'
PUBLIC	??_C@_0CE@NDFBOGLJ@New_Set_Obj_Radar_Blip_Shape_Pla@ ; `string'
PUBLIC	??_C@_0CE@MGFOBBDG@New_Set_Obj_Radar_Blip_Color_Pla@ ; `string'
PUBLIC	??_C@_0BH@LGGKJPMB@NewAddObjectCreateHook?$AA@	; `string'
PUBLIC	??_C@_0BK@GKCDPKE@NewRemoveObjectCreateHook?$AA@ ; `string'
PUBLIC	??_C@_0L@BFCNNHMC@AddKeyHook?$AA@		; `string'
PUBLIC	??_C@_0O@CMJPPFDF@RemoveKeyHook?$AA@		; `string'
PUBLIC	??_C@_09NOJDAPDO@Set_Scope?$AA@			; `string'
PUBLIC	??_C@_0BA@KLLGFAPE@Set_HUD_Texture?$AA@		; `string'
PUBLIC	??_C@_0M@IAMKMFFJ@AddChatHook?$AA@		; `string'
PUBLIC	??_C@_0M@PIBLNPHK@AddHostHook?$AA@		; `string'
PUBLIC	??_C@_0BB@EIEGDAAC@AddLoadLevelHook?$AA@	; `string'
PUBLIC	??_C@_0BA@CLNCABAJ@AddGameOverHook?$AA@		; `string'
PUBLIC	??_C@_0BC@BBENPMJL@AddPlayerJoinHook?$AA@	; `string'
PUBLIC	??_C@_0BF@LBJICEGB@GetCurrentMusicTrack?$AA@	; `string'
PUBLIC	??_C@_0BB@KPPILEKB@Set_Info_Texture?$AA@	; `string'
PUBLIC	??_C@_0BD@MBHONDFC@Clear_Info_Texture?$AA@	; `string'
PUBLIC	??_C@_0BC@JNCDLPNM@Set_Vehicle_Limit?$AA@	; `string'
PUBLIC	??_C@_0BC@LICIDEMC@Get_Vehicle_Limit?$AA@	; `string'
PUBLIC	??_C@_0N@NCFONGG@Send_Message?$AA@		; `string'
PUBLIC	??_C@_0BE@IIGCGNIC@Send_Message_Player?$AA@	; `string'
PUBLIC	??_C@_0BH@GJJAIAB@New_Display_Health_Bar?$AA@	; `string'
PUBLIC	??_C@_0P@IHKAKAEO@AddVersionHook?$AA@		; `string'
PUBLIC	??_C@_0BD@CNJALGFI@Set_Wireframe_Mode?$AA@	; `string'
PUBLIC	??_C@_0BL@DCIMBMAN@New_Disable_All_Collisions?$AA@ ; `string'
PUBLIC	??_C@_0CA@LBEEGJKG@New_Disable_Physical_Collisions?$AA@ ; `string'
PUBLIC	??_C@_0BG@BBLOAJCE@New_Enable_Collisions?$AA@	; `string'
PUBLIC	??_C@_0BB@FALIJHOM@Load_New_HUD_INI?$AA@	; `string'
PUBLIC	??_C@_0O@CGFKECIG@Remove_Weapon?$AA@		; `string'
PUBLIC	??_C@_0P@KIKNJFGM@Update_PT_Data?$AA@		; `string'
PUBLIC	??_C@_0BB@JKEOAOPH@Change_Radar_Map?$AA@	; `string'
PUBLIC	??_C@_0BH@DAOOINAA@AddPowerupPurchaseHook?$AA@	; `string'
PUBLIC	??_C@_0BH@BMFCOOKO@AddVehiclePurchaseHook?$AA@	; `string'
PUBLIC	??_C@_0BJ@INOONOPD@AddCharacterPurchaseHook?$AA@ ; `string'
PUBLIC	??_C@_0BK@GKIFHIHI@AddPowerupPurchaseMonHook?$AA@ ; `string'
PUBLIC	??_C@_0BK@DFGEMPPN@AddVehiclePurchaseMonHook?$AA@ ; `string'
PUBLIC	??_C@_0BM@EMJBLLNL@AddCharacterPurchaseMonHook?$AA@ ; `string'
PUBLIC	??_C@_0BK@NGJKJBAA@RemovePowerupPurchaseHook?$AA@ ; `string'
PUBLIC	??_C@_0BK@PKCGPCKO@RemoveVehiclePurchaseHook?$AA@ ; `string'
PUBLIC	??_C@_0BM@JJOPGEMI@RemoveCharacterPurchaseHook?$AA@ ; `string'
PUBLIC	??_C@_0BN@NLJKJAOG@RemovePowerupPurchaseMonHook?$AA@ ; `string'
PUBLIC	??_C@_0BN@IEHLCHGD@RemoveVehiclePurchaseMonHook?$AA@ ; `string'
PUBLIC	??_C@_0BP@NICMHBK@RemoveCharacterPurchaseMonHook?$AA@ ; `string'
PUBLIC	??_C@_0BK@FFCPOFBA@Get_Build_Time_Multiplier?$AA@ ; `string'
PUBLIC	??_C@_0BH@NFHCMOHH@Set_Currently_Building?$AA@	; `string'
PUBLIC	??_C@_0BG@HJDMFMAJ@Is_Currently_Building?$AA@	; `string'
PUBLIC	??_C@_0BF@JHNKODII@AddConsoleOutputHook?$AA@	; `string'
PUBLIC	??_C@_0L@OONHDGA@AddCRCHook?$AA@		; `string'
PUBLIC	??_C@_0M@JNBJJDPK@AddDataHook?$AA@		; `string'
PUBLIC	??_C@_0BF@IJDIAGHM@Set_Reticle_Texture1?$AA@	; `string'
PUBLIC	??_C@_0BF@KCBFFFLP@Set_Reticle_Texture2?$AA@	; `string'
PUBLIC	??_C@_0BC@GCCMNPJK@New_Set_Fog_Color?$AA@	; `string'
PUBLIC	??_C@_0BF@KHIDDEHK@Set_Fog_Color_Player?$AA@	; `string'
PUBLIC	??_C@_0BB@EAFFCBP@New_Set_Fog_Mode?$AA@		; `string'
PUBLIC	??_C@_0BE@KPNALHHL@Set_Fog_Mode_Player?$AA@	; `string'
PUBLIC	??_C@_0BC@GFPPEJCD@Set_Shader_Number?$AA@	; `string'
PUBLIC	??_C@_0BE@PBLCJAIL@New_Set_Fog_Density?$AA@	; `string'
PUBLIC	??_C@_0BH@OHPNNHID@Set_Fog_Density_Player?$AA@	; `string'
PUBLIC	??_C@_0BK@FGLGICLJ@New_Change_Time_Remaining?$AA@ ; `string'
PUBLIC	??_C@_0BG@OOEEFDBO@New_Change_Time_Limit?$AA@	; `string'
PUBLIC	??_C@_0BE@FJOCJKNG@Display_GDI_Sidebar?$AA@	; `string'
PUBLIC	??_C@_0BE@BCJEKMLD@Display_NOD_Sidebar?$AA@	; `string'
PUBLIC	??_C@_0BI@KABJNJEM@Display_Security_Dialog?$AA@	; `string'
PUBLIC	??_C@_0BD@DBPLMLLJ@AddPlayerLeaveHook?$AA@	; `string'
PUBLIC	??_C@_0BA@ICBJGPDH@GetExplosionObj?$AA@		; `string'
PUBLIC	??_C@_05FGPGKOKF@2?40?42?$AA@			; `string'
PUBLIC	??_C@_0P@MANNNKAF@Example?5Plugin?$AA@		; `string'
PUBLIC	??_C@_03NKBOLEBK@0?41?$AA@			; `string'
EXTRN	__imp__GetProcAddress@8:PROC
EXTRN	__imp__DisableThreadLibraryCalls@4:PROC
?Commands@@3PAUScriptCommands@@A DD 01H DUP (?)		; Commands
?bhs@@3PAUHINSTANCE__@@A DD 01H DUP (?)			; bhs
;	COMDAT ??_C@_03NKBOLEBK@0?41?$AA@
CONST	SEGMENT
??_C@_03NKBOLEBK@0?41?$AA@ DB '0.1', 00H		; `string'
CONST	ENDS
;	COMDAT ??_C@_0P@MANNNKAF@Example?5Plugin?$AA@
CONST	SEGMENT
??_C@_0P@MANNNKAF@Example?5Plugin?$AA@ DB 'Example Plugin', 00H ; `string'
CONST	ENDS
;	COMDAT ??_C@_05FGPGKOKF@2?40?42?$AA@
CONST	SEGMENT
??_C@_05FGPGKOKF@2?40?42?$AA@ DB '2.0.2', 00H		; `string'
CONST	ENDS
;	COMDAT ??_C@_0BA@ICBJGPDH@GetExplosionObj?$AA@
CONST	SEGMENT
??_C@_0BA@ICBJGPDH@GetExplosionObj?$AA@ DB 'GetExplosionObj', 00H ; `string'
CONST	ENDS
;	COMDAT ??_C@_0BD@DBPLMLLJ@AddPlayerLeaveHook?$AA@
CONST	SEGMENT
??_C@_0BD@DBPLMLLJ@AddPlayerLeaveHook?$AA@ DB 'AddPlayerLeaveHook', 00H ; `string'
CONST	ENDS
;	COMDAT ??_C@_0BI@KABJNJEM@Display_Security_Dialog?$AA@
CONST	SEGMENT
??_C@_0BI@KABJNJEM@Display_Security_Dialog?$AA@ DB 'Display_Security_Dial'
	DB	'og', 00H					; `string'
CONST	ENDS
;	COMDAT ??_C@_0BE@BCJEKMLD@Display_NOD_Sidebar?$AA@
CONST	SEGMENT
??_C@_0BE@BCJEKMLD@Display_NOD_Sidebar?$AA@ DB 'Display_NOD_Sidebar', 00H ; `string'
CONST	ENDS
;	COMDAT ??_C@_0BE@FJOCJKNG@Display_GDI_Sidebar?$AA@
CONST	SEGMENT
??_C@_0BE@FJOCJKNG@Display_GDI_Sidebar?$AA@ DB 'Display_GDI_Sidebar', 00H ; `string'
CONST	ENDS
;	COMDAT ??_C@_0BG@OOEEFDBO@New_Change_Time_Limit?$AA@
CONST	SEGMENT
??_C@_0BG@OOEEFDBO@New_Change_Time_Limit?$AA@ DB 'New_Change_Time_Limit', 00H ; `string'
CONST	ENDS
;	COMDAT ??_C@_0BK@FGLGICLJ@New_Change_Time_Remaining?$AA@
CONST	SEGMENT
??_C@_0BK@FGLGICLJ@New_Change_Time_Remaining?$AA@ DB 'New_Change_Time_Rem'
	DB	'aining', 00H				; `string'
CONST	ENDS
;	COMDAT ??_C@_0BH@OHPNNHID@Set_Fog_Density_Player?$AA@
CONST	SEGMENT
??_C@_0BH@OHPNNHID@Set_Fog_Density_Player?$AA@ DB 'Set_Fog_Density_Player'
	DB	00H						; `string'
CONST	ENDS
;	COMDAT ??_C@_0BE@PBLCJAIL@New_Set_Fog_Density?$AA@
CONST	SEGMENT
??_C@_0BE@PBLCJAIL@New_Set_Fog_Density?$AA@ DB 'New_Set_Fog_Density', 00H ; `string'
CONST	ENDS
;	COMDAT ??_C@_0BC@GFPPEJCD@Set_Shader_Number?$AA@
CONST	SEGMENT
??_C@_0BC@GFPPEJCD@Set_Shader_Number?$AA@ DB 'Set_Shader_Number', 00H ; `string'
CONST	ENDS
;	COMDAT ??_C@_0BE@KPNALHHL@Set_Fog_Mode_Player?$AA@
CONST	SEGMENT
??_C@_0BE@KPNALHHL@Set_Fog_Mode_Player?$AA@ DB 'Set_Fog_Mode_Player', 00H ; `string'
CONST	ENDS
;	COMDAT ??_C@_0BB@EAFFCBP@New_Set_Fog_Mode?$AA@
CONST	SEGMENT
??_C@_0BB@EAFFCBP@New_Set_Fog_Mode?$AA@ DB 'New_Set_Fog_Mode', 00H ; `string'
CONST	ENDS
;	COMDAT ??_C@_0BF@KHIDDEHK@Set_Fog_Color_Player?$AA@
CONST	SEGMENT
??_C@_0BF@KHIDDEHK@Set_Fog_Color_Player?$AA@ DB 'Set_Fog_Color_Player', 00H ; `string'
CONST	ENDS
;	COMDAT ??_C@_0BC@GCCMNPJK@New_Set_Fog_Color?$AA@
CONST	SEGMENT
??_C@_0BC@GCCMNPJK@New_Set_Fog_Color?$AA@ DB 'New_Set_Fog_Color', 00H ; `string'
CONST	ENDS
;	COMDAT ??_C@_0BF@KCBFFFLP@Set_Reticle_Texture2?$AA@
CONST	SEGMENT
??_C@_0BF@KCBFFFLP@Set_Reticle_Texture2?$AA@ DB 'Set_Reticle_Texture2', 00H ; `string'
CONST	ENDS
;	COMDAT ??_C@_0BF@IJDIAGHM@Set_Reticle_Texture1?$AA@
CONST	SEGMENT
??_C@_0BF@IJDIAGHM@Set_Reticle_Texture1?$AA@ DB 'Set_Reticle_Texture1', 00H ; `string'
CONST	ENDS
;	COMDAT ??_C@_0M@JNBJJDPK@AddDataHook?$AA@
CONST	SEGMENT
??_C@_0M@JNBJJDPK@AddDataHook?$AA@ DB 'AddDataHook', 00H ; `string'
CONST	ENDS
;	COMDAT ??_C@_0L@OONHDGA@AddCRCHook?$AA@
CONST	SEGMENT
??_C@_0L@OONHDGA@AddCRCHook?$AA@ DB 'AddCRCHook', 00H	; `string'
CONST	ENDS
;	COMDAT ??_C@_0BF@JHNKODII@AddConsoleOutputHook?$AA@
CONST	SEGMENT
??_C@_0BF@JHNKODII@AddConsoleOutputHook?$AA@ DB 'AddConsoleOutputHook', 00H ; `string'
CONST	ENDS
;	COMDAT ??_C@_0BG@HJDMFMAJ@Is_Currently_Building?$AA@
CONST	SEGMENT
??_C@_0BG@HJDMFMAJ@Is_Currently_Building?$AA@ DB 'Is_Currently_Building', 00H ; `string'
CONST	ENDS
;	COMDAT ??_C@_0BH@NFHCMOHH@Set_Currently_Building?$AA@
CONST	SEGMENT
??_C@_0BH@NFHCMOHH@Set_Currently_Building?$AA@ DB 'Set_Currently_Building'
	DB	00H						; `string'
CONST	ENDS
;	COMDAT ??_C@_0BK@FFCPOFBA@Get_Build_Time_Multiplier?$AA@
CONST	SEGMENT
??_C@_0BK@FFCPOFBA@Get_Build_Time_Multiplier?$AA@ DB 'Get_Build_Time_Mult'
	DB	'iplier', 00H				; `string'
CONST	ENDS
;	COMDAT ??_C@_0BP@NICMHBK@RemoveCharacterPurchaseMonHook?$AA@
CONST	SEGMENT
??_C@_0BP@NICMHBK@RemoveCharacterPurchaseMonHook?$AA@ DB 'RemoveCharacter'
	DB	'PurchaseMonHook', 00H			; `string'
CONST	ENDS
;	COMDAT ??_C@_0BN@IEHLCHGD@RemoveVehiclePurchaseMonHook?$AA@
CONST	SEGMENT
??_C@_0BN@IEHLCHGD@RemoveVehiclePurchaseMonHook?$AA@ DB 'RemoveVehiclePur'
	DB	'chaseMonHook', 00H				; `string'
CONST	ENDS
;	COMDAT ??_C@_0BN@NLJKJAOG@RemovePowerupPurchaseMonHook?$AA@
CONST	SEGMENT
??_C@_0BN@NLJKJAOG@RemovePowerupPurchaseMonHook?$AA@ DB 'RemovePowerupPur'
	DB	'chaseMonHook', 00H				; `string'
CONST	ENDS
;	COMDAT ??_C@_0BM@JJOPGEMI@RemoveCharacterPurchaseHook?$AA@
CONST	SEGMENT
??_C@_0BM@JJOPGEMI@RemoveCharacterPurchaseHook?$AA@ DB 'RemoveCharacterPu'
	DB	'rchaseHook', 00H				; `string'
CONST	ENDS
;	COMDAT ??_C@_0BK@PKCGPCKO@RemoveVehiclePurchaseHook?$AA@
CONST	SEGMENT
??_C@_0BK@PKCGPCKO@RemoveVehiclePurchaseHook?$AA@ DB 'RemoveVehiclePurcha'
	DB	'seHook', 00H				; `string'
CONST	ENDS
;	COMDAT ??_C@_0BK@NGJKJBAA@RemovePowerupPurchaseHook?$AA@
CONST	SEGMENT
??_C@_0BK@NGJKJBAA@RemovePowerupPurchaseHook?$AA@ DB 'RemovePowerupPurcha'
	DB	'seHook', 00H				; `string'
CONST	ENDS
;	COMDAT ??_C@_0BM@EMJBLLNL@AddCharacterPurchaseMonHook?$AA@
CONST	SEGMENT
??_C@_0BM@EMJBLLNL@AddCharacterPurchaseMonHook?$AA@ DB 'AddCharacterPurch'
	DB	'aseMonHook', 00H				; `string'
CONST	ENDS
;	COMDAT ??_C@_0BK@DFGEMPPN@AddVehiclePurchaseMonHook?$AA@
CONST	SEGMENT
??_C@_0BK@DFGEMPPN@AddVehiclePurchaseMonHook?$AA@ DB 'AddVehiclePurchaseM'
	DB	'onHook', 00H				; `string'
CONST	ENDS
;	COMDAT ??_C@_0BK@GKIFHIHI@AddPowerupPurchaseMonHook?$AA@
CONST	SEGMENT
??_C@_0BK@GKIFHIHI@AddPowerupPurchaseMonHook?$AA@ DB 'AddPowerupPurchaseM'
	DB	'onHook', 00H				; `string'
CONST	ENDS
;	COMDAT ??_C@_0BJ@INOONOPD@AddCharacterPurchaseHook?$AA@
CONST	SEGMENT
??_C@_0BJ@INOONOPD@AddCharacterPurchaseHook?$AA@ DB 'AddCharacterPurchase'
	DB	'Hook', 00H					; `string'
CONST	ENDS
;	COMDAT ??_C@_0BH@BMFCOOKO@AddVehiclePurchaseHook?$AA@
CONST	SEGMENT
??_C@_0BH@BMFCOOKO@AddVehiclePurchaseHook?$AA@ DB 'AddVehiclePurchaseHook'
	DB	00H						; `string'
CONST	ENDS
;	COMDAT ??_C@_0BH@DAOOINAA@AddPowerupPurchaseHook?$AA@
CONST	SEGMENT
??_C@_0BH@DAOOINAA@AddPowerupPurchaseHook?$AA@ DB 'AddPowerupPurchaseHook'
	DB	00H						; `string'
CONST	ENDS
;	COMDAT ??_C@_0BB@JKEOAOPH@Change_Radar_Map?$AA@
CONST	SEGMENT
??_C@_0BB@JKEOAOPH@Change_Radar_Map?$AA@ DB 'Change_Radar_Map', 00H ; `string'
CONST	ENDS
;	COMDAT ??_C@_0P@KIKNJFGM@Update_PT_Data?$AA@
CONST	SEGMENT
??_C@_0P@KIKNJFGM@Update_PT_Data?$AA@ DB 'Update_PT_Data', 00H ; `string'
CONST	ENDS
;	COMDAT ??_C@_0O@CGFKECIG@Remove_Weapon?$AA@
CONST	SEGMENT
??_C@_0O@CGFKECIG@Remove_Weapon?$AA@ DB 'Remove_Weapon', 00H ; `string'
CONST	ENDS
;	COMDAT ??_C@_0BB@FALIJHOM@Load_New_HUD_INI?$AA@
CONST	SEGMENT
??_C@_0BB@FALIJHOM@Load_New_HUD_INI?$AA@ DB 'Load_New_HUD_INI', 00H ; `string'
CONST	ENDS
;	COMDAT ??_C@_0BG@BBLOAJCE@New_Enable_Collisions?$AA@
CONST	SEGMENT
??_C@_0BG@BBLOAJCE@New_Enable_Collisions?$AA@ DB 'New_Enable_Collisions', 00H ; `string'
CONST	ENDS
;	COMDAT ??_C@_0CA@LBEEGJKG@New_Disable_Physical_Collisions?$AA@
CONST	SEGMENT
??_C@_0CA@LBEEGJKG@New_Disable_Physical_Collisions?$AA@ DB 'New_Disable_P'
	DB	'hysical_Collisions', 00H			; `string'
CONST	ENDS
;	COMDAT ??_C@_0BL@DCIMBMAN@New_Disable_All_Collisions?$AA@
CONST	SEGMENT
??_C@_0BL@DCIMBMAN@New_Disable_All_Collisions?$AA@ DB 'New_Disable_All_Co'
	DB	'llisions', 00H				; `string'
CONST	ENDS
;	COMDAT ??_C@_0BD@CNJALGFI@Set_Wireframe_Mode?$AA@
CONST	SEGMENT
??_C@_0BD@CNJALGFI@Set_Wireframe_Mode?$AA@ DB 'Set_Wireframe_Mode', 00H ; `string'
CONST	ENDS
;	COMDAT ??_C@_0P@IHKAKAEO@AddVersionHook?$AA@
CONST	SEGMENT
??_C@_0P@IHKAKAEO@AddVersionHook?$AA@ DB 'AddVersionHook', 00H ; `string'
CONST	ENDS
;	COMDAT ??_C@_0BH@GJJAIAB@New_Display_Health_Bar?$AA@
CONST	SEGMENT
??_C@_0BH@GJJAIAB@New_Display_Health_Bar?$AA@ DB 'New_Display_Health_Bar', 00H ; `string'
CONST	ENDS
;	COMDAT ??_C@_0BE@IIGCGNIC@Send_Message_Player?$AA@
CONST	SEGMENT
??_C@_0BE@IIGCGNIC@Send_Message_Player?$AA@ DB 'Send_Message_Player', 00H ; `string'
CONST	ENDS
;	COMDAT ??_C@_0N@NCFONGG@Send_Message?$AA@
CONST	SEGMENT
??_C@_0N@NCFONGG@Send_Message?$AA@ DB 'Send_Message', 00H ; `string'
CONST	ENDS
;	COMDAT ??_C@_0BC@LICIDEMC@Get_Vehicle_Limit?$AA@
CONST	SEGMENT
??_C@_0BC@LICIDEMC@Get_Vehicle_Limit?$AA@ DB 'Get_Vehicle_Limit', 00H ; `string'
CONST	ENDS
;	COMDAT ??_C@_0BC@JNCDLPNM@Set_Vehicle_Limit?$AA@
CONST	SEGMENT
??_C@_0BC@JNCDLPNM@Set_Vehicle_Limit?$AA@ DB 'Set_Vehicle_Limit', 00H ; `string'
CONST	ENDS
;	COMDAT ??_C@_0BD@MBHONDFC@Clear_Info_Texture?$AA@
CONST	SEGMENT
??_C@_0BD@MBHONDFC@Clear_Info_Texture?$AA@ DB 'Clear_Info_Texture', 00H ; `string'
CONST	ENDS
;	COMDAT ??_C@_0BB@KPPILEKB@Set_Info_Texture?$AA@
CONST	SEGMENT
??_C@_0BB@KPPILEKB@Set_Info_Texture?$AA@ DB 'Set_Info_Texture', 00H ; `string'
CONST	ENDS
;	COMDAT ??_C@_0BF@LBJICEGB@GetCurrentMusicTrack?$AA@
CONST	SEGMENT
??_C@_0BF@LBJICEGB@GetCurrentMusicTrack?$AA@ DB 'GetCurrentMusicTrack', 00H ; `string'
CONST	ENDS
;	COMDAT ??_C@_0BC@BBENPMJL@AddPlayerJoinHook?$AA@
CONST	SEGMENT
??_C@_0BC@BBENPMJL@AddPlayerJoinHook?$AA@ DB 'AddPlayerJoinHook', 00H ; `string'
CONST	ENDS
;	COMDAT ??_C@_0BA@CLNCABAJ@AddGameOverHook?$AA@
CONST	SEGMENT
??_C@_0BA@CLNCABAJ@AddGameOverHook?$AA@ DB 'AddGameOverHook', 00H ; `string'
CONST	ENDS
;	COMDAT ??_C@_0BB@EIEGDAAC@AddLoadLevelHook?$AA@
CONST	SEGMENT
??_C@_0BB@EIEGDAAC@AddLoadLevelHook?$AA@ DB 'AddLoadLevelHook', 00H ; `string'
CONST	ENDS
;	COMDAT ??_C@_0M@PIBLNPHK@AddHostHook?$AA@
CONST	SEGMENT
??_C@_0M@PIBLNPHK@AddHostHook?$AA@ DB 'AddHostHook', 00H ; `string'
CONST	ENDS
;	COMDAT ??_C@_0M@IAMKMFFJ@AddChatHook?$AA@
CONST	SEGMENT
??_C@_0M@IAMKMFFJ@AddChatHook?$AA@ DB 'AddChatHook', 00H ; `string'
CONST	ENDS
;	COMDAT ??_C@_0BA@KLLGFAPE@Set_HUD_Texture?$AA@
CONST	SEGMENT
??_C@_0BA@KLLGFAPE@Set_HUD_Texture?$AA@ DB 'Set_HUD_Texture', 00H ; `string'
CONST	ENDS
;	COMDAT ??_C@_09NOJDAPDO@Set_Scope?$AA@
CONST	SEGMENT
??_C@_09NOJDAPDO@Set_Scope?$AA@ DB 'Set_Scope', 00H	; `string'
CONST	ENDS
;	COMDAT ??_C@_0O@CMJPPFDF@RemoveKeyHook?$AA@
CONST	SEGMENT
??_C@_0O@CMJPPFDF@RemoveKeyHook?$AA@ DB 'RemoveKeyHook', 00H ; `string'
CONST	ENDS
;	COMDAT ??_C@_0L@BFCNNHMC@AddKeyHook?$AA@
CONST	SEGMENT
??_C@_0L@BFCNNHMC@AddKeyHook?$AA@ DB 'AddKeyHook', 00H	; `string'
CONST	ENDS
;	COMDAT ??_C@_0BK@GKCDPKE@NewRemoveObjectCreateHook?$AA@
CONST	SEGMENT
??_C@_0BK@GKCDPKE@NewRemoveObjectCreateHook?$AA@ DB 'NewRemoveObjectCreat'
	DB	'eHook', 00H					; `string'
CONST	ENDS
;	COMDAT ??_C@_0BH@LGGKJPMB@NewAddObjectCreateHook?$AA@
CONST	SEGMENT
??_C@_0BH@LGGKJPMB@NewAddObjectCreateHook?$AA@ DB 'NewAddObjectCreateHook'
	DB	00H						; `string'
CONST	ENDS
;	COMDAT ??_C@_0CE@MGFOBBDG@New_Set_Obj_Radar_Blip_Color_Pla@
CONST	SEGMENT
??_C@_0CE@MGFOBBDG@New_Set_Obj_Radar_Blip_Color_Pla@ DB 'New_Set_Obj_Rada'
	DB	'r_Blip_Color_Player', 00H			; `string'
CONST	ENDS
;	COMDAT ??_C@_0CE@NDFBOGLJ@New_Set_Obj_Radar_Blip_Shape_Pla@
CONST	SEGMENT
??_C@_0CE@NDFBOGLJ@New_Set_Obj_Radar_Blip_Shape_Pla@ DB 'New_Set_Obj_Rada'
	DB	'r_Blip_Shape_Player', 00H			; `string'
CONST	ENDS
;	COMDAT ??_C@_0BN@NDFNHDJN@New_Set_Obj_Radar_Blip_Color?$AA@
CONST	SEGMENT
??_C@_0BN@NDFNHDJN@New_Set_Obj_Radar_Blip_Color?$AA@ DB 'New_Set_Obj_Rada'
	DB	'r_Blip_Color', 00H				; `string'
CONST	ENDS
;	COMDAT ??_C@_0BN@ICDIBFBA@New_Set_Obj_Radar_Blip_Shape?$AA@
CONST	SEGMENT
??_C@_0BN@ICDIBFBA@New_Set_Obj_Radar_Blip_Shape?$AA@ DB 'New_Set_Obj_Rada'
	DB	'r_Blip_Shape', 00H				; `string'
CONST	ENDS
;	COMDAT ??_C@_0BJ@BHPFPCAI@New_Display_Float_Player?$AA@
CONST	SEGMENT
??_C@_0BJ@BHPFPCAI@New_Display_Float_Player?$AA@ DB 'New_Display_Float_Pl'
	DB	'ayer', 00H					; `string'
CONST	ENDS
;	COMDAT ??_C@_0BH@EMLDPBJE@New_Display_Int_Player?$AA@
CONST	SEGMENT
??_C@_0BH@EMLDPBJE@New_Display_Int_Player?$AA@ DB 'New_Display_Int_Player'
	DB	00H						; `string'
CONST	ENDS
;	COMDAT ??_C@_0BI@BIGCCHLL@New_Display_Text_Player?$AA@
CONST	SEGMENT
??_C@_0BI@BIGCCHLL@New_Display_Text_Player?$AA@ DB 'New_Display_Text_Play'
	DB	'er', 00H					; `string'
CONST	ENDS
;	COMDAT ??_C@_0BN@FDAGJMKD@New_Set_Display_Color_Player?$AA@
CONST	SEGMENT
??_C@_0BN@FDAGJMKD@New_Set_Display_Color_Player?$AA@ DB 'New_Set_Display_'
	DB	'Color_Player', 00H				; `string'
CONST	ENDS
;	COMDAT ??_C@_0CD@HKAJONGF@New_Create_3D_Sound_At_Bone_Play@
CONST	SEGMENT
??_C@_0CD@HKAJONGF@New_Create_3D_Sound_At_Bone_Play@ DB 'New_Create_3D_So'
	DB	'und_At_Bone_Player', 00H			; `string'
CONST	ENDS
;	COMDAT ??_C@_0CH@KEGANMCF@New_Create_3D_WAV_Sound_At_Bone_@
CONST	SEGMENT
??_C@_0CH@KEGANMCF@New_Create_3D_WAV_Sound_At_Bone_@ DB 'New_Create_3D_WA'
	DB	'V_Sound_At_Bone_Player', 00H		; `string'
CONST	ENDS
;	COMDAT ??_C@_0BP@BNBMIEKM@New_Create_2D_WAV_Sound_Player?$AA@
CONST	SEGMENT
??_C@_0BP@BNBMIEKM@New_Create_2D_WAV_Sound_Player?$AA@ DB 'New_Create_2D_'
	DB	'WAV_Sound_Player', 00H			; `string'
CONST	ENDS
;	COMDAT ??_C@_0BL@ENMIMBIM@New_Create_2D_Sound_Player?$AA@
CONST	SEGMENT
??_C@_0BL@ENMIMBIM@New_Create_2D_Sound_Player?$AA@ DB 'New_Create_2D_Soun'
	DB	'd_Player', 00H				; `string'
CONST	ENDS
;	COMDAT ??_C@_0BI@NNCDIJF@New_Create_Sound_Player?$AA@
CONST	SEGMENT
??_C@_0BI@NNCDIJF@New_Create_Sound_Player?$AA@ DB 'New_Create_Sound_Playe'
	DB	'r', 00H					; `string'
CONST	ENDS
;	COMDAT ??_C@_0BG@OABCCFFJ@New_Enable_HUD_Player?$AA@
CONST	SEGMENT
??_C@_0BG@OABCCFFJ@New_Enable_HUD_Player?$AA@ DB 'New_Enable_HUD_Player', 00H ; `string'
CONST	ENDS
;	COMDAT ??_C@_0BN@MANAFNCH@New_Force_Camera_Look_Player?$AA@
CONST	SEGMENT
??_C@_0BN@MANAFNCH@New_Force_Camera_Look_Player?$AA@ DB 'New_Force_Camera'
	DB	'_Look_Player', 00H				; `string'
CONST	ENDS
;	COMDAT ??_C@_0CD@OGHDHBBK@New_Set_Screen_Fade_Opacity_Play@
CONST	SEGMENT
??_C@_0CD@OGHDHBBK@New_Set_Screen_Fade_Opacity_Play@ DB 'New_Set_Screen_F'
	DB	'ade_Opacity_Player', 00H			; `string'
CONST	ENDS
;	COMDAT ??_C@_0CB@LCBOAKKM@New_Set_Screen_Fade_Color_Player@
CONST	SEGMENT
??_C@_0CB@LCBOAKKM@New_Set_Screen_Fade_Color_Player@ DB 'New_Set_Screen_F'
	DB	'ade_Color_Player', 00H			; `string'
CONST	ENDS
;	COMDAT ??_C@_0CH@BPDIBODD@New_Display_NOD_Player_Terminal_@
CONST	SEGMENT
??_C@_0CH@BPDIBODD@New_Display_NOD_Player_Terminal_@ DB 'New_Display_NOD_'
	DB	'Player_Terminal_Player', 00H		; `string'
CONST	ENDS
;	COMDAT ??_C@_0CH@GGHFFKPO@New_Display_GDI_Player_Terminal_@
CONST	SEGMENT
??_C@_0CH@GGHFFKPO@New_Display_GDI_Player_Terminal_@ DB 'New_Display_GDI_'
	DB	'Player_Terminal_Player', 00H		; `string'
CONST	ENDS
;	COMDAT ??_C@_0BI@MCHCNCJI@New_Enable_Radar_Player?$AA@
CONST	SEGMENT
??_C@_0BI@MCHCNCJI@New_Enable_Radar_Player?$AA@ DB 'New_Enable_Radar_Play'
	DB	'er', 00H					; `string'
CONST	ENDS
;	COMDAT ??_C@_0CB@JGAFACH@New_Stop_Background_Music_Player@
CONST	SEGMENT
??_C@_0CB@JGAFACH@New_Stop_Background_Music_Player@ DB 'New_Stop_Backgrou'
	DB	'nd_Music_Player', 00H			; `string'
CONST	ENDS
;	COMDAT ??_C@_0CB@LBDBCOBG@New_Fade_Background_Music_Player@
CONST	SEGMENT
??_C@_0CB@LBDBCOBG@New_Fade_Background_Music_Player@ DB 'New_Fade_Backgro'
	DB	'und_Music_Player', 00H			; `string'
CONST	ENDS
;	COMDAT ??_C@_0CA@KFLOIEGG@New_Set_Background_Music_Player?$AA@
CONST	SEGMENT
??_C@_0CA@KFLOIEGG@New_Set_Background_Music_Player?$AA@ DB 'New_Set_Backg'
	DB	'round_Music_Player', 00H			; `string'
CONST	ENDS
;	COMDAT ??_C@_0BJ@POBGEGB@New_Set_Fog_Range_Player?$AA@
CONST	SEGMENT
??_C@_0BJ@POBGEGB@New_Set_Fog_Range_Player?$AA@ DB 'New_Set_Fog_Range_Pla'
	DB	'yer', 00H					; `string'
CONST	ENDS
;	COMDAT ??_C@_0BK@BODOPFDH@New_Set_Fog_Enable_Player?$AA@
CONST	SEGMENT
??_C@_0BK@BODOPFDH@New_Set_Fog_Enable_Player?$AA@ DB 'New_Set_Fog_Enable_'
	DB	'Player', 00H				; `string'
CONST	ENDS
;	COMDAT ??_C@_0BK@KODEAOPK@New_Enable_Stealth_Player?$AA@
CONST	SEGMENT
??_C@_0BK@KODEAOPK@New_Enable_Stealth_Player?$AA@ DB 'New_Enable_Stealth_'
	DB	'Player', 00H				; `string'
CONST	ENDS
;	COMDAT ??_C@_0O@COMKEHBD@New_Set_Model?$AA@
CONST	SEGMENT
??_C@_0O@COMKEHBD@New_Set_Model?$AA@ DB 'New_Set_Model', 00H ; `string'
CONST	ENDS
;	COMDAT ??_C@_0BB@MNJLFKNF@New_Shake_Camera?$AA@
CONST	SEGMENT
??_C@_0BB@MNJLFKNF@New_Shake_Camera?$AA@ DB 'New_Shake_Camera', 00H ; `string'
CONST	ENDS
;	COMDAT ??_C@_0BC@NCKGKIKH@New_Select_Weapon?$AA@
CONST	SEGMENT
??_C@_0BC@NCKGKIKH@New_Select_Weapon?$AA@ DB 'New_Select_Weapon', 00H ; `string'
CONST	ENDS
;	COMDAT ??_C@_0BA@OLJFNGPH@New_Display_Int?$AA@
CONST	SEGMENT
??_C@_0BA@OLJFNGPH@New_Display_Int?$AA@ DB 'New_Display_Int', 00H ; `string'
CONST	ENDS
;	COMDAT ??_C@_0BC@DKIFMHMA@New_Display_Float?$AA@
CONST	SEGMENT
??_C@_0BC@DKIFMHMA@New_Display_Float?$AA@ DB 'New_Display_Float', 00H ; `string'
CONST	ENDS
;	COMDAT ??_C@_0BB@COAKGDMN@New_Display_Text?$AA@
CONST	SEGMENT
??_C@_0BB@COAKGDMN@New_Display_Text?$AA@ DB 'New_Display_Text', 00H ; `string'
CONST	ENDS
;	COMDAT ??_C@_0BG@IEMOFMGB@New_Set_Display_Color?$AA@
CONST	SEGMENT
??_C@_0BG@IEMOFMGB@New_Set_Display_Color?$AA@ DB 'New_Set_Display_Color', 00H ; `string'
CONST	ENDS
;	COMDAT ??_C@_0BM@LAKGIHPF@New_Set_Screen_Fade_Opacity?$AA@
CONST	SEGMENT
??_C@_0BM@LAKGIHPF@New_Set_Screen_Fade_Opacity?$AA@ DB 'New_Set_Screen_Fa'
	DB	'de_Opacity', 00H				; `string'
CONST	ENDS
;	COMDAT ??_C@_0BK@FDMKHFBH@New_Set_Screen_Fade_Color?$AA@
CONST	SEGMENT
??_C@_0BK@FDMKHFBH@New_Set_Screen_Fade_Color?$AA@ DB 'New_Set_Screen_Fade'
	DB	'_Color', 00H				; `string'
CONST	ENDS
;	COMDAT ??_C@_0BE@ONIFHAHC@New_Set_Player_Type?$AA@
CONST	SEGMENT
??_C@_0BE@ONIFHAHC@New_Set_Player_Type?$AA@ DB 'New_Set_Player_Type', 00H ; `string'
CONST	ENDS
;	COMDAT ??_C@_0BP@HAHCDGEG@New_Enable_Vehicle_Transitions?$AA@
CONST	SEGMENT
??_C@_0BP@HAHCDGEG@New_Enable_Vehicle_Transitions?$AA@ DB 'New_Enable_Veh'
	DB	'icle_Transitions', 00H			; `string'
CONST	ENDS
;	COMDAT ??_C@_0BC@KOFDDJA@New_Clear_Weapons?$AA@
CONST	SEGMENT
??_C@_0BC@KOFDDJA@New_Clear_Weapons?$AA@ DB 'New_Clear_Weapons', 00H ; `string'
CONST	ENDS
;	COMDAT ??_C@_0BP@JPAENPMP@New_Play_Building_Announcement?$AA@
CONST	SEGMENT
??_C@_0BP@JPAENPMP@New_Play_Building_Announcement?$AA@ DB 'New_Play_Build'
	DB	'ing_Announcement', 00H			; `string'
CONST	ENDS
;	COMDAT ??_C@_0BM@NEPOFEN@New_Create_3D_Sound_At_Bone?$AA@
CONST	SEGMENT
??_C@_0BM@NEPOFEN@New_Create_3D_Sound_At_Bone?$AA@ DB 'New_Create_3D_Soun'
	DB	'd_At_Bone', 00H				; `string'
CONST	ENDS
;	COMDAT ??_C@_0CA@COANFJBN@New_Create_3D_WAV_Sound_At_Bone?$AA@
CONST	SEGMENT
??_C@_0CA@COANFJBN@New_Create_3D_WAV_Sound_At_Bone?$AA@ DB 'New_Create_3D'
	DB	'_WAV_Sound_At_Bone', 00H			; `string'
CONST	ENDS
;	COMDAT ??_C@_0BI@HGKHHIKA@New_Create_2D_WAV_Sound?$AA@
CONST	SEGMENT
??_C@_0BI@HGKHHIKA@New_Create_2D_WAV_Sound?$AA@ DB 'New_Create_2D_WAV_Sou'
	DB	'nd', 00H					; `string'
CONST	ENDS
;	COMDAT ??_C@_0BE@OHJEGAJE@New_Create_2D_Sound?$AA@
CONST	SEGMENT
??_C@_0BE@OHJEGAJE@New_Create_2D_Sound?$AA@ DB 'New_Create_2D_Sound', 00H ; `string'
CONST	ENDS
;	COMDAT ??_C@_0BB@DMKAPJOM@New_Create_Sound?$AA@
CONST	SEGMENT
??_C@_0BB@DMKAPJOM@New_Create_Sound?$AA@ DB 'New_Create_Sound', 00H ; `string'
CONST	ENDS
;	COMDAT ??_C@_0BK@GHEGIDEJ@New_Stop_Background_Music?$AA@
CONST	SEGMENT
??_C@_0BK@GHEGIDEJ@New_Stop_Background_Music?$AA@ DB 'New_Stop_Background'
	DB	'_Music', 00H				; `string'
CONST	ENDS
;	COMDAT ??_C@_0BJ@CHDMIIDC@New_Set_Background_Music?$AA@
CONST	SEGMENT
??_C@_0BJ@CHDMIIDC@New_Set_Background_Music?$AA@ DB 'New_Set_Background_M'
	DB	'usic', 00H					; `string'
CONST	ENDS
;	COMDAT ??_C@_0BK@FMEFIGMJ@New_Fade_Background_Music?$AA@
CONST	SEGMENT
??_C@_0BK@FMEFIGMJ@New_Fade_Background_Music?$AA@ DB 'New_Fade_Background'
	DB	'_Music', 00H				; `string'
CONST	ENDS
;	COMDAT ??_C@_0BC@DFFBEOEP@New_Set_War_Blitz?$AA@
CONST	SEGMENT
??_C@_0BC@DFFBEOEP@New_Set_War_Blitz?$AA@ DB 'New_Set_War_Blitz', 00H ; `string'
CONST	ENDS
;	COMDAT ??_C@_0BC@LEAPKNGA@New_Set_Fog_Range?$AA@
CONST	SEGMENT
??_C@_0BC@LEAPKNGA@New_Set_Fog_Range?$AA@ DB 'New_Set_Fog_Range', 00H ; `string'
CONST	ENDS
;	COMDAT ??_C@_0BD@LMPMLNOO@New_Set_Fog_Enable?$AA@
CONST	SEGMENT
??_C@_0BD@LMPMLNOO@New_Set_Fog_Enable?$AA@ DB 'New_Set_Fog_Enable', 00H ; `string'
CONST	ENDS
;	COMDAT ??_C@_0BN@FMOGPLMC@New_Create_Explosion_At_Bone?$AA@
CONST	SEGMENT
??_C@_0BN@FMOGPLMC@New_Create_Explosion_At_Bone?$AA@ DB 'New_Create_Explo'
	DB	'sion_At_Bone', 00H				; `string'
CONST	ENDS
;	COMDAT ??_C@_0BF@LANEKPIK@New_Create_Explosion?$AA@
CONST	SEGMENT
??_C@_0BF@LANEKPIK@New_Create_Explosion?$AA@ DB 'New_Create_Explosion', 00H ; `string'
CONST	ENDS
;	COMDAT ??_C@_0BD@CEDCHKBB@New_Enable_Stealth?$AA@
CONST	SEGMENT
??_C@_0BD@CEDCHKBB@New_Enable_Stealth?$AA@ DB 'New_Enable_Stealth', 00H ; `string'
CONST	ENDS
;	COMDAT ??_C@_0CM@MKMOBENL@Error?5getting?5function?5address?5f@
CONST	SEGMENT
??_C@_0CM@MKMOBENL@Error?5getting?5function?5address?5f@ DB 'Error gettin'
	DB	'g function address from bhs.dll', 00H	; `string'
__bad_alloc_Message DD FLAT:??_C@_0P@GHFPNOJB@bad?5allocation?$AA@
; Function compile flags: /Ogtpy
; File c:\program files\microsoft visual studio 9.0\vc\include\xutility
;	COMDAT ??$_Copy_opt@PAPAUChatCommandInfo@@PAPAU1@Urandom_access_iterator_tag@std@@@std@@YAPAPAUChatCommandInfo@@PAPAU1@00Urandom_access_iterator_tag@0@U_Scalar_ptr_iterator_tag@0@U_Range_checked_iterator_tag@0@@Z
_TEXT	SEGMENT
__Dest$ = 8						; size = 4
__Result$ = 12						; size = 4
??$_Copy_opt@PAPAUChatCommandInfo@@PAPAU1@Urandom_access_iterator_tag@std@@@std@@YAPAPAUChatCommandInfo@@PAPAU1@00Urandom_access_iterator_tag@0@U_Scalar_ptr_iterator_tag@0@U_Range_checked_iterator_tag@0@@Z PROC ; std::_Copy_opt<ChatCommandInfo * *,ChatCommandInfo * *,std::random_access_iterator_tag>, COMDAT
; __First$ = ecx
; __Off$ = eax

; 2495 : 
; 2496 :  #if _HAS_ITERATOR_DEBUGGING
; 2497 : 	_DEBUG_RANGE(_First, _Last);
; 2498 : 	if (_First != _Last)
; 2499 : 		_DEBUG_POINTER(_Dest);
; 2500 :  #endif /* _HAS_ITERATOR_DEBUGGING */
; 2501 : 
; 2502 : 	ptrdiff_t _Off = _Last - _First;	// NB: non-overlapping move
; 2503 : 	// if _OutIt is range checked, this will make sure there is enough space for the memmove
; 2504 : 	_OutIt _Result = _Dest + _Off;
; 2505 : 	if (_Off > 0)
; 2506 : 		_CRT_SECURE_MEMMOVE(&*_Dest, _Off * sizeof (*_First), &*_First, _Off * sizeof (*_First));

	mov	edx, DWORD PTR __Dest$[esp-4]
	add	eax, eax
	add	eax, eax
	push	eax
	push	ecx
	push	eax
	push	edx
	call	_memmove_s

; 2507 : 	return _Result;

	mov	eax, DWORD PTR __Result$[esp+12]
	add	esp, 16					; 00000010H

; 2508 : 	}

	ret	0
??$_Copy_opt@PAPAUChatCommandInfo@@PAPAU1@Urandom_access_iterator_tag@std@@@std@@YAPAPAUChatCommandInfo@@PAPAU1@00Urandom_access_iterator_tag@0@U_Scalar_ptr_iterator_tag@0@U_Range_checked_iterator_tag@0@@Z ENDP ; std::_Copy_opt<ChatCommandInfo * *,ChatCommandInfo * *,std::random_access_iterator_tag>
_TEXT	ENDS
PUBLIC	_Set_Request_Destroy_Func
; Function compile flags: /Ogtpy
; File c:\users\admin\desktop\projects\seye_server\dllmain.cpp
;	COMDAT _Set_Request_Destroy_Func
_TEXT	SEGMENT
_Func$ = 8						; size = 4
_Set_Request_Destroy_Func PROC				; COMDAT

; 217  : 	ScriptImpClass::Set_Request_Destroy_Func(Func);

	mov	eax, DWORD PTR _Func$[esp-4]
	mov	DWORD PTR ?RequestDestroyScript@ScriptImpClass@@0P6AXPAVScriptClass@@@ZA, eax ; ScriptImpClass::RequestDestroyScript

; 218  : }

	ret	0
_Set_Request_Destroy_Func ENDP
_TEXT	ENDS
PUBLIC	?GetProcAddressCheck@@YAP6GHXZPAUHINSTANCE__@@PBD@Z ; GetProcAddressCheck
; Function compile flags: /Ogtpy
;	COMDAT ?GetProcAddressCheck@@YAP6GHXZPAUHINSTANCE__@@PBD@Z
_TEXT	SEGMENT
?GetProcAddressCheck@@YAP6GHXZPAUHINSTANCE__@@PBD@Z PROC ; GetProcAddressCheck, COMDAT
; _lpProcName$ = edi

; 36   : {

	mov	eax, DWORD PTR ?bhs@@3PAUHINSTANCE__@@A	; bhs
	push	esi

; 37   : 	FARPROC x = GetProcAddress(hModule,lpProcName);

	push	edi
	push	eax
	call	DWORD PTR __imp__GetProcAddress@8
	mov	esi, eax

; 38   : 	if (!x)

	test	esi, esi
	jne	SHORT $LN1@GetProcAdd

; 39   : 	{
; 40   : 		MessageBox(HWND_DESKTOP,"Error getting function address from bhs.dll",lpProcName,MB_OK|MB_ICONEXCLAMATION);

	push	48					; 00000030H
	push	edi
	push	OFFSET ??_C@_0CM@MKMOBENL@Error?5getting?5function?5address?5f@
	push	eax
	call	DWORD PTR __imp__MessageBoxA@16

; 41   : 	}
; 42   : 	return x;

	mov	eax, esi
$LN1@GetProcAdd:
	pop	esi

; 43   : }

	ret	0
?GetProcAddressCheck@@YAP6GHXZPAUHINSTANCE__@@PBD@Z ENDP ; GetProcAddressCheck
; Function compile flags: /Ogtpy
; File c:\program files\microsoft visual studio 9.0\vc\include\xutility
;	COMDAT ??$unchecked_copy@PAPAUChatCommandInfo@@PAPAU1@@stdext@@YAPAPAUChatCommandInfo@@PAPAU1@00@Z
_TEXT	SEGMENT
??$unchecked_copy@PAPAUChatCommandInfo@@PAPAU1@@stdext@@YAPAPAUChatCommandInfo@@PAPAU1@00@Z PROC ; stdext::unchecked_copy<ChatCommandInfo * *,ChatCommandInfo * *>, COMDAT
; __First$ = edi
; __Last$ = eax
; __Dest$ = edx

; 3605 : 		return (_STD _Copy_opt(_CHECKED_BASE(_First), _CHECKED_BASE(_Last), _Dest,
; 3606 : 			_STD _Iter_random(_First, _Dest), _STD _Ptr_cat(_First, _Dest), _STD _Range_checked_iterator_tag()));

	sub	eax, edi
	sar	eax, 2
	lea	ecx, DWORD PTR [eax*4]
	push	esi
	lea	esi, DWORD PTR [ecx+edx]
	test	eax, eax
	jle	SHORT $LN18@unchecked_
	push	ecx
	push	edi
	push	ecx
	push	edx
	call	_memmove_s
	add	esp, 16					; 00000010H
$LN18@unchecked_:
	mov	eax, esi
	pop	esi

; 3607 : 	}

	ret	0
??$unchecked_copy@PAPAUChatCommandInfo@@PAPAU1@@stdext@@YAPAPAUChatCommandInfo@@PAPAU1@00@Z ENDP ; stdext::unchecked_copy<ChatCommandInfo * *,ChatCommandInfo * *>
; Function compile flags: /Ogtpy
; File c:\program files\microsoft visual studio 9.0\vc\include\vector
_TEXT	ENDS
;	COMDAT ?_Tidy@?$vector@PAUChatCommandInfo@@V?$allocator@PAUChatCommandInfo@@@std@@@std@@IAEXXZ
_TEXT	SEGMENT
?_Tidy@?$vector@PAUChatCommandInfo@@V?$allocator@PAUChatCommandInfo@@@std@@@std@@IAEXXZ PROC ; std::vector<ChatCommandInfo *,std::allocator<ChatCommandInfo *> >::_Tidy, COMDAT
; _this$ = esi

; 1124 : 		if (_Myfirst != 0)

	mov	eax, DWORD PTR [esi+12]
	test	eax, eax
	je	SHORT $LN6@Tidy@2

; 1125 : 			{	// something to free, destroy and deallocate it
; 1126 : 
; 1127 :  #if _HAS_ITERATOR_DEBUGGING
; 1128 : 			this->_Orphan_all();
; 1129 :  #endif /* _HAS_ITERATOR_DEBUGGING */
; 1130 : 
; 1131 : 			_Destroy(_Myfirst, _Mylast);
; 1132 : 			this->_Alval.deallocate(_Myfirst, _Myend - _Myfirst);

	push	eax
	call	DWORD PTR ?RenDelete@@3P6AXPAX@ZA	; RenDelete
	add	esp, 4
$LN6@Tidy@2:

; 1133 : 			}
; 1134 : 		_Myfirst = 0, _Mylast = 0, _Myend = 0;

	mov	DWORD PTR [esi+12], 0
	mov	DWORD PTR [esi+16], 0
	mov	DWORD PTR [esi+20], 0

; 1135 : 		}

	ret	0
?_Tidy@?$vector@PAUChatCommandInfo@@V?$allocator@PAUChatCommandInfo@@@std@@@std@@IAEXXZ ENDP ; std::vector<ChatCommandInfo *,std::allocator<ChatCommandInfo *> >::_Tidy
_TEXT	ENDS
PUBLIC	_Create_Script
; Function compile flags: /Ogtpy
; File c:\users\admin\desktop\projects\seye_server\dllmain.cpp
;	COMDAT _Create_Script
_TEXT	SEGMENT
_ScriptName$ = 8					; size = 4
_Create_Script PROC					; COMDAT

; 79   : {

	push	edi

; 80   : 	if (!ScriptName)

	mov	edi, DWORD PTR _ScriptName$[esp]
	test	edi, edi

; 81   : 	{
; 82   : 		return 0;

	je	SHORT $LN18@Create_Scr
	push	esi

; 83   : 	}
; 84   : 	return ScriptRegistrar::CreateScript(ScriptName);

	mov	esi, DWORD PTR ?mScriptFactories@ScriptRegistrar@@0PAVScriptFactory@@A ; ScriptRegistrar::mScriptFactories
	test	esi, esi
	je	SHORT $LN5@Create_Scr
$LL6@Create_Scr:
	mov	eax, DWORD PTR [esi+8]
	push	edi
	push	eax
	call	__stricmp
	add	esp, 8
	test	eax, eax
	je	SHORT $LN15@Create_Scr
	mov	esi, DWORD PTR [esi+4]
	test	esi, esi
	jne	SHORT $LL6@Create_Scr
$LN5@Create_Scr:
	pop	esi
$LN18@Create_Scr:
	xor	eax, eax
	pop	edi

; 85   : }

	ret	0
$LN15@Create_Scr:

; 83   : 	}
; 84   : 	return ScriptRegistrar::CreateScript(ScriptName);

	mov	eax, DWORD PTR [esi]
	mov	edx, DWORD PTR [eax+4]
	mov	ecx, esi
	pop	esi
	pop	edi
	jmp	edx
_Create_Script ENDP
_TEXT	ENDS
PUBLIC	_DllMain@12
; Function compile flags: /Ogtpy
;	COMDAT _DllMain@12
_TEXT	SEGMENT
_hinstDLL$ = 8						; size = 4
_ul_reason_for_call$ = 12				; size = 4
_lpReserved$ = 16					; size = 4
_DllMain@12 PROC					; COMDAT

; 58   : 	switch (ul_reason_for_call)

	mov	eax, DWORD PTR _ul_reason_for_call$[esp-4]
	sub	eax, 1
	jne	SHORT $LN8@DllMain

; 59   : 	{
; 60   : 		case DLL_PROCESS_ATTACH:
; 61   : 			DisableThreadLibraryCalls(hinstDLL);

	mov	eax, DWORD PTR _hinstDLL$[esp-4]
	push	eax
	call	DWORD PTR __imp__DisableThreadLibraryCalls@4

; 62   : 			if (Exe == 6)

	cmp	DWORD PTR ?Exe@@3HA, 6			; Exe
	jne	SHORT $LN2@DllMain

; 63   : 			{
; 64   : 				InitEngine();

	call	?InitEngine@@YAXXZ			; InitEngine
$LN2@DllMain:

; 65   : 			}
; 66   : 			InitEngineSSGM();

	call	?InitEngineSSGM@@YAXXZ			; InitEngineSSGM
$LN8@DllMain:

; 67   : 			break;
; 68   : 		case DLL_PROCESS_DETACH:
; 69   : #if DEBUG
; 70   : 			m_dumpMemoryReport("memreport_scripts.log",false);
; 71   : #endif
; 72   : 			break;
; 73   : 	}
; 74   : 	return TRUE;

	mov	eax, 1

; 75   : }

	ret	12					; 0000000cH
_DllMain@12 ENDP
; Function compile flags: /Ogtpy
; File c:\program files\microsoft visual studio 9.0\vc\include\vector
;	COMDAT ?_Make_iter@?$vector@PAUChatCommandInfo@@V?$allocator@PAUChatCommandInfo@@@std@@@std@@QBE?AV?$_Vector_iterator@PAUChatCommandInfo@@V?$allocator@PAUChatCommandInfo@@@std@@@2@V?$_Vector_const_iterator@PAUChatCommandInfo@@V?$allocator@PAUChatCommandInfo@@@std@@@2@@Z
_TEXT	SEGMENT
__Where$ = 8						; size = 8
?_Make_iter@?$vector@PAUChatCommandInfo@@V?$allocator@PAUChatCommandInfo@@@std@@@std@@QBE?AV?$_Vector_iterator@PAUChatCommandInfo@@V?$allocator@PAUChatCommandInfo@@@std@@@2@V?$_Vector_const_iterator@PAUChatCommandInfo@@V?$allocator@PAUChatCommandInfo@@@std@@@2@@Z PROC ; std::vector<ChatCommandInfo *,std::allocator<ChatCommandInfo *> >::_Make_iter, COMDAT
; _this$ = edi
; ___$ReturnUdt$ = esi

; 661  : 		return (iterator(_Where._Myptr, this));

	mov	DWORD PTR [esi], 0
	test	edi, edi
	je	SHORT $LN8@Make_iter
	mov	eax, DWORD PTR __Where$[esp]
	cmp	DWORD PTR [edi+12], eax
	ja	SHORT $LN8@Make_iter
	cmp	eax, DWORD PTR [edi+16]
	jbe	SHORT $LN7@Make_iter
$LN8@Make_iter:
	call	__invalid_parameter_noinfo
	mov	eax, DWORD PTR __Where$[esp]
$LN7@Make_iter:
	mov	ecx, DWORD PTR [edi]
	mov	DWORD PTR [esi+4], eax
	mov	DWORD PTR [esi], ecx
	mov	eax, esi

; 662  : 		}

	ret	8
?_Make_iter@?$vector@PAUChatCommandInfo@@V?$allocator@PAUChatCommandInfo@@@std@@@std@@QBE?AV?$_Vector_iterator@PAUChatCommandInfo@@V?$allocator@PAUChatCommandInfo@@@std@@@2@V?$_Vector_const_iterator@PAUChatCommandInfo@@V?$allocator@PAUChatCommandInfo@@@std@@@2@@Z ENDP ; std::vector<ChatCommandInfo *,std::allocator<ChatCommandInfo *> >::_Make_iter
; Function compile flags: /Ogtpy
_TEXT	ENDS
;	COMDAT ?erase@?$vector@PAUChatCommandInfo@@V?$allocator@PAUChatCommandInfo@@@std@@@std@@QAE?AV?$_Vector_iterator@PAUChatCommandInfo@@V?$allocator@PAUChatCommandInfo@@@std@@@2@V?$_Vector_const_iterator@PAUChatCommandInfo@@V?$allocator@PAUChatCommandInfo@@@std@@@2@0@Z
_TEXT	SEGMENT
___$ReturnUdt$ = 8					; size = 4
__First_arg$ = 12					; size = 8
__Last_arg$ = 20					; size = 8
?erase@?$vector@PAUChatCommandInfo@@V?$allocator@PAUChatCommandInfo@@@std@@@std@@QAE?AV?$_Vector_iterator@PAUChatCommandInfo@@V?$allocator@PAUChatCommandInfo@@@std@@@2@V?$_Vector_const_iterator@PAUChatCommandInfo@@V?$allocator@PAUChatCommandInfo@@@std@@@2@0@Z PROC ; std::vector<ChatCommandInfo *,std::allocator<ChatCommandInfo *> >::erase, COMDAT
; _this$ = esi

; 1028 : 		{	// erase [_First, _Last)

	push	ebx
	mov	ebx, DWORD PTR ___$ReturnUdt$[esp]
	push	ebp
	push	edi

; 1029 : 		iterator _First = _Make_iter(_First_arg);

	mov	DWORD PTR [ebx], 0
	test	esi, esi
	je	SHORT $LN11@erase@2
	mov	eax, DWORD PTR __First_arg$[esp+12]
	cmp	DWORD PTR [esi+12], eax
	ja	SHORT $LN11@erase@2
	cmp	eax, DWORD PTR [esi+16]
	jbe	SHORT $LN10@erase@2
$LN11@erase@2:
	call	__invalid_parameter_noinfo
	mov	eax, DWORD PTR __First_arg$[esp+12]
$LN10@erase@2:

; 1030 : 		iterator _Last = _Make_iter(_Last_arg);

	mov	edi, DWORD PTR __Last_arg$[esp+12]
	mov	ecx, DWORD PTR [esi]
	mov	DWORD PTR [ebx], ecx
	mov	DWORD PTR [ebx+4], eax
	cmp	DWORD PTR [esi+12], edi
	ja	SHORT $LN30@erase@2
	cmp	edi, DWORD PTR [esi+16]
	jbe	SHORT $LN29@erase@2
$LN30@erase@2:
	call	__invalid_parameter_noinfo
	mov	edi, DWORD PTR __Last_arg$[esp+12]
$LN29@erase@2:

; 1031 : 
; 1032 : 		if (_First != _Last)

	mov	eax, DWORD PTR [ebx]
	mov	ecx, DWORD PTR [esi]
	test	eax, eax
	je	SHORT $LN47@erase@2
	cmp	eax, ecx
	je	SHORT $LN46@erase@2
$LN47@erase@2:
	call	__invalid_parameter_noinfo
$LN46@erase@2:
	mov	edx, DWORD PTR [ebx+4]
	cmp	edx, edi
	je	SHORT $LN72@erase@2

; 1033 : 			{	// worth doing, copy down over hole
; 1034 : 
; 1035 :  #if _HAS_ITERATOR_DEBUGGING
; 1036 : 			if (_Last < _First || _First._Mycont != this
; 1037 : 				|| _First._Myptr < _Myfirst || _Mylast < _Last._Myptr)
; 1038 : 				_DEBUG_ERROR("vector erase iterator outside range");
; 1039 : 			pointer _Ptr = _STDEXT unchecked_copy(_VEC_ITER_BASE(_Last), _Mylast,
; 1040 : 				_VEC_ITER_BASE(_First));
; 1041 : 			_Orphan_range(_First._Myptr, _Mylast);
; 1042 : 
; 1043 :  #else /* _HAS_ITERATOR_DEBUGGING */
; 1044 : 			pointer _Ptr = _STDEXT unchecked_copy(_VEC_ITER_BASE(_Last), _Mylast,
; 1045 : 				_VEC_ITER_BASE(_First));

	mov	eax, DWORD PTR [esi+16]
	sub	eax, edi
	sar	eax, 2
	lea	ecx, DWORD PTR [eax*4]
	lea	ebp, DWORD PTR [ecx+edx]
	test	eax, eax
	jle	SHORT $LN69@erase@2
	push	ecx
	push	edi
	push	ecx
	push	edx
	call	_memmove_s
	add	esp, 16					; 00000010H
$LN69@erase@2:

; 1046 :  #endif /* _HAS_ITERATOR_DEBUGGING */
; 1047 : 
; 1048 : 			_Destroy(_Ptr, _Mylast);
; 1049 : 			_Mylast = _Ptr;

	mov	DWORD PTR [esi+16], ebp
$LN72@erase@2:

; 1050 : 			}
; 1051 : #if _HAS_ITERATOR_DEBUGGING
; 1052 :         return (iterator(_First._Myptr, this));
; 1053 : #else
; 1054 : 		return (_First);
; 1055 : #endif
; 1056 : 		}

	pop	edi
	pop	ebp
	mov	eax, ebx
	pop	ebx
	ret	20					; 00000014H
?erase@?$vector@PAUChatCommandInfo@@V?$allocator@PAUChatCommandInfo@@@std@@@std@@QAE?AV?$_Vector_iterator@PAUChatCommandInfo@@V?$allocator@PAUChatCommandInfo@@@std@@@2@V?$_Vector_const_iterator@PAUChatCommandInfo@@V?$allocator@PAUChatCommandInfo@@@std@@@2@0@Z ENDP ; std::vector<ChatCommandInfo *,std::allocator<ChatCommandInfo *> >::erase
; Function compile flags: /Ogtpy
_TEXT	ENDS
;	COMDAT ??0?$_Vector_const_iterator@PAUChatCommandInfo@@V?$allocator@PAUChatCommandInfo@@@std@@@std@@QAE@XZ
_TEXT	SEGMENT
??0?$_Vector_const_iterator@PAUChatCommandInfo@@V?$allocator@PAUChatCommandInfo@@@std@@@std@@QAE@XZ PROC ; std::_Vector_const_iterator<ChatCommandInfo *,std::allocator<ChatCommandInfo *> >::_Vector_const_iterator<ChatCommandInfo *,std::allocator<ChatCommandInfo *> >, COMDAT
; _this$ = eax

; 62   : 	_Vector_const_iterator()

	mov	DWORD PTR [eax], 0

; 63   : 		{	// construct with null pointer
; 64   : 		_Myptr = 0;

	mov	DWORD PTR [eax+4], 0

; 65   : 		}

	ret	0
??0?$_Vector_const_iterator@PAUChatCommandInfo@@V?$allocator@PAUChatCommandInfo@@@std@@@std@@QAE@XZ ENDP ; std::_Vector_const_iterator<ChatCommandInfo *,std::allocator<ChatCommandInfo *> >::_Vector_const_iterator<ChatCommandInfo *,std::allocator<ChatCommandInfo *> >
; Function compile flags: /Ogtpy
_TEXT	ENDS
;	COMDAT ?clear@?$vector@PAUChatCommandInfo@@V?$allocator@PAUChatCommandInfo@@@std@@@std@@QAEXXZ
_TEXT	SEGMENT
$T160437 = -12						; size = 8
?clear@?$vector@PAUChatCommandInfo@@V?$allocator@PAUChatCommandInfo@@@std@@@std@@QAEXXZ PROC ; std::vector<ChatCommandInfo *,std::allocator<ChatCommandInfo *> >::clear, COMDAT

; 1059 : 		{	// erase all

	sub	esp, 12					; 0000000cH
	push	ebx
	push	ebp
	push	esi
	mov	esi, DWORD PTR ?List@ChatCommandList@@2PAV?$vector@PAUChatCommandInfo@@V?$allocator@PAUChatCommandInfo@@@std@@@std@@A ; ChatCommandList::List

; 1060 : 		erase(begin(), end());

	mov	ebp, DWORD PTR [esi+16]
	push	edi
	cmp	DWORD PTR [esi+12], ebp
	jbe	SHORT $LN9@clear
	call	__invalid_parameter_noinfo
$LN9@clear:
	mov	edi, DWORD PTR [esi+12]
	mov	ebx, DWORD PTR [esi]
	cmp	edi, DWORD PTR [esi+16]
	jbe	SHORT $LN28@clear
	call	__invalid_parameter_noinfo
$LN28@clear:
	mov	eax, DWORD PTR [esi]
	push	ebp
	push	ebx
	push	edi
	push	eax
	lea	eax, DWORD PTR $T160437[esp+44]
	push	eax
	call	?erase@?$vector@PAUChatCommandInfo@@V?$allocator@PAUChatCommandInfo@@@std@@@std@@QAE?AV?$_Vector_iterator@PAUChatCommandInfo@@V?$allocator@PAUChatCommandInfo@@@std@@@2@V?$_Vector_const_iterator@PAUChatCommandInfo@@V?$allocator@PAUChatCommandInfo@@@std@@@2@0@Z ; std::vector<ChatCommandInfo *,std::allocator<ChatCommandInfo *> >::erase

; 1061 : 		}

	pop	edi
	pop	esi
	pop	ebp
	pop	ebx
	add	esp, 12					; 0000000cH
	ret	0
?clear@?$vector@PAUChatCommandInfo@@V?$allocator@PAUChatCommandInfo@@@std@@@std@@QAEXXZ ENDP ; std::vector<ChatCommandInfo *,std::allocator<ChatCommandInfo *> >::clear
; Function compile flags: /Ogtpy
_TEXT	ENDS
;	COMDAT ??1?$vector@PAUChatCommandInfo@@V?$allocator@PAUChatCommandInfo@@@std@@@std@@QAE@XZ
_TEXT	SEGMENT
??1?$vector@PAUChatCommandInfo@@V?$allocator@PAUChatCommandInfo@@@std@@@std@@QAE@XZ PROC ; std::vector<ChatCommandInfo *,std::allocator<ChatCommandInfo *> >::~vector<ChatCommandInfo *,std::allocator<ChatCommandInfo *> >, COMDAT
; _this$ = esi

; 559  : 		_Tidy();

	mov	eax, DWORD PTR [esi+12]
	test	eax, eax
	je	SHORT $LN8@vector
	push	eax
	call	DWORD PTR ?RenDelete@@3P6AXPAX@ZA	; RenDelete
	add	esp, 4
$LN8@vector:

; 560  : 		}

	mov	eax, DWORD PTR [esi]
	push	eax
	mov	DWORD PTR [esi+12], 0
	mov	DWORD PTR [esi+16], 0
	mov	DWORD PTR [esi+20], 0
	call	DWORD PTR ?RenDelete@@3P6AXPAX@ZA	; RenDelete
	pop	ecx
	ret	0
??1?$vector@PAUChatCommandInfo@@V?$allocator@PAUChatCommandInfo@@@std@@@std@@QAE@XZ ENDP ; std::vector<ChatCommandInfo *,std::allocator<ChatCommandInfo *> >::~vector<ChatCommandInfo *,std::allocator<ChatCommandInfo *> >
; Function compile flags: /Ogtpy
_TEXT	ENDS
;	COMDAT ??1ChatCommandInfo@@QAE@XZ
_TEXT	SEGMENT
??1ChatCommandInfo@@QAE@XZ PROC				; ChatCommandInfo::~ChatCommandInfo, COMDAT
; _this$ = esi
	cmp	DWORD PTR [esi+24], 16			; 00000010H
	jb	SHORT $LN21@ChatComman
	mov	eax, DWORD PTR [esi+4]
	push	eax
	call	DWORD PTR ?RenDelete@@3P6AXPAX@ZA	; RenDelete
	add	esp, 4
$LN21@ChatComman:
	xor	eax, eax
	mov	DWORD PTR [esi+24], 15			; 0000000fH
	mov	DWORD PTR [esi+20], eax
	mov	BYTE PTR [esi+4], al
	ret	0
??1ChatCommandInfo@@QAE@XZ ENDP				; ChatCommandInfo::~ChatCommandInfo
; Function compile flags: /Ogtpy
_TEXT	ENDS
;	COMDAT ??_G?$vector@PAUChatCommandInfo@@V?$allocator@PAUChatCommandInfo@@@std@@@std@@QAEPAXI@Z
_TEXT	SEGMENT
??_G?$vector@PAUChatCommandInfo@@V?$allocator@PAUChatCommandInfo@@@std@@@std@@QAEPAXI@Z PROC ; std::vector<ChatCommandInfo *,std::allocator<ChatCommandInfo *> >::`scalar deleting destructor', COMDAT
; _this$ = esi
	mov	eax, DWORD PTR [esi+12]
	test	eax, eax
	je	SHORT $LN11@scalar@16
	push	eax
	call	DWORD PTR ?RenDelete@@3P6AXPAX@ZA	; RenDelete
	add	esp, 4
$LN11@scalar@16:
	mov	eax, DWORD PTR [esi]
	push	eax
	mov	DWORD PTR [esi+12], 0
	mov	DWORD PTR [esi+16], 0
	mov	DWORD PTR [esi+20], 0
	call	DWORD PTR ?RenDelete@@3P6AXPAX@ZA	; RenDelete
	push	esi
	call	DWORD PTR ?RenDelete@@3P6AXPAX@ZA	; RenDelete
	add	esp, 8
	mov	eax, esi
	ret	0
??_G?$vector@PAUChatCommandInfo@@V?$allocator@PAUChatCommandInfo@@@std@@@std@@QAEPAXI@Z ENDP ; std::vector<ChatCommandInfo *,std::allocator<ChatCommandInfo *> >::`scalar deleting destructor'
; Function compile flags: /Ogtpy
_TEXT	ENDS
;	COMDAT ??_GChatCommandInfo@@QAEPAXI@Z
_TEXT	SEGMENT
??_GChatCommandInfo@@QAEPAXI@Z PROC			; ChatCommandInfo::`scalar deleting destructor', COMDAT
; _this$ = esi
	cmp	DWORD PTR [esi+24], 16			; 00000010H
	jb	SHORT $LN24@scalar@17
	mov	eax, DWORD PTR [esi+4]
	push	eax
	call	DWORD PTR ?RenDelete@@3P6AXPAX@ZA	; RenDelete
	add	esp, 4
$LN24@scalar@17:
	xor	eax, eax
	mov	DWORD PTR [esi+24], 15			; 0000000fH
	mov	DWORD PTR [esi+20], eax
	push	esi
	mov	BYTE PTR [esi+4], al
	call	DWORD PTR ?RenDelete@@3P6AXPAX@ZA	; RenDelete
	add	esp, 4
	mov	eax, esi
	ret	0
??_GChatCommandInfo@@QAEPAXI@Z ENDP			; ChatCommandInfo::`scalar deleting destructor'
PUBLIC	_SSGM_Plugin_Unload
; Function compile flags: /Ogtpy
; File c:\users\admin\desktop\projects\seye_server\dllmain.cpp
;	COMDAT _SSGM_Plugin_Unload
_TEXT	SEGMENT
$T165618 = -8						; size = 8
$T165615 = -8						; size = 8
_SSGM_Plugin_Unload PROC				; COMDAT

; 262  : SCRIPTSAPI void SSGM_Plugin_Unload() {

	push	ebp
	mov	ebp, esp
	and	esp, -8					; fffffff8H
	sub	esp, 8
	push	ebx
	push	ebp
	push	esi
	push	edi

; 263  : 	if (ChatCommandList::List) {

	mov	edi, DWORD PTR ?List@ChatCommandList@@2PAV?$vector@PAUChatCommandInfo@@V?$allocator@PAUChatCommandInfo@@@std@@@std@@A ; ChatCommandList::List
	test	edi, edi
	je	$LN10@SSGM_Plugi

; 264  : 		std::vector<ChatCommandInfo*>::const_iterator it;
; 265  : 		for (it = ChatCommandList::List->begin(); it != ChatCommandList::List->end(); ++it) {

	mov	esi, DWORD PTR [edi+12]
	cmp	esi, DWORD PTR [edi+16]
	jbe	SHORT $LN26@SSGM_Plugi
	call	__invalid_parameter_noinfo
$LN26@SSGM_Plugi:
	mov	ebx, DWORD PTR [edi]
	mov	ebp, esi
	npad	4
$LL47@SSGM_Plugi:
	mov	esi, DWORD PTR ?List@ChatCommandList@@2PAV?$vector@PAUChatCommandInfo@@V?$allocator@PAUChatCommandInfo@@@std@@@std@@A ; ChatCommandList::List
	mov	edi, DWORD PTR [esi+16]
	cmp	DWORD PTR [esi+12], edi
	jbe	SHORT $LN63@SSGM_Plugi
	call	__invalid_parameter_noinfo
$LN63@SSGM_Plugi:
	mov	esi, DWORD PTR [esi]
	test	ebx, ebx
	je	SHORT $LN81@SSGM_Plugi
	cmp	ebx, esi
	je	SHORT $LN80@SSGM_Plugi
$LN81@SSGM_Plugi:
	call	__invalid_parameter_noinfo
$LN80@SSGM_Plugi:
	cmp	ebp, edi
	je	$LN2@SSGM_Plugi

; 266  : 			if (*it) {

	test	ebx, ebx
	jne	$LN250@SSGM_Plugi
	call	__invalid_parameter_noinfo
	xor	eax, eax
$LN104@SSGM_Plugi:
	cmp	ebp, DWORD PTR [eax+16]
	jb	SHORT $LN91@SSGM_Plugi
	call	__invalid_parameter_noinfo
$LN91@SSGM_Plugi:
	cmp	DWORD PTR [ebp], 0
	je	SHORT $LN3@SSGM_Plugi

; 267  : 				delete (*it)->Ptr;

	test	ebx, ebx
	jne	$LN249@SSGM_Plugi
	call	__invalid_parameter_noinfo
	xor	eax, eax
$LN122@SSGM_Plugi:
	cmp	ebp, DWORD PTR [eax+16]
	jb	SHORT $LN109@SSGM_Plugi
	call	__invalid_parameter_noinfo
$LN109@SSGM_Plugi:
	mov	eax, DWORD PTR [ebp]
	mov	ecx, DWORD PTR [eax+28]
	push	ecx
	call	DWORD PTR ?RenDelete@@3P6AXPAX@ZA	; RenDelete
	add	esp, 4

; 268  : 				delete *it;

	test	ebx, ebx
	jne	SHORT $LN248@SSGM_Plugi
	call	__invalid_parameter_noinfo
	xor	eax, eax
$LN142@SSGM_Plugi:
	cmp	ebp, DWORD PTR [eax+16]
	jb	SHORT $LN129@SSGM_Plugi
	call	__invalid_parameter_noinfo
$LN129@SSGM_Plugi:
	mov	esi, DWORD PTR [ebp]
	test	esi, esi
	je	SHORT $LN3@SSGM_Plugi
	cmp	DWORD PTR [esi+24], 16			; 00000010H
	jb	SHORT $LN168@SSGM_Plugi
	mov	edx, DWORD PTR [esi+4]
	push	edx
	call	DWORD PTR ?RenDelete@@3P6AXPAX@ZA	; RenDelete
	add	esp, 4
$LN168@SSGM_Plugi:
	mov	DWORD PTR [esi+24], 15			; 0000000fH
	mov	DWORD PTR [esi+20], 0
	push	esi
	mov	BYTE PTR [esi+4], 0
	call	DWORD PTR ?RenDelete@@3P6AXPAX@ZA	; RenDelete
	add	esp, 4
$LN3@SSGM_Plugi:

; 264  : 		std::vector<ChatCommandInfo*>::const_iterator it;
; 265  : 		for (it = ChatCommandList::List->begin(); it != ChatCommandList::List->end(); ++it) {

	test	ebx, ebx
	jne	SHORT $LN247@SSGM_Plugi
	call	__invalid_parameter_noinfo
	xor	eax, eax
$LN54@SSGM_Plugi:
	cmp	ebp, DWORD PTR [eax+16]
	jb	SHORT $LN41@SSGM_Plugi
	call	__invalid_parameter_noinfo
$LN41@SSGM_Plugi:
	add	ebp, 4
	jmp	$LL47@SSGM_Plugi
$LN250@SSGM_Plugi:

; 266  : 			if (*it) {

	mov	eax, DWORD PTR [ebx]
	jmp	$LN104@SSGM_Plugi
$LN249@SSGM_Plugi:

; 267  : 				delete (*it)->Ptr;

	mov	eax, DWORD PTR [ebx]
	jmp	$LN122@SSGM_Plugi
$LN248@SSGM_Plugi:

; 268  : 				delete *it;

	mov	eax, DWORD PTR [ebx]
	jmp	SHORT $LN142@SSGM_Plugi
$LN247@SSGM_Plugi:

; 264  : 		std::vector<ChatCommandInfo*>::const_iterator it;
; 265  : 		for (it = ChatCommandList::List->begin(); it != ChatCommandList::List->end(); ++it) {

	mov	eax, DWORD PTR [ebx]
	jmp	SHORT $LN54@SSGM_Plugi
$LN2@SSGM_Plugi:

; 269  : 			}
; 270  : 		}
; 271  : 		ChatCommandList::List->clear();

	mov	esi, DWORD PTR ?List@ChatCommandList@@2PAV?$vector@PAUChatCommandInfo@@V?$allocator@PAUChatCommandInfo@@@std@@@std@@A ; ChatCommandList::List
	mov	ebp, DWORD PTR [esi+16]
	lea	ebx, DWORD PTR [esi+16]
	cmp	DWORD PTR [esi+12], ebp
	lea	edi, DWORD PTR [esi+12]
	jbe	SHORT $LN188@SSGM_Plugi
	call	__invalid_parameter_noinfo
$LN188@SSGM_Plugi:
	mov	edi, DWORD PTR [edi]
	mov	eax, DWORD PTR [esi]
	mov	DWORD PTR $T165615[esp+24], eax
	cmp	edi, DWORD PTR [ebx]
	jbe	SHORT $LN207@SSGM_Plugi
	call	__invalid_parameter_noinfo
$LN207@SSGM_Plugi:
	mov	ecx, DWORD PTR $T165615[esp+24]
	mov	eax, DWORD PTR [esi]
	push	ebp
	push	ecx
	push	edi
	push	eax
	lea	edx, DWORD PTR $T165618[esp+40]
	push	edx
	call	?erase@?$vector@PAUChatCommandInfo@@V?$allocator@PAUChatCommandInfo@@@std@@@std@@QAE?AV?$_Vector_iterator@PAUChatCommandInfo@@V?$allocator@PAUChatCommandInfo@@@std@@@2@V?$_Vector_const_iterator@PAUChatCommandInfo@@V?$allocator@PAUChatCommandInfo@@@std@@@2@0@Z ; std::vector<ChatCommandInfo *,std::allocator<ChatCommandInfo *> >::erase

; 272  : 		delete ChatCommandList::List;

	mov	eax, DWORD PTR ?List@ChatCommandList@@2PAV?$vector@PAUChatCommandInfo@@V?$allocator@PAUChatCommandInfo@@@std@@@std@@A ; ChatCommandList::List
	xor	ebx, ebx
	mov	esi, eax
	cmp	eax, ebx
	je	SHORT $LN10@SSGM_Plugi
	lea	edi, DWORD PTR [eax+12]
	mov	eax, DWORD PTR [edi]
	cmp	eax, ebx
	je	SHORT $LN230@SSGM_Plugi
	push	eax
	call	DWORD PTR ?RenDelete@@3P6AXPAX@ZA	; RenDelete
	add	esp, 4
$LN230@SSGM_Plugi:
	mov	eax, DWORD PTR [esi]
	push	eax
	mov	DWORD PTR [edi], ebx
	mov	DWORD PTR [esi+16], ebx
	mov	DWORD PTR [esi+20], ebx
	call	DWORD PTR ?RenDelete@@3P6AXPAX@ZA	; RenDelete
	add	esp, 4
	push	esi
	call	DWORD PTR ?RenDelete@@3P6AXPAX@ZA	; RenDelete
	add	esp, 4
$LN10@SSGM_Plugi:

; 273  : 	}
; 274  : 	Plugin_Unload();

	call	?Unload@SEye_Server@@SAXXZ		; SEye_Server::Unload

; 275  : }

	pop	edi
	pop	esi
	pop	ebp
	pop	ebx
	mov	esp, ebp
	pop	ebp
	ret	0
_SSGM_Plugin_Unload ENDP
PUBLIC	_Set_Script_Commands
; Function compile flags: /Ogtpy
;	COMDAT _Set_Script_Commands
_TEXT	SEGMENT
_ScriptCommands$ = 8					; size = 4
_Set_Script_Commands PROC				; COMDAT

; 89   : 	Commands = *ScriptCommands;

	mov	eax, DWORD PTR _ScriptCommands$[esp-4]
	mov	eax, DWORD PTR [eax]

; 90   : 	if ((Commands->version1 != 816) || (Commands->version2 != 174)) //if these dont match it means the ScriptCommands dont match with what is expected and the DLL cant work with whatever client is trying to use it

	cmp	DWORD PTR [eax], 816			; 00000330H
	mov	DWORD PTR ?Commands@@3PAUScriptCommands@@A, eax ; Commands
	jne	$LN1@Set_Script
	cmp	DWORD PTR [eax+4], 174			; 000000aeH
	jne	$LN1@Set_Script

; 93   : 	}
; 94   : 	Commands->Enable_Stealth = (_Enable_Stealth)Address(bhs,"New_Enable_Stealth");

	mov	ecx, DWORD PTR ?bhs@@3PAUHINSTANCE__@@A	; bhs
	push	ebx
	push	esi
	mov	esi, DWORD PTR __imp__GetProcAddress@8
	push	edi
	push	OFFSET ??_C@_0BD@CEDCHKBB@New_Enable_Stealth?$AA@
	push	ecx
	call	esi
	mov	edi, DWORD PTR __imp__MessageBoxA@16
	mov	ebx, eax
	test	ebx, ebx
	jne	SHORT $LN5@Set_Script
	push	48					; 00000030H
	push	OFFSET ??_C@_0BD@CEDCHKBB@New_Enable_Stealth?$AA@
	push	OFFSET ??_C@_0CM@MKMOBENL@Error?5getting?5function?5address?5f@
	push	0
	call	edi
$LN5@Set_Script:

; 95   : 	Commands->Create_Explosion = (_Create_Explosion)Address(bhs,"New_Create_Explosion");

	mov	eax, DWORD PTR ?bhs@@3PAUHINSTANCE__@@A	; bhs
	mov	edx, DWORD PTR ?Commands@@3PAUScriptCommands@@A ; Commands
	push	OFFSET ??_C@_0BF@LANEKPIK@New_Create_Explosion?$AA@
	push	eax
	mov	DWORD PTR [edx+708], ebx
	call	esi
	mov	ebx, eax
	test	ebx, ebx
	jne	SHORT $LN8@Set_Script
	push	48					; 00000030H
	push	OFFSET ??_C@_0BF@LANEKPIK@New_Create_Explosion?$AA@
	push	OFFSET ??_C@_0CM@MKMOBENL@Error?5getting?5function?5address?5f@
	push	eax
	call	edi
$LN8@Set_Script:

; 96   : 	Commands->Create_Explosion_At_Bone = (_Create_Explosion_At_Bone)Address(bhs,"New_Create_Explosion_At_Bone");

	mov	edx, DWORD PTR ?bhs@@3PAUHINSTANCE__@@A	; bhs
	mov	ecx, DWORD PTR ?Commands@@3PAUScriptCommands@@A ; Commands
	push	OFFSET ??_C@_0BN@FMOGPLMC@New_Create_Explosion_At_Bone?$AA@
	push	edx
	mov	DWORD PTR [ecx+416], ebx
	call	esi
	mov	ebx, eax
	test	ebx, ebx
	jne	SHORT $LN11@Set_Script
	push	48					; 00000030H
	push	OFFSET ??_C@_0BN@FMOGPLMC@New_Create_Explosion_At_Bone?$AA@
	push	OFFSET ??_C@_0CM@MKMOBENL@Error?5getting?5function?5address?5f@
	push	eax
	call	edi
$LN11@Set_Script:

; 97   : 	Commands->Set_Fog_Enable = (_Set_Fog_Enable)Address(bhs,"New_Set_Fog_Enable");

	mov	ecx, DWORD PTR ?bhs@@3PAUHINSTANCE__@@A	; bhs
	mov	eax, DWORD PTR ?Commands@@3PAUScriptCommands@@A ; Commands
	push	OFFSET ??_C@_0BD@LMPMLNOO@New_Set_Fog_Enable?$AA@
	push	ecx
	mov	DWORD PTR [eax+420], ebx
	call	esi
	mov	ebx, eax
	test	ebx, ebx
	jne	SHORT $LN14@Set_Script
	push	48					; 00000030H
	push	OFFSET ??_C@_0BD@LMPMLNOO@New_Set_Fog_Enable?$AA@
	push	OFFSET ??_C@_0CM@MKMOBENL@Error?5getting?5function?5address?5f@
	push	eax
	call	edi
$LN14@Set_Script:

; 98   : 	Commands->Set_Fog_Range = (_Set_Fog_Range)Address(bhs,"New_Set_Fog_Range");

	mov	eax, DWORD PTR ?bhs@@3PAUHINSTANCE__@@A	; bhs
	mov	edx, DWORD PTR ?Commands@@3PAUScriptCommands@@A ; Commands
	push	OFFSET ??_C@_0BC@LEAPKNGA@New_Set_Fog_Range?$AA@
	push	eax
	mov	DWORD PTR [edx+700], ebx
	call	esi
	mov	ebx, eax
	test	ebx, ebx
	jne	SHORT $LN17@Set_Script
	push	48					; 00000030H
	push	OFFSET ??_C@_0BC@LEAPKNGA@New_Set_Fog_Range?$AA@
	push	OFFSET ??_C@_0CM@MKMOBENL@Error?5getting?5function?5address?5f@
	push	eax
	call	edi
$LN17@Set_Script:

; 99   : 	Commands->Set_War_Blitz = (_Set_War_Blitz)Address(bhs,"New_Set_War_Blitz");

	mov	edx, DWORD PTR ?bhs@@3PAUHINSTANCE__@@A	; bhs
	mov	ecx, DWORD PTR ?Commands@@3PAUScriptCommands@@A ; Commands
	push	OFFSET ??_C@_0BC@DFFBEOEP@New_Set_War_Blitz?$AA@
	push	edx
	mov	DWORD PTR [ecx+704], ebx
	call	esi
	mov	ebx, eax
	test	ebx, ebx
	jne	SHORT $LN20@Set_Script
	push	48					; 00000030H
	push	OFFSET ??_C@_0BC@DFFBEOEP@New_Set_War_Blitz?$AA@
	push	OFFSET ??_C@_0CM@MKMOBENL@Error?5getting?5function?5address?5f@
	push	eax
	call	edi
$LN20@Set_Script:

; 100  : 	Commands->Fade_Background_Music = (_Fade_Background_Music)Address(bhs,"New_Fade_Background_Music");

	mov	ecx, DWORD PTR ?bhs@@3PAUHINSTANCE__@@A	; bhs
	mov	eax, DWORD PTR ?Commands@@3PAUScriptCommands@@A ; Commands
	push	OFFSET ??_C@_0BK@FMEFIGMJ@New_Fade_Background_Music?$AA@
	push	ecx
	mov	DWORD PTR [eax+680], ebx
	call	esi
	mov	ebx, eax
	test	ebx, ebx
	jne	SHORT $LN23@Set_Script
	push	48					; 00000030H
	push	OFFSET ??_C@_0BK@FMEFIGMJ@New_Fade_Background_Music?$AA@
	push	OFFSET ??_C@_0CM@MKMOBENL@Error?5getting?5function?5address?5f@
	push	eax
	call	edi
$LN23@Set_Script:

; 101  : 	Commands->Set_Background_Music = (_Set_Background_Music)Address(bhs,"New_Set_Background_Music");

	mov	eax, DWORD PTR ?bhs@@3PAUHINSTANCE__@@A	; bhs
	mov	edx, DWORD PTR ?Commands@@3PAUScriptCommands@@A ; Commands
	push	OFFSET ??_C@_0BJ@CHDMIIDC@New_Set_Background_Music?$AA@
	push	eax
	mov	DWORD PTR [edx+212], ebx
	call	esi
	mov	ebx, eax
	test	ebx, ebx
	jne	SHORT $LN26@Set_Script
	push	48					; 00000030H
	push	OFFSET ??_C@_0BJ@CHDMIIDC@New_Set_Background_Music?$AA@
	push	OFFSET ??_C@_0CM@MKMOBENL@Error?5getting?5function?5address?5f@
	push	eax
	call	edi
$LN26@Set_Script:

; 102  : 	Commands->Stop_Background_Music = (_Stop_Background_Music)Address(bhs,"New_Stop_Background_Music");

	mov	edx, DWORD PTR ?bhs@@3PAUHINSTANCE__@@A	; bhs
	mov	ecx, DWORD PTR ?Commands@@3PAUScriptCommands@@A ; Commands
	push	OFFSET ??_C@_0BK@GHEGIDEJ@New_Stop_Background_Music?$AA@
	push	edx
	mov	DWORD PTR [ecx+208], ebx
	call	esi
	mov	ebx, eax
	test	ebx, ebx
	jne	SHORT $LN29@Set_Script
	push	48					; 00000030H
	push	OFFSET ??_C@_0BK@GHEGIDEJ@New_Stop_Background_Music?$AA@
	push	OFFSET ??_C@_0CM@MKMOBENL@Error?5getting?5function?5address?5f@
	push	eax
	call	edi
$LN29@Set_Script:

; 103  : 	Commands->Create_Sound = (_Create_Sound)Address(bhs,"New_Create_Sound");

	mov	ecx, DWORD PTR ?bhs@@3PAUHINSTANCE__@@A	; bhs
	mov	eax, DWORD PTR ?Commands@@3PAUScriptCommands@@A ; Commands
	push	OFFSET ??_C@_0BB@DMKAPJOM@New_Create_Sound?$AA@
	push	ecx
	mov	DWORD PTR [eax+216], ebx
	call	esi
	mov	ebx, eax
	test	ebx, ebx
	jne	SHORT $LN32@Set_Script
	push	48					; 00000030H
	push	OFFSET ??_C@_0BB@DMKAPJOM@New_Create_Sound?$AA@
	push	OFFSET ??_C@_0CM@MKMOBENL@Error?5getting?5function?5address?5f@
	push	eax
	call	edi
$LN32@Set_Script:

; 104  : 	Commands->Create_2D_Sound = (_Create_2D_Sound)Address(bhs,"New_Create_2D_Sound");

	mov	eax, DWORD PTR ?bhs@@3PAUHINSTANCE__@@A	; bhs
	mov	edx, DWORD PTR ?Commands@@3PAUScriptCommands@@A ; Commands
	push	OFFSET ??_C@_0BE@OHJEGAJE@New_Create_2D_Sound?$AA@
	push	eax
	mov	DWORD PTR [edx+172], ebx
	call	esi
	mov	ebx, eax
	test	ebx, ebx
	jne	SHORT $LN35@Set_Script
	push	48					; 00000030H
	push	OFFSET ??_C@_0BE@OHJEGAJE@New_Create_2D_Sound?$AA@
	push	OFFSET ??_C@_0CM@MKMOBENL@Error?5getting?5function?5address?5f@
	push	eax
	call	edi
$LN35@Set_Script:

; 105  : 	Commands->Create_2D_WAV_Sound = (_Create_2D_WAV_Sound)Address(bhs,"New_Create_2D_WAV_Sound");

	mov	edx, DWORD PTR ?bhs@@3PAUHINSTANCE__@@A	; bhs
	mov	ecx, DWORD PTR ?Commands@@3PAUScriptCommands@@A ; Commands
	push	OFFSET ??_C@_0BI@HGKHHIKA@New_Create_2D_WAV_Sound?$AA@
	push	edx
	mov	DWORD PTR [ecx+176], ebx
	call	esi
	mov	ebx, eax
	test	ebx, ebx
	jne	SHORT $LN38@Set_Script
	push	48					; 00000030H
	push	OFFSET ??_C@_0BI@HGKHHIKA@New_Create_2D_WAV_Sound?$AA@
	push	OFFSET ??_C@_0CM@MKMOBENL@Error?5getting?5function?5address?5f@
	push	eax
	call	edi
$LN38@Set_Script:

; 106  : 	Commands->Create_3D_WAV_Sound_At_Bone = (_Create_3D_WAV_Sound_At_Bone)Address(bhs,"New_Create_3D_WAV_Sound_At_Bone");

	mov	ecx, DWORD PTR ?bhs@@3PAUHINSTANCE__@@A	; bhs
	mov	eax, DWORD PTR ?Commands@@3PAUScriptCommands@@A ; Commands
	push	OFFSET ??_C@_0CA@COANFJBN@New_Create_3D_WAV_Sound_At_Bone?$AA@
	push	ecx
	mov	DWORD PTR [eax+180], ebx
	call	esi
	mov	ebx, eax
	test	ebx, ebx
	jne	SHORT $LN41@Set_Script
	push	48					; 00000030H
	push	OFFSET ??_C@_0CA@COANFJBN@New_Create_3D_WAV_Sound_At_Bone?$AA@
	push	OFFSET ??_C@_0CM@MKMOBENL@Error?5getting?5function?5address?5f@
	push	eax
	call	edi
$LN41@Set_Script:

; 107  : 	Commands->Create_3D_Sound_At_Bone = (_Create_3D_Sound_At_Bone)Address(bhs,"New_Create_3D_Sound_At_Bone");

	mov	eax, DWORD PTR ?bhs@@3PAUHINSTANCE__@@A	; bhs
	mov	edx, DWORD PTR ?Commands@@3PAUScriptCommands@@A ; Commands
	push	OFFSET ??_C@_0BM@NEPOFEN@New_Create_3D_Sound_At_Bone?$AA@
	push	eax
	mov	DWORD PTR [edx+184], ebx
	call	esi
	mov	ebx, eax
	test	ebx, ebx
	jne	SHORT $LN44@Set_Script
	push	48					; 00000030H
	push	OFFSET ??_C@_0BM@NEPOFEN@New_Create_3D_Sound_At_Bone?$AA@
	push	OFFSET ??_C@_0CM@MKMOBENL@Error?5getting?5function?5address?5f@
	push	eax
	call	edi
$LN44@Set_Script:

; 108  : 	Commands->Play_Building_Announcement = (_Play_Building_Announcement)Address(bhs,"New_Play_Building_Announcement");

	mov	edx, DWORD PTR ?bhs@@3PAUHINSTANCE__@@A	; bhs
	mov	ecx, DWORD PTR ?Commands@@3PAUScriptCommands@@A ; Commands
	push	OFFSET ??_C@_0BP@JPAENPMP@New_Play_Building_Announcement?$AA@
	push	edx
	mov	DWORD PTR [ecx+188], ebx
	call	esi
	mov	ebx, eax
	test	ebx, ebx
	jne	SHORT $LN47@Set_Script
	push	48					; 00000030H
	push	OFFSET ??_C@_0BP@JPAENPMP@New_Play_Building_Announcement?$AA@
	push	OFFSET ??_C@_0CM@MKMOBENL@Error?5getting?5function?5address?5f@
	push	eax
	call	edi
$LN47@Set_Script:

; 109  : 	Commands->Clear_Weapons = (_Clear_Weapons)Address(bhs,"New_Clear_Weapons");

	mov	ecx, DWORD PTR ?bhs@@3PAUHINSTANCE__@@A	; bhs
	mov	eax, DWORD PTR ?Commands@@3PAUScriptCommands@@A ; Commands
	push	OFFSET ??_C@_0BC@KOFDDJA@New_Clear_Weapons?$AA@
	push	ecx
	mov	DWORD PTR [eax+656], ebx
	call	esi
	mov	ebx, eax
	test	ebx, ebx
	jne	SHORT $LN50@Set_Script
	push	48					; 00000030H
	push	OFFSET ??_C@_0BC@KOFDDJA@New_Clear_Weapons?$AA@
	push	OFFSET ??_C@_0CM@MKMOBENL@Error?5getting?5function?5address?5f@
	push	eax
	call	edi
$LN50@Set_Script:

; 110  : 	Commands->Enable_Vehicle_Transitions = (_Enable_Vehicle_Transitions)Address(bhs,"New_Enable_Vehicle_Transitions");

	mov	eax, DWORD PTR ?bhs@@3PAUHINSTANCE__@@A	; bhs
	mov	edx, DWORD PTR ?Commands@@3PAUScriptCommands@@A ; Commands
	push	OFFSET ??_C@_0BP@HAHCDGEG@New_Enable_Vehicle_Transitions?$AA@
	push	eax
	mov	DWORD PTR [edx+796], ebx
	call	esi
	mov	ebx, eax
	test	ebx, ebx
	jne	SHORT $LN53@Set_Script
	push	48					; 00000030H
	push	OFFSET ??_C@_0BP@HAHCDGEG@New_Enable_Vehicle_Transitions?$AA@
	push	OFFSET ??_C@_0CM@MKMOBENL@Error?5getting?5function?5address?5f@
	push	eax
	call	edi
$LN53@Set_Script:

; 111  : 	Commands->Set_Player_Type = (_Set_Player_Type)Address(bhs,"New_Set_Player_Type");

	mov	edx, DWORD PTR ?bhs@@3PAUHINSTANCE__@@A	; bhs
	mov	ecx, DWORD PTR ?Commands@@3PAUScriptCommands@@A ; Commands
	push	OFFSET ??_C@_0BE@ONIFHAHC@New_Set_Player_Type?$AA@
	push	edx
	mov	DWORD PTR [ecx+728], ebx
	call	esi
	mov	ebx, eax
	test	ebx, ebx
	jne	SHORT $LN56@Set_Script
	push	48					; 00000030H
	push	OFFSET ??_C@_0BE@ONIFHAHC@New_Set_Player_Type?$AA@
	push	OFFSET ??_C@_0CM@MKMOBENL@Error?5getting?5function?5address?5f@
	push	eax
	call	edi
$LN56@Set_Script:

; 112  : 	Commands->Set_Screen_Fade_Color = (_Set_Screen_Fade_Color)Address(bhs,"New_Set_Screen_Fade_Color");

	mov	ecx, DWORD PTR ?bhs@@3PAUHINSTANCE__@@A	; bhs
	mov	eax, DWORD PTR ?Commands@@3PAUScriptCommands@@A ; Commands
	push	OFFSET ??_C@_0BK@FDMKHFBH@New_Set_Screen_Fade_Color?$AA@
	push	ecx
	mov	DWORD PTR [eax+252], ebx
	call	esi
	mov	ebx, eax
	test	ebx, ebx
	jne	SHORT $LN59@Set_Script
	push	48					; 00000030H
	push	OFFSET ??_C@_0BK@FDMKHFBH@New_Set_Screen_Fade_Color?$AA@
	push	OFFSET ??_C@_0CM@MKMOBENL@Error?5getting?5function?5address?5f@
	push	eax
	call	edi
$LN59@Set_Script:

; 113  : 	Commands->Set_Screen_Fade_Opacity = (_Set_Screen_Fade_Opacity)Address(bhs,"New_Set_Screen_Fade_Opacity");

	mov	eax, DWORD PTR ?bhs@@3PAUHINSTANCE__@@A	; bhs
	mov	edx, DWORD PTR ?Commands@@3PAUScriptCommands@@A ; Commands
	push	OFFSET ??_C@_0BM@LAKGIHPF@New_Set_Screen_Fade_Opacity?$AA@
	push	eax
	mov	DWORD PTR [edx+808], ebx
	call	esi
	mov	ebx, eax
	test	ebx, ebx
	jne	SHORT $LN62@Set_Script
	push	48					; 00000030H
	push	OFFSET ??_C@_0BM@LAKGIHPF@New_Set_Screen_Fade_Opacity?$AA@
	push	OFFSET ??_C@_0CM@MKMOBENL@Error?5getting?5function?5address?5f@
	push	eax
	call	edi
$LN62@Set_Script:

; 114  : 	Commands->Set_Display_Color = (_Set_Display_Color)Address(bhs,"New_Set_Display_Color");

	mov	edx, DWORD PTR ?bhs@@3PAUHINSTANCE__@@A	; bhs
	mov	ecx, DWORD PTR ?Commands@@3PAUScriptCommands@@A ; Commands
	push	OFFSET ??_C@_0BG@IEMOFMGB@New_Set_Display_Color?$AA@
	push	edx
	mov	DWORD PTR [ecx+812], ebx
	call	esi
	mov	ebx, eax
	test	ebx, ebx
	jne	SHORT $LN65@Set_Script
	push	48					; 00000030H
	push	OFFSET ??_C@_0BG@IEMOFMGB@New_Set_Display_Color?$AA@
	push	OFFSET ??_C@_0CM@MKMOBENL@Error?5getting?5function?5address?5f@
	push	eax
	call	edi
$LN65@Set_Script:

; 115  : 	Commands->Display_Text = (_Display_Text)Address(bhs,"New_Display_Text");

	mov	ecx, DWORD PTR ?bhs@@3PAUHINSTANCE__@@A	; bhs
	mov	eax, DWORD PTR ?Commands@@3PAUScriptCommands@@A ; Commands
	push	OFFSET ??_C@_0BB@COAKGDMN@New_Display_Text?$AA@
	push	ecx
	mov	DWORD PTR [eax+304], ebx
	call	esi
	mov	ebx, eax
	test	ebx, ebx
	jne	SHORT $LN68@Set_Script
	push	48					; 00000030H
	push	OFFSET ??_C@_0BB@COAKGDMN@New_Display_Text?$AA@
	push	OFFSET ??_C@_0CM@MKMOBENL@Error?5getting?5function?5address?5f@
	push	eax
	call	edi
$LN68@Set_Script:

; 116  : 	Commands->Display_Float = (_Display_Float)Address(bhs,"New_Display_Float");

	mov	eax, DWORD PTR ?bhs@@3PAUHINSTANCE__@@A	; bhs
	mov	edx, DWORD PTR ?Commands@@3PAUScriptCommands@@A ; Commands
	push	OFFSET ??_C@_0BC@DKIFMHMA@New_Display_Float?$AA@
	push	eax
	mov	DWORD PTR [edx+308], ebx
	call	esi
	mov	ebx, eax
	test	ebx, ebx
	jne	SHORT $LN71@Set_Script
	push	48					; 00000030H
	push	OFFSET ??_C@_0BC@DKIFMHMA@New_Display_Float?$AA@
	push	OFFSET ??_C@_0CM@MKMOBENL@Error?5getting?5function?5address?5f@
	push	eax
	call	edi
$LN71@Set_Script:

; 117  : 	Commands->Display_Int = (_Display_Int)Address(bhs,"New_Display_Int");

	mov	edx, DWORD PTR ?bhs@@3PAUHINSTANCE__@@A	; bhs
	mov	ecx, DWORD PTR ?Commands@@3PAUScriptCommands@@A ; Commands
	push	OFFSET ??_C@_0BA@OLJFNGPH@New_Display_Int?$AA@
	push	edx
	mov	DWORD PTR [ecx+312], ebx
	call	esi
	mov	ebx, eax
	test	ebx, ebx
	jne	SHORT $LN74@Set_Script
	push	48					; 00000030H
	push	OFFSET ??_C@_0BA@OLJFNGPH@New_Display_Int?$AA@
	push	OFFSET ??_C@_0CM@MKMOBENL@Error?5getting?5function?5address?5f@
	push	eax
	call	edi
$LN74@Set_Script:

; 118  : 	Commands->Select_Weapon = (_Select_Weapon)Address(bhs,"New_Select_Weapon");

	mov	ecx, DWORD PTR ?bhs@@3PAUHINSTANCE__@@A	; bhs
	mov	eax, DWORD PTR ?Commands@@3PAUScriptCommands@@A ; Commands
	push	OFFSET ??_C@_0BC@NCKGKIKH@New_Select_Weapon?$AA@
	push	ecx
	mov	DWORD PTR [eax+316], ebx
	call	esi
	mov	ebx, eax
	test	ebx, ebx
	jne	SHORT $LN77@Set_Script
	push	48					; 00000030H
	push	OFFSET ??_C@_0BC@NCKGKIKH@New_Select_Weapon?$AA@
	push	OFFSET ??_C@_0CM@MKMOBENL@Error?5getting?5function?5address?5f@
	push	eax
	call	edi
$LN77@Set_Script:

; 119  : 	Commands->Shake_Camera = (_Shake_Camera)Address(bhs,"New_Shake_Camera");

	mov	eax, DWORD PTR ?bhs@@3PAUHINSTANCE__@@A	; bhs
	mov	edx, DWORD PTR ?Commands@@3PAUScriptCommands@@A ; Commands
	push	OFFSET ??_C@_0BB@MNJLFKNF@New_Shake_Camera?$AA@
	push	eax
	mov	DWORD PTR [edx+136], ebx
	call	esi
	mov	ebx, eax
	test	ebx, ebx
	jne	SHORT $LN80@Set_Script
	push	48					; 00000030H
	push	OFFSET ??_C@_0BB@MNJLFKNF@New_Shake_Camera?$AA@
	push	OFFSET ??_C@_0CM@MKMOBENL@Error?5getting?5function?5address?5f@
	push	eax
	call	edi
$LN80@Set_Script:

; 120  : 	Commands->Set_Model = (_Set_Model)Address(bhs,"New_Set_Model");

	mov	edx, DWORD PTR ?bhs@@3PAUHINSTANCE__@@A	; bhs
	mov	ecx, DWORD PTR ?Commands@@3PAUScriptCommands@@A ; Commands
	push	OFFSET ??_C@_0O@COMKEHBD@New_Set_Model?$AA@
	push	edx
	mov	DWORD PTR [ecx+540], ebx
	call	esi
	mov	ebx, eax
	test	ebx, ebx
	jne	SHORT $LN83@Set_Script
	push	48					; 00000030H
	push	OFFSET ??_C@_0O@COMKEHBD@New_Set_Model?$AA@
	push	OFFSET ??_C@_0CM@MKMOBENL@Error?5getting?5function?5address?5f@
	push	eax
	call	edi
$LN83@Set_Script:

; 121  : 	Enable_Stealth_Player = (_Enable_Stealth_Player)Address(bhs,"New_Enable_Stealth_Player");

	mov	ecx, DWORD PTR ?bhs@@3PAUHINSTANCE__@@A	; bhs
	mov	eax, DWORD PTR ?Commands@@3PAUScriptCommands@@A ; Commands
	push	OFFSET ??_C@_0BK@KODEAOPK@New_Enable_Stealth_Player?$AA@
	push	ecx
	mov	DWORD PTR [eax+160], ebx
	call	esi
	mov	ebx, eax
	test	ebx, ebx
	jne	SHORT $LN86@Set_Script
	push	48					; 00000030H
	push	OFFSET ??_C@_0BK@KODEAOPK@New_Enable_Stealth_Player?$AA@
	push	OFFSET ??_C@_0CM@MKMOBENL@Error?5getting?5function?5address?5f@
	push	eax
	call	edi
$LN86@Set_Script:

; 122  : 	Set_Fog_Enable_Player = (_Set_Fog_Enable_Player)Address(bhs,"New_Set_Fog_Enable_Player");

	mov	edx, DWORD PTR ?bhs@@3PAUHINSTANCE__@@A	; bhs
	push	OFFSET ??_C@_0BK@BODOPFDH@New_Set_Fog_Enable_Player?$AA@
	push	edx
	mov	DWORD PTR ?Enable_Stealth_Player@@3P6AXPAE0_N@ZA, ebx ; Enable_Stealth_Player
	call	esi
	mov	ebx, eax
	test	ebx, ebx
	jne	SHORT $LN89@Set_Script
	push	48					; 00000030H
	push	OFFSET ??_C@_0BK@BODOPFDH@New_Set_Fog_Enable_Player?$AA@
	push	OFFSET ??_C@_0CM@MKMOBENL@Error?5getting?5function?5address?5f@
	push	eax
	call	edi
$LN89@Set_Script:

; 123  : 	Set_Fog_Range_Player = (_Set_Fog_Range_Player)Address(bhs,"New_Set_Fog_Range_Player");

	mov	eax, DWORD PTR ?bhs@@3PAUHINSTANCE__@@A	; bhs
	push	OFFSET ??_C@_0BJ@POBGEGB@New_Set_Fog_Range_Player?$AA@
	push	eax
	mov	DWORD PTR ?Set_Fog_Enable_Player@@3P6AXPAE_N@ZA, ebx ; Set_Fog_Enable_Player
	call	esi
	mov	ebx, eax
	test	ebx, ebx
	jne	SHORT $LN92@Set_Script
	push	48					; 00000030H
	push	OFFSET ??_C@_0BJ@POBGEGB@New_Set_Fog_Range_Player?$AA@
	push	OFFSET ??_C@_0CM@MKMOBENL@Error?5getting?5function?5address?5f@
	push	eax
	call	edi
$LN92@Set_Script:

; 124  : 	Set_Background_Music_Player = (_Set_Background_Music_Player)Address(bhs,"New_Set_Background_Music_Player");

	mov	ecx, DWORD PTR ?bhs@@3PAUHINSTANCE__@@A	; bhs
	push	OFFSET ??_C@_0CA@KFLOIEGG@New_Set_Background_Music_Player?$AA@
	push	ecx
	mov	DWORD PTR ?Set_Fog_Range_Player@@3P6AXPAEMMM@ZA, ebx ; Set_Fog_Range_Player
	call	esi
	mov	ebx, eax
	test	ebx, ebx
	jne	SHORT $LN95@Set_Script
	push	48					; 00000030H
	push	OFFSET ??_C@_0CA@KFLOIEGG@New_Set_Background_Music_Player?$AA@
	push	OFFSET ??_C@_0CM@MKMOBENL@Error?5getting?5function?5address?5f@
	push	eax
	call	edi
$LN95@Set_Script:

; 125  : 	Fade_Background_Music_Player = (_Fade_Background_Music_Player)Address(bhs,"New_Fade_Background_Music_Player");

	mov	edx, DWORD PTR ?bhs@@3PAUHINSTANCE__@@A	; bhs
	push	OFFSET ??_C@_0CB@LBDBCOBG@New_Fade_Background_Music_Player@
	push	edx
	mov	DWORD PTR ?Set_Background_Music_Player@@3P6AXPAEPBD@ZA, ebx ; Set_Background_Music_Player
	call	esi
	mov	ebx, eax
	test	ebx, ebx
	jne	SHORT $LN98@Set_Script
	push	48					; 00000030H
	push	OFFSET ??_C@_0CB@LBDBCOBG@New_Fade_Background_Music_Player@
	push	OFFSET ??_C@_0CM@MKMOBENL@Error?5getting?5function?5address?5f@
	push	eax
	call	edi
$LN98@Set_Script:

; 126  : 	Stop_Background_Music_Player = (_Stop_Background_Music_Player)Address(bhs,"New_Stop_Background_Music_Player");

	mov	eax, DWORD PTR ?bhs@@3PAUHINSTANCE__@@A	; bhs
	push	OFFSET ??_C@_0CB@JGAFACH@New_Stop_Background_Music_Player@
	push	eax
	mov	DWORD PTR ?Fade_Background_Music_Player@@3P6AXPAEPBDHH@ZA, ebx ; Fade_Background_Music_Player
	call	esi
	mov	ebx, eax
	test	ebx, ebx
	jne	SHORT $LN101@Set_Script
	push	48					; 00000030H
	push	OFFSET ??_C@_0CB@JGAFACH@New_Stop_Background_Music_Player@
	push	OFFSET ??_C@_0CM@MKMOBENL@Error?5getting?5function?5address?5f@
	push	eax
	call	edi
$LN101@Set_Script:

; 127  : 	Enable_Radar_Player = (_Enable_Radar_Player)Address(bhs,"New_Enable_Radar_Player");

	mov	ecx, DWORD PTR ?bhs@@3PAUHINSTANCE__@@A	; bhs
	push	OFFSET ??_C@_0BI@MCHCNCJI@New_Enable_Radar_Player?$AA@
	push	ecx
	mov	DWORD PTR ?Stop_Background_Music_Player@@3P6AXPAE@ZA, ebx ; Stop_Background_Music_Player
	call	esi
	mov	ebx, eax
	test	ebx, ebx
	jne	SHORT $LN104@Set_Script
	push	48					; 00000030H
	push	OFFSET ??_C@_0BI@MCHCNCJI@New_Enable_Radar_Player?$AA@
	push	OFFSET ??_C@_0CM@MKMOBENL@Error?5getting?5function?5address?5f@
	push	eax
	call	edi
$LN104@Set_Script:

; 128  : 	Display_GDI_Player_Terminal_Player = (_Display_GDI_Player_Terminal_Player)Address(bhs,"New_Display_GDI_Player_Terminal_Player");

	mov	edx, DWORD PTR ?bhs@@3PAUHINSTANCE__@@A	; bhs
	push	OFFSET ??_C@_0CH@GGHFFKPO@New_Display_GDI_Player_Terminal_@
	push	edx
	mov	DWORD PTR ?Enable_Radar_Player@@3P6AXPAE_N@ZA, ebx ; Enable_Radar_Player
	call	esi
	mov	ebx, eax
	test	ebx, ebx
	jne	SHORT $LN107@Set_Script
	push	48					; 00000030H
	push	OFFSET ??_C@_0CH@GGHFFKPO@New_Display_GDI_Player_Terminal_@
	push	OFFSET ??_C@_0CM@MKMOBENL@Error?5getting?5function?5address?5f@
	push	eax
	call	edi
$LN107@Set_Script:

; 129  : 	Display_NOD_Player_Terminal_Player = (_Display_NOD_Player_Terminal_Player)Address(bhs,"New_Display_NOD_Player_Terminal_Player");

	mov	eax, DWORD PTR ?bhs@@3PAUHINSTANCE__@@A	; bhs
	push	OFFSET ??_C@_0CH@BPDIBODD@New_Display_NOD_Player_Terminal_@
	push	eax
	mov	DWORD PTR ?Display_GDI_Player_Terminal_Player@@3P6AXPAE@ZA, ebx ; Display_GDI_Player_Terminal_Player
	call	esi
	mov	ebx, eax
	test	ebx, ebx
	jne	SHORT $LN110@Set_Script
	push	48					; 00000030H
	push	OFFSET ??_C@_0CH@BPDIBODD@New_Display_NOD_Player_Terminal_@
	push	OFFSET ??_C@_0CM@MKMOBENL@Error?5getting?5function?5address?5f@
	push	eax
	call	edi
$LN110@Set_Script:

; 130  : 	Set_Screen_Fade_Color_Player = (_Set_Screen_Fade_Color_Player)Address(bhs,"New_Set_Screen_Fade_Color_Player");

	mov	ecx, DWORD PTR ?bhs@@3PAUHINSTANCE__@@A	; bhs
	push	OFFSET ??_C@_0CB@LCBOAKKM@New_Set_Screen_Fade_Color_Player@
	push	ecx
	mov	DWORD PTR ?Display_NOD_Player_Terminal_Player@@3P6AXPAE@ZA, ebx ; Display_NOD_Player_Terminal_Player
	call	esi
	mov	ebx, eax
	test	ebx, ebx
	jne	SHORT $LN113@Set_Script
	push	48					; 00000030H
	push	OFFSET ??_C@_0CB@LCBOAKKM@New_Set_Screen_Fade_Color_Player@
	push	OFFSET ??_C@_0CM@MKMOBENL@Error?5getting?5function?5address?5f@
	push	eax
	call	edi
$LN113@Set_Script:

; 131  : 	Set_Screen_Fade_Opacity_Player = (_Set_Screen_Fade_Opacity_Player)Address(bhs,"New_Set_Screen_Fade_Opacity_Player");

	mov	edx, DWORD PTR ?bhs@@3PAUHINSTANCE__@@A	; bhs
	push	OFFSET ??_C@_0CD@OGHDHBBK@New_Set_Screen_Fade_Opacity_Play@
	push	edx
	mov	DWORD PTR ?Set_Screen_Fade_Color_Player@@3P6AXPAEMMMM@ZA, ebx ; Set_Screen_Fade_Color_Player
	call	esi
	mov	ebx, eax
	test	ebx, ebx
	jne	SHORT $LN116@Set_Script
	push	48					; 00000030H
	push	OFFSET ??_C@_0CD@OGHDHBBK@New_Set_Screen_Fade_Opacity_Play@
	push	OFFSET ??_C@_0CM@MKMOBENL@Error?5getting?5function?5address?5f@
	push	eax
	call	edi
$LN116@Set_Script:

; 132  : 	Force_Camera_Look_Player = (_Force_Camera_Look_Player)Address(bhs,"New_Force_Camera_Look_Player");

	mov	eax, DWORD PTR ?bhs@@3PAUHINSTANCE__@@A	; bhs
	push	OFFSET ??_C@_0BN@MANAFNCH@New_Force_Camera_Look_Player?$AA@
	push	eax
	mov	DWORD PTR ?Set_Screen_Fade_Opacity_Player@@3P6AXPAEMM@ZA, ebx ; Set_Screen_Fade_Opacity_Player
	call	esi
	mov	ebx, eax
	test	ebx, ebx
	jne	SHORT $LN119@Set_Script
	push	48					; 00000030H
	push	OFFSET ??_C@_0BN@MANAFNCH@New_Force_Camera_Look_Player?$AA@
	push	OFFSET ??_C@_0CM@MKMOBENL@Error?5getting?5function?5address?5f@
	push	eax
	call	edi
$LN119@Set_Script:

; 133  : 	Enable_HUD_Player = (_Enable_HUD_Player)Address(bhs,"New_Enable_HUD_Player");

	mov	ecx, DWORD PTR ?bhs@@3PAUHINSTANCE__@@A	; bhs
	push	OFFSET ??_C@_0BG@OABCCFFJ@New_Enable_HUD_Player?$AA@
	push	ecx
	mov	DWORD PTR ?Force_Camera_Look_Player@@3P6AXPAEABUVector3@@@ZA, ebx ; Force_Camera_Look_Player
	call	esi
	mov	ebx, eax
	test	ebx, ebx
	jne	SHORT $LN122@Set_Script
	push	48					; 00000030H
	push	OFFSET ??_C@_0BG@OABCCFFJ@New_Enable_HUD_Player?$AA@
	push	OFFSET ??_C@_0CM@MKMOBENL@Error?5getting?5function?5address?5f@
	push	eax
	call	edi
$LN122@Set_Script:

; 134  : 	Create_Sound_Player = (_Create_Sound_Player)Address(bhs,"New_Create_Sound_Player");

	mov	edx, DWORD PTR ?bhs@@3PAUHINSTANCE__@@A	; bhs
	push	OFFSET ??_C@_0BI@NNCDIJF@New_Create_Sound_Player?$AA@
	push	edx
	mov	DWORD PTR ?Enable_HUD_Player@@3P6AXPAE_N@ZA, ebx ; Enable_HUD_Player
	call	esi
	mov	ebx, eax
	test	ebx, ebx
	jne	SHORT $LN125@Set_Script
	push	48					; 00000030H
	push	OFFSET ??_C@_0BI@NNCDIJF@New_Create_Sound_Player?$AA@
	push	OFFSET ??_C@_0CM@MKMOBENL@Error?5getting?5function?5address?5f@
	push	eax
	call	edi
$LN125@Set_Script:

; 135  : 	Create_2D_Sound_Player = (_Create_2D_Sound_Player)Address(bhs,"New_Create_2D_Sound_Player");

	mov	eax, DWORD PTR ?bhs@@3PAUHINSTANCE__@@A	; bhs
	push	OFFSET ??_C@_0BL@ENMIMBIM@New_Create_2D_Sound_Player?$AA@
	push	eax
	mov	DWORD PTR ?Create_Sound_Player@@3P6AHPAEPBDABUVector3@@0@ZA, ebx ; Create_Sound_Player
	call	esi
	mov	ebx, eax
	test	ebx, ebx
	jne	SHORT $LN128@Set_Script
	push	48					; 00000030H
	push	OFFSET ??_C@_0BL@ENMIMBIM@New_Create_2D_Sound_Player?$AA@
	push	OFFSET ??_C@_0CM@MKMOBENL@Error?5getting?5function?5address?5f@
	push	eax
	call	edi
$LN128@Set_Script:

; 136  : 	Create_2D_WAV_Sound_Player = (_Create_2D_WAV_Sound_Player)Address(bhs,"New_Create_2D_WAV_Sound_Player");

	mov	ecx, DWORD PTR ?bhs@@3PAUHINSTANCE__@@A	; bhs
	push	OFFSET ??_C@_0BP@BNBMIEKM@New_Create_2D_WAV_Sound_Player?$AA@
	push	ecx
	mov	DWORD PTR ?Create_2D_Sound_Player@@3P6AHPAEPBD@ZA, ebx ; Create_2D_Sound_Player
	call	esi
	mov	ebx, eax
	test	ebx, ebx
	jne	SHORT $LN131@Set_Script
	push	48					; 00000030H
	push	OFFSET ??_C@_0BP@BNBMIEKM@New_Create_2D_WAV_Sound_Player?$AA@
	push	OFFSET ??_C@_0CM@MKMOBENL@Error?5getting?5function?5address?5f@
	push	eax
	call	edi
$LN131@Set_Script:

; 137  : 	Create_3D_WAV_Sound_At_Bone_Player = (_Create_3D_WAV_Sound_At_Bone_Player)Address(bhs,"New_Create_3D_WAV_Sound_At_Bone_Player");

	mov	edx, DWORD PTR ?bhs@@3PAUHINSTANCE__@@A	; bhs
	push	OFFSET ??_C@_0CH@KEGANMCF@New_Create_3D_WAV_Sound_At_Bone_@
	push	edx
	mov	DWORD PTR ?Create_2D_WAV_Sound_Player@@3P6AHPAEPBD@ZA, ebx ; Create_2D_WAV_Sound_Player
	call	esi
	mov	ebx, eax
	test	ebx, ebx
	jne	SHORT $LN134@Set_Script
	push	48					; 00000030H
	push	OFFSET ??_C@_0CH@KEGANMCF@New_Create_3D_WAV_Sound_At_Bone_@
	push	OFFSET ??_C@_0CM@MKMOBENL@Error?5getting?5function?5address?5f@
	push	eax
	call	edi
$LN134@Set_Script:

; 138  : 	Create_3D_Sound_At_Bone_Player = (_Create_3D_Sound_At_Bone_Player)Address(bhs,"New_Create_3D_Sound_At_Bone_Player");

	mov	eax, DWORD PTR ?bhs@@3PAUHINSTANCE__@@A	; bhs
	push	OFFSET ??_C@_0CD@HKAJONGF@New_Create_3D_Sound_At_Bone_Play@
	push	eax
	mov	DWORD PTR ?Create_3D_WAV_Sound_At_Bone_Player@@3P6AHPAEPBD01@ZA, ebx ; Create_3D_WAV_Sound_At_Bone_Player
	call	esi
	mov	ebx, eax
	test	ebx, ebx
	jne	SHORT $LN137@Set_Script
	push	48					; 00000030H
	push	OFFSET ??_C@_0CD@HKAJONGF@New_Create_3D_Sound_At_Bone_Play@
	push	OFFSET ??_C@_0CM@MKMOBENL@Error?5getting?5function?5address?5f@
	push	eax
	call	edi
$LN137@Set_Script:

; 139  : 	Set_Display_Color_Player = (_Set_Display_Color_Player)Address(bhs,"New_Set_Display_Color_Player");

	mov	ecx, DWORD PTR ?bhs@@3PAUHINSTANCE__@@A	; bhs
	push	OFFSET ??_C@_0BN@FDAGJMKD@New_Set_Display_Color_Player?$AA@
	push	ecx
	mov	DWORD PTR ?Create_3D_Sound_At_Bone_Player@@3P6AHPAEPBD01@ZA, ebx ; Create_3D_Sound_At_Bone_Player
	call	esi
	mov	ebx, eax
	test	ebx, ebx
	jne	SHORT $LN140@Set_Script
	push	48					; 00000030H
	push	OFFSET ??_C@_0BN@FDAGJMKD@New_Set_Display_Color_Player?$AA@
	push	OFFSET ??_C@_0CM@MKMOBENL@Error?5getting?5function?5address?5f@
	push	eax
	call	edi
$LN140@Set_Script:

; 140  : 	Display_Text_Player = (_Display_Text_Player)Address(bhs,"New_Display_Text_Player");

	mov	edx, DWORD PTR ?bhs@@3PAUHINSTANCE__@@A	; bhs
	push	OFFSET ??_C@_0BI@BIGCCHLL@New_Display_Text_Player?$AA@
	push	edx
	mov	DWORD PTR ?Set_Display_Color_Player@@3P6AXPAEEEE@ZA, ebx ; Set_Display_Color_Player
	call	esi
	mov	ebx, eax
	test	ebx, ebx
	jne	SHORT $LN143@Set_Script
	push	48					; 00000030H
	push	OFFSET ??_C@_0BI@BIGCCHLL@New_Display_Text_Player?$AA@
	push	OFFSET ??_C@_0CM@MKMOBENL@Error?5getting?5function?5address?5f@
	push	eax
	call	edi
$LN143@Set_Script:

; 141  : 	Display_Int_Player = (_Display_Int_Player)Address(bhs,"New_Display_Int_Player");

	mov	eax, DWORD PTR ?bhs@@3PAUHINSTANCE__@@A	; bhs
	push	OFFSET ??_C@_0BH@EMLDPBJE@New_Display_Int_Player?$AA@
	push	eax
	mov	DWORD PTR ?Display_Text_Player@@3P6AXPAEH@ZA, ebx ; Display_Text_Player
	call	esi
	mov	ebx, eax
	test	ebx, ebx
	jne	SHORT $LN146@Set_Script
	push	48					; 00000030H
	push	OFFSET ??_C@_0BH@EMLDPBJE@New_Display_Int_Player?$AA@
	push	OFFSET ??_C@_0CM@MKMOBENL@Error?5getting?5function?5address?5f@
	push	eax
	call	edi
$LN146@Set_Script:

; 142  : 	Display_Float_Player = (_Display_Float_Player)Address(bhs,"New_Display_Float_Player");

	mov	ecx, DWORD PTR ?bhs@@3PAUHINSTANCE__@@A	; bhs
	push	OFFSET ??_C@_0BJ@BHPFPCAI@New_Display_Float_Player?$AA@
	push	ecx
	mov	DWORD PTR ?Display_Int_Player@@3P6AXPAEHPBD@ZA, ebx ; Display_Int_Player
	call	esi
	mov	ebx, eax
	test	ebx, ebx
	jne	SHORT $LN149@Set_Script
	push	48					; 00000030H
	push	OFFSET ??_C@_0BJ@BHPFPCAI@New_Display_Float_Player?$AA@
	push	OFFSET ??_C@_0CM@MKMOBENL@Error?5getting?5function?5address?5f@
	push	eax
	call	edi
$LN149@Set_Script:

; 143  : 	Commands->Set_Obj_Radar_Blip_Shape = (_Set_Obj_Radar_Blip_Shape)Address(bhs,"New_Set_Obj_Radar_Blip_Shape");

	mov	edx, DWORD PTR ?bhs@@3PAUHINSTANCE__@@A	; bhs
	push	OFFSET ??_C@_0BN@ICDIBFBA@New_Set_Obj_Radar_Blip_Shape?$AA@
	push	edx
	mov	DWORD PTR ?Display_Float_Player@@3P6AXPAEMPBD@ZA, ebx ; Display_Float_Player
	call	esi
	mov	ebx, eax
	test	ebx, ebx
	jne	SHORT $LN152@Set_Script
	push	48					; 00000030H
	push	OFFSET ??_C@_0BN@ICDIBFBA@New_Set_Obj_Radar_Blip_Shape?$AA@
	push	OFFSET ??_C@_0CM@MKMOBENL@Error?5getting?5function?5address?5f@
	push	eax
	call	edi
$LN152@Set_Script:

; 144  : 	Commands->Set_Obj_Radar_Blip_Color = (_Set_Obj_Radar_Blip_Color)Address(bhs,"New_Set_Obj_Radar_Blip_Color");

	mov	ecx, DWORD PTR ?bhs@@3PAUHINSTANCE__@@A	; bhs
	mov	eax, DWORD PTR ?Commands@@3PAUScriptCommands@@A ; Commands
	push	OFFSET ??_C@_0BN@NDFNHDJN@New_Set_Obj_Radar_Blip_Color?$AA@
	push	ecx
	mov	DWORD PTR [eax+372], ebx
	call	esi
	mov	ebx, eax
	test	ebx, ebx
	jne	SHORT $LN155@Set_Script
	push	48					; 00000030H
	push	OFFSET ??_C@_0BN@NDFNHDJN@New_Set_Obj_Radar_Blip_Color?$AA@
	push	OFFSET ??_C@_0CM@MKMOBENL@Error?5getting?5function?5address?5f@
	push	eax
	call	edi
$LN155@Set_Script:

; 145  : 	Set_Obj_Radar_Blip_Shape_Player = (_Set_Obj_Radar_Blip_Shape_Player)Address(bhs,"New_Set_Obj_Radar_Blip_Shape_Player");

	mov	eax, DWORD PTR ?bhs@@3PAUHINSTANCE__@@A	; bhs
	mov	edx, DWORD PTR ?Commands@@3PAUScriptCommands@@A ; Commands
	push	OFFSET ??_C@_0CE@NDFBOGLJ@New_Set_Obj_Radar_Blip_Shape_Pla@
	push	eax
	mov	DWORD PTR [edx+376], ebx
	call	esi
	mov	ebx, eax
	test	ebx, ebx
	jne	SHORT $LN158@Set_Script
	push	48					; 00000030H
	push	OFFSET ??_C@_0CE@NDFBOGLJ@New_Set_Obj_Radar_Blip_Shape_Pla@
	push	OFFSET ??_C@_0CM@MKMOBENL@Error?5getting?5function?5address?5f@
	push	eax
	call	edi
$LN158@Set_Script:

; 146  : 	Set_Obj_Radar_Blip_Color_Player = (_Set_Obj_Radar_Blip_Color_Player)Address(bhs,"New_Set_Obj_Radar_Blip_Color_Player");

	mov	ecx, DWORD PTR ?bhs@@3PAUHINSTANCE__@@A	; bhs
	push	OFFSET ??_C@_0CE@MGFOBBDG@New_Set_Obj_Radar_Blip_Color_Pla@
	push	ecx
	mov	DWORD PTR ?Set_Obj_Radar_Blip_Shape_Player@@3P6AXPAE0H@ZA, ebx ; Set_Obj_Radar_Blip_Shape_Player
	call	esi
	mov	ebx, eax
	test	ebx, ebx
	jne	SHORT $LN161@Set_Script
	push	48					; 00000030H
	push	OFFSET ??_C@_0CE@MGFOBBDG@New_Set_Obj_Radar_Blip_Color_Pla@
	push	OFFSET ??_C@_0CM@MKMOBENL@Error?5getting?5function?5address?5f@
	push	eax
	call	edi
$LN161@Set_Script:

; 147  : 	AddObjectCreateHook = (aoch)Address(bhs,"NewAddObjectCreateHook");

	mov	edx, DWORD PTR ?bhs@@3PAUHINSTANCE__@@A	; bhs
	push	OFFSET ??_C@_0BH@LGGKJPMB@NewAddObjectCreateHook?$AA@
	push	edx
	mov	DWORD PTR ?Set_Obj_Radar_Blip_Color_Player@@3P6AXPAE0H@ZA, ebx ; Set_Obj_Radar_Blip_Color_Player
	call	esi
	mov	ebx, eax
	test	ebx, ebx
	jne	SHORT $LN164@Set_Script
	push	48					; 00000030H
	push	OFFSET ??_C@_0BH@LGGKJPMB@NewAddObjectCreateHook?$AA@
	push	OFFSET ??_C@_0CM@MKMOBENL@Error?5getting?5function?5address?5f@
	push	eax
	call	edi
$LN164@Set_Script:

; 148  : 	RemoveObjectCreateHook = (roch)Address(bhs,"NewRemoveObjectCreateHook");

	mov	eax, DWORD PTR ?bhs@@3PAUHINSTANCE__@@A	; bhs
	push	OFFSET ??_C@_0BK@GKCDPKE@NewRemoveObjectCreateHook?$AA@
	push	eax
	mov	DWORD PTR ?AddObjectCreateHook@@3P6AHPAUObjectCreateHookStruct@@@ZA, ebx ; AddObjectCreateHook
	call	esi
	mov	ebx, eax
	test	ebx, ebx
	jne	SHORT $LN167@Set_Script
	push	48					; 00000030H
	push	OFFSET ??_C@_0BK@GKCDPKE@NewRemoveObjectCreateHook?$AA@
	push	OFFSET ??_C@_0CM@MKMOBENL@Error?5getting?5function?5address?5f@
	push	eax
	call	edi
$LN167@Set_Script:

; 149  : 	AddKeyHook = (akh)Address(bhs,"AddKeyHook");

	mov	ecx, DWORD PTR ?bhs@@3PAUHINSTANCE__@@A	; bhs
	push	OFFSET ??_C@_0L@BFCNNHMC@AddKeyHook?$AA@
	push	ecx
	mov	DWORD PTR ?RemoveObjectCreateHook@@3P6AXH@ZA, ebx ; RemoveObjectCreateHook
	call	esi
	mov	ebx, eax
	test	ebx, ebx
	jne	SHORT $LN170@Set_Script
	push	48					; 00000030H
	push	OFFSET ??_C@_0L@BFCNNHMC@AddKeyHook?$AA@
	push	OFFSET ??_C@_0CM@MKMOBENL@Error?5getting?5function?5address?5f@
	push	eax
	call	edi
$LN170@Set_Script:

; 150  : 	RemoveKeyHook = (rkh)Address(bhs,"RemoveKeyHook");

	mov	edx, DWORD PTR ?bhs@@3PAUHINSTANCE__@@A	; bhs
	push	OFFSET ??_C@_0O@CMJPPFDF@RemoveKeyHook?$AA@
	push	edx
	mov	DWORD PTR ?AddKeyHook@@3P6AHPAUKeyHookStruct@@@ZA, ebx ; AddKeyHook
	call	esi
	mov	ebx, eax
	test	ebx, ebx
	jne	SHORT $LN173@Set_Script
	push	48					; 00000030H
	push	OFFSET ??_C@_0O@CMJPPFDF@RemoveKeyHook?$AA@
	push	OFFSET ??_C@_0CM@MKMOBENL@Error?5getting?5function?5address?5f@
	push	eax
	call	edi
$LN173@Set_Script:

; 151  : 	Set_Scope = (ss)Address(bhs,"Set_Scope");

	mov	eax, DWORD PTR ?bhs@@3PAUHINSTANCE__@@A	; bhs
	push	OFFSET ??_C@_09NOJDAPDO@Set_Scope?$AA@
	push	eax
	mov	DWORD PTR ?RemoveKeyHook@@3P6AXH@ZA, ebx ; RemoveKeyHook
	call	esi
	mov	ebx, eax
	test	ebx, ebx
	jne	SHORT $LN176@Set_Script
	push	48					; 00000030H
	push	OFFSET ??_C@_09NOJDAPDO@Set_Scope?$AA@
	push	OFFSET ??_C@_0CM@MKMOBENL@Error?5getting?5function?5address?5f@
	push	eax
	call	edi
$LN176@Set_Script:

; 152  : 	Set_HUD_Texture = (sh)Address(bhs,"Set_HUD_Texture");

	mov	ecx, DWORD PTR ?bhs@@3PAUHINSTANCE__@@A	; bhs
	push	OFFSET ??_C@_0BA@KLLGFAPE@Set_HUD_Texture?$AA@
	push	ecx
	mov	DWORD PTR ?Set_Scope@@3P6AXPAEH@ZA, ebx	; Set_Scope
	call	esi
	mov	ebx, eax
	test	ebx, ebx
	jne	SHORT $LN179@Set_Script
	push	48					; 00000030H
	push	OFFSET ??_C@_0BA@KLLGFAPE@Set_HUD_Texture?$AA@
	push	OFFSET ??_C@_0CM@MKMOBENL@Error?5getting?5function?5address?5f@
	push	eax
	call	edi
$LN179@Set_Script:

; 153  : 	AddChatHook = (ach)Address(bhs,"AddChatHook");

	mov	edx, DWORD PTR ?bhs@@3PAUHINSTANCE__@@A	; bhs
	push	OFFSET ??_C@_0M@IAMKMFFJ@AddChatHook?$AA@
	push	edx
	mov	DWORD PTR ?Set_HUD_Texture@@3P6AXPAEPBD@ZA, ebx ; Set_HUD_Texture
	call	esi
	mov	ebx, eax
	test	ebx, ebx
	jne	SHORT $LN182@Set_Script
	push	48					; 00000030H
	push	OFFSET ??_C@_0M@IAMKMFFJ@AddChatHook?$AA@
	push	OFFSET ??_C@_0CM@MKMOBENL@Error?5getting?5function?5address?5f@
	push	eax
	call	edi
$LN182@Set_Script:

; 154  : 	AddHostHook = (ahh)Address(bhs,"AddHostHook");

	mov	eax, DWORD PTR ?bhs@@3PAUHINSTANCE__@@A	; bhs
	push	OFFSET ??_C@_0M@PIBLNPHK@AddHostHook?$AA@
	push	eax
	mov	DWORD PTR ?AddChatHook@@3P6AXP6AXHW4TextMessageEnum@@PB_W@Z@ZA, ebx ; AddChatHook
	call	esi
	mov	ebx, eax
	test	ebx, ebx
	jne	SHORT $LN185@Set_Script
	push	48					; 00000030H
	push	OFFSET ??_C@_0M@PIBLNPHK@AddHostHook?$AA@
	push	OFFSET ??_C@_0CM@MKMOBENL@Error?5getting?5function?5address?5f@
	push	eax
	call	edi
$LN185@Set_Script:

; 155  : 	AddLoadLevelHook = (allh)Address(bhs,"AddLoadLevelHook");

	mov	ecx, DWORD PTR ?bhs@@3PAUHINSTANCE__@@A	; bhs
	push	OFFSET ??_C@_0BB@EIEGDAAC@AddLoadLevelHook?$AA@
	push	ecx
	mov	DWORD PTR ?AddHostHook@@3P6AXP6AXHW4TextMessageEnum@@PBD@Z@ZA, ebx ; AddHostHook
	call	esi
	mov	ebx, eax
	test	ebx, ebx
	jne	SHORT $LN188@Set_Script
	push	48					; 00000030H
	push	OFFSET ??_C@_0BB@EIEGDAAC@AddLoadLevelHook?$AA@
	push	OFFSET ??_C@_0CM@MKMOBENL@Error?5getting?5function?5address?5f@
	push	eax
	call	edi
$LN188@Set_Script:

; 156  : 	AddGameOverHook = (allh)Address(bhs,"AddGameOverHook");

	mov	edx, DWORD PTR ?bhs@@3PAUHINSTANCE__@@A	; bhs
	push	OFFSET ??_C@_0BA@CLNCABAJ@AddGameOverHook?$AA@
	push	edx
	mov	DWORD PTR ?AddLoadLevelHook@@3P6AXP6AXXZ@ZA, ebx ; AddLoadLevelHook
	call	esi
	mov	ebx, eax
	test	ebx, ebx
	jne	SHORT $LN191@Set_Script
	push	48					; 00000030H
	push	OFFSET ??_C@_0BA@CLNCABAJ@AddGameOverHook?$AA@
	push	OFFSET ??_C@_0CM@MKMOBENL@Error?5getting?5function?5address?5f@
	push	eax
	call	edi
$LN191@Set_Script:

; 157  : 	AddPlayerJoinHook = (apjh)Address(bhs,"AddPlayerJoinHook");

	mov	eax, DWORD PTR ?bhs@@3PAUHINSTANCE__@@A	; bhs
	push	OFFSET ??_C@_0BC@BBENPMJL@AddPlayerJoinHook?$AA@
	push	eax
	mov	DWORD PTR ?AddGameOverHook@@3P6AXP6AXXZ@ZA, ebx ; AddGameOverHook
	call	esi
	mov	ebx, eax
	test	ebx, ebx
	jne	SHORT $LN194@Set_Script
	push	48					; 00000030H
	push	OFFSET ??_C@_0BC@BBENPMJL@AddPlayerJoinHook?$AA@
	push	OFFSET ??_C@_0CM@MKMOBENL@Error?5getting?5function?5address?5f@
	push	eax
	call	edi
$LN194@Set_Script:

; 158  : 	GetCurrentMusicTrack = (gcmt)Address(bhs,"GetCurrentMusicTrack");

	mov	ecx, DWORD PTR ?bhs@@3PAUHINSTANCE__@@A	; bhs
	push	OFFSET ??_C@_0BF@LBJICEGB@GetCurrentMusicTrack?$AA@
	push	ecx
	mov	DWORD PTR ?AddPlayerJoinHook@@3P6AXP6AXHPBD@Z@ZA, ebx ; AddPlayerJoinHook
	call	esi
	mov	ebx, eax
	test	ebx, ebx
	jne	SHORT $LN197@Set_Script
	push	48					; 00000030H
	push	OFFSET ??_C@_0BF@LBJICEGB@GetCurrentMusicTrack?$AA@
	push	OFFSET ??_C@_0CM@MKMOBENL@Error?5getting?5function?5address?5f@
	push	eax
	call	edi
$LN197@Set_Script:

; 159  : 	Set_Info_Texture = (sit)Address(bhs,"Set_Info_Texture");

	mov	edx, DWORD PTR ?bhs@@3PAUHINSTANCE__@@A	; bhs
	push	OFFSET ??_C@_0BB@KPPILEKB@Set_Info_Texture?$AA@
	push	edx
	mov	DWORD PTR ?GetCurrentMusicTrack@@3P6APBDXZA, ebx ; GetCurrentMusicTrack
	call	esi
	mov	ebx, eax
	test	ebx, ebx
	jne	SHORT $LN200@Set_Script
	push	48					; 00000030H
	push	OFFSET ??_C@_0BB@KPPILEKB@Set_Info_Texture?$AA@
	push	OFFSET ??_C@_0CM@MKMOBENL@Error?5getting?5function?5address?5f@
	push	eax
	call	edi
$LN200@Set_Script:

; 160  : 	Clear_Info_Texture = (cit)Address(bhs,"Clear_Info_Texture");

	mov	eax, DWORD PTR ?bhs@@3PAUHINSTANCE__@@A	; bhs
	push	OFFSET ??_C@_0BD@MBHONDFC@Clear_Info_Texture?$AA@
	push	eax
	mov	DWORD PTR ?Set_Info_Texture@@3P6AXPAEPBD@ZA, ebx ; Set_Info_Texture
	call	esi
	mov	ebx, eax
	test	ebx, ebx
	jne	SHORT $LN203@Set_Script
	push	48					; 00000030H
	push	OFFSET ??_C@_0BD@MBHONDFC@Clear_Info_Texture?$AA@
	push	OFFSET ??_C@_0CM@MKMOBENL@Error?5getting?5function?5address?5f@
	push	eax
	call	edi
$LN203@Set_Script:

; 161  : 	Set_Vehicle_Limit = (svl)Address(bhs,"Set_Vehicle_Limit");

	mov	ecx, DWORD PTR ?bhs@@3PAUHINSTANCE__@@A	; bhs
	push	OFFSET ??_C@_0BC@JNCDLPNM@Set_Vehicle_Limit?$AA@
	push	ecx
	mov	DWORD PTR ?Clear_Info_Texture@@3P6AXPAE@ZA, ebx ; Clear_Info_Texture
	call	esi
	mov	ebx, eax
	test	ebx, ebx
	jne	SHORT $LN206@Set_Script
	push	48					; 00000030H
	push	OFFSET ??_C@_0BC@JNCDLPNM@Set_Vehicle_Limit?$AA@
	push	OFFSET ??_C@_0CM@MKMOBENL@Error?5getting?5function?5address?5f@
	push	eax
	call	edi
$LN206@Set_Script:

; 162  : 	Get_Vehicle_Limit = (gvl)Address(bhs,"Get_Vehicle_Limit");

	mov	edx, DWORD PTR ?bhs@@3PAUHINSTANCE__@@A	; bhs
	push	OFFSET ??_C@_0BC@LICIDEMC@Get_Vehicle_Limit?$AA@
	push	edx
	mov	DWORD PTR ?Set_Vehicle_Limit@@3P6AXI@ZA, ebx ; Set_Vehicle_Limit
	call	esi
	mov	ebx, eax
	test	ebx, ebx
	jne	SHORT $LN209@Set_Script
	push	48					; 00000030H
	push	OFFSET ??_C@_0BC@LICIDEMC@Get_Vehicle_Limit?$AA@
	push	OFFSET ??_C@_0CM@MKMOBENL@Error?5getting?5function?5address?5f@
	push	eax
	call	edi
$LN209@Set_Script:

; 163  : 	Send_Message = (sm)Address(bhs,"Send_Message");

	mov	eax, DWORD PTR ?bhs@@3PAUHINSTANCE__@@A	; bhs
	push	OFFSET ??_C@_0N@NCFONGG@Send_Message?$AA@
	push	eax
	mov	DWORD PTR ?Get_Vehicle_Limit@@3P6AKXZA, ebx ; Get_Vehicle_Limit
	call	esi
	mov	ebx, eax
	test	ebx, ebx
	jne	SHORT $LN212@Set_Script
	push	48					; 00000030H
	push	OFFSET ??_C@_0N@NCFONGG@Send_Message?$AA@
	push	OFFSET ??_C@_0CM@MKMOBENL@Error?5getting?5function?5address?5f@
	push	eax
	call	edi
$LN212@Set_Script:

; 164  : 	Send_Message_Player = (smp)Address(bhs,"Send_Message_Player");

	mov	ecx, DWORD PTR ?bhs@@3PAUHINSTANCE__@@A	; bhs
	push	OFFSET ??_C@_0BE@IIGCGNIC@Send_Message_Player?$AA@
	push	ecx
	mov	DWORD PTR ?Send_Message@@3P6AXIIIPBD@ZA, ebx ; Send_Message
	call	esi
	mov	ebx, eax
	test	ebx, ebx
	jne	SHORT $LN215@Set_Script
	push	48					; 00000030H
	push	OFFSET ??_C@_0BE@IIGCGNIC@Send_Message_Player?$AA@
	push	OFFSET ??_C@_0CM@MKMOBENL@Error?5getting?5function?5address?5f@
	push	eax
	call	edi
$LN215@Set_Script:

; 165  : 	Commands->Display_Health_Bar = (_Display_Health_Bar)Address(bhs,"New_Display_Health_Bar");

	mov	edx, DWORD PTR ?bhs@@3PAUHINSTANCE__@@A	; bhs
	push	OFFSET ??_C@_0BH@GJJAIAB@New_Display_Health_Bar?$AA@
	push	edx
	mov	DWORD PTR ?Send_Message_Player@@3P6AXPAEIIIPBD@ZA, ebx ; Send_Message_Player
	call	esi
	mov	ebx, eax
	test	ebx, ebx
	jne	SHORT $LN218@Set_Script
	push	48					; 00000030H
	push	OFFSET ??_C@_0BH@GJJAIAB@New_Display_Health_Bar?$AA@
	push	OFFSET ??_C@_0CM@MKMOBENL@Error?5getting?5function?5address?5f@
	push	eax
	call	edi
$LN218@Set_Script:

; 166  : 	AddVersionHook = (avh)Address(bhs,"AddVersionHook");

	mov	ecx, DWORD PTR ?bhs@@3PAUHINSTANCE__@@A	; bhs
	mov	eax, DWORD PTR ?Commands@@3PAUScriptCommands@@A ; Commands
	push	OFFSET ??_C@_0P@IHKAKAEO@AddVersionHook?$AA@
	push	ecx
	mov	DWORD PTR [eax+788], ebx
	call	esi
	mov	ebx, eax
	test	ebx, ebx
	jne	SHORT $LN221@Set_Script
	push	48					; 00000030H
	push	OFFSET ??_C@_0P@IHKAKAEO@AddVersionHook?$AA@
	push	OFFSET ??_C@_0CM@MKMOBENL@Error?5getting?5function?5address?5f@
	push	eax
	call	edi
$LN221@Set_Script:

; 167  : 	Set_Wireframe_Mode = (sw)Address(bhs,"Set_Wireframe_Mode");

	mov	edx, DWORD PTR ?bhs@@3PAUHINSTANCE__@@A	; bhs
	push	OFFSET ??_C@_0BD@CNJALGFI@Set_Wireframe_Mode?$AA@
	push	edx
	mov	DWORD PTR ?AddVersionHook@@3P6AXP6AXHM@Z@ZA, ebx ; AddVersionHook
	call	esi
	mov	ebx, eax
	test	ebx, ebx
	jne	SHORT $LN224@Set_Script
	push	48					; 00000030H
	push	OFFSET ??_C@_0BD@CNJALGFI@Set_Wireframe_Mode?$AA@
	push	OFFSET ??_C@_0CM@MKMOBENL@Error?5getting?5function?5address?5f@
	push	eax
	call	edi
$LN224@Set_Script:

; 168  : 	Commands->Disable_All_Collisions = (_Disable_All_Collisions)Address(bhs,"New_Disable_All_Collisions");

	mov	eax, DWORD PTR ?bhs@@3PAUHINSTANCE__@@A	; bhs
	push	OFFSET ??_C@_0BL@DCIMBMAN@New_Disable_All_Collisions?$AA@
	push	eax
	mov	DWORD PTR ?Set_Wireframe_Mode@@3P6AXH@ZA, ebx ; Set_Wireframe_Mode
	call	esi
	mov	ebx, eax
	test	ebx, ebx
	jne	SHORT $LN227@Set_Script
	push	48					; 00000030H
	push	OFFSET ??_C@_0BL@DCIMBMAN@New_Disable_All_Collisions?$AA@
	push	OFFSET ??_C@_0CM@MKMOBENL@Error?5getting?5function?5address?5f@
	push	eax
	call	edi
$LN227@Set_Script:

; 169  : 	Commands->Disable_Physical_Collisions = (_Disable_Physical_Collisions)Address(bhs,"New_Disable_Physical_Collisions");

	mov	edx, DWORD PTR ?bhs@@3PAUHINSTANCE__@@A	; bhs
	mov	ecx, DWORD PTR ?Commands@@3PAUScriptCommands@@A ; Commands
	push	OFFSET ??_C@_0CA@LBEEGJKG@New_Disable_Physical_Collisions?$AA@
	push	edx
	mov	DWORD PTR [ecx+80], ebx
	call	esi
	mov	ebx, eax
	test	ebx, ebx
	jne	SHORT $LN230@Set_Script
	push	48					; 00000030H
	push	OFFSET ??_C@_0CA@LBEEGJKG@New_Disable_Physical_Collisions?$AA@
	push	OFFSET ??_C@_0CM@MKMOBENL@Error?5getting?5function?5address?5f@
	push	eax
	call	edi
$LN230@Set_Script:

; 170  : 	Commands->Enable_Collisions = (_Enable_Collisions)Address(bhs,"New_Enable_Collisions");

	mov	ecx, DWORD PTR ?bhs@@3PAUHINSTANCE__@@A	; bhs
	mov	eax, DWORD PTR ?Commands@@3PAUScriptCommands@@A ; Commands
	push	OFFSET ??_C@_0BG@BBLOAJCE@New_Enable_Collisions?$AA@
	push	ecx
	mov	DWORD PTR [eax+84], ebx
	call	esi
	mov	ebx, eax
	test	ebx, ebx
	jne	SHORT $LN233@Set_Script
	push	48					; 00000030H
	push	OFFSET ??_C@_0BG@BBLOAJCE@New_Enable_Collisions?$AA@
	push	OFFSET ??_C@_0CM@MKMOBENL@Error?5getting?5function?5address?5f@
	push	eax
	call	edi
$LN233@Set_Script:

; 171  : 	Load_New_HUD_INI = (lnhi)Address(bhs,"Load_New_HUD_INI");

	mov	eax, DWORD PTR ?bhs@@3PAUHINSTANCE__@@A	; bhs
	mov	edx, DWORD PTR ?Commands@@3PAUScriptCommands@@A ; Commands
	push	OFFSET ??_C@_0BB@FALIJHOM@Load_New_HUD_INI?$AA@
	push	eax
	mov	DWORD PTR [edx+88], ebx
	call	esi
	mov	ebx, eax
	test	ebx, ebx
	jne	SHORT $LN236@Set_Script
	push	48					; 00000030H
	push	OFFSET ??_C@_0BB@FALIJHOM@Load_New_HUD_INI?$AA@
	push	OFFSET ??_C@_0CM@MKMOBENL@Error?5getting?5function?5address?5f@
	push	eax
	call	edi
$LN236@Set_Script:

; 172  : 	Remove_Weapon = (rw)Address(bhs,"Remove_Weapon");

	mov	ecx, DWORD PTR ?bhs@@3PAUHINSTANCE__@@A	; bhs
	push	OFFSET ??_C@_0O@CGFKECIG@Remove_Weapon?$AA@
	push	ecx
	mov	DWORD PTR ?Load_New_HUD_INI@@3P6AXPAEPBD@ZA, ebx ; Load_New_HUD_INI
	call	esi
	mov	ebx, eax
	test	ebx, ebx
	jne	SHORT $LN239@Set_Script
	push	48					; 00000030H
	push	OFFSET ??_C@_0O@CGFKECIG@Remove_Weapon?$AA@
	push	OFFSET ??_C@_0CM@MKMOBENL@Error?5getting?5function?5address?5f@
	push	eax
	call	edi
$LN239@Set_Script:

; 173  : 	Update_PT_Data = (upd)Address(bhs,"Update_PT_Data");

	mov	edx, DWORD PTR ?bhs@@3PAUHINSTANCE__@@A	; bhs
	push	OFFSET ??_C@_0P@KIKNJFGM@Update_PT_Data?$AA@
	push	edx
	mov	DWORD PTR ?Remove_Weapon@@3P6AXPAEPBD@ZA, ebx ; Remove_Weapon
	call	esi
	mov	ebx, eax
	test	ebx, ebx
	jne	SHORT $LN242@Set_Script
	push	48					; 00000030H
	push	OFFSET ??_C@_0P@KIKNJFGM@Update_PT_Data?$AA@
	push	OFFSET ??_C@_0CM@MKMOBENL@Error?5getting?5function?5address?5f@
	push	eax
	call	edi
$LN242@Set_Script:

; 174  : 	Change_Radar_Map = (crm)Address(bhs,"Change_Radar_Map");

	mov	eax, DWORD PTR ?bhs@@3PAUHINSTANCE__@@A	; bhs
	push	OFFSET ??_C@_0BB@JKEOAOPH@Change_Radar_Map?$AA@
	push	eax
	mov	DWORD PTR ?Update_PT_Data@@3P6AXXZA, ebx ; Update_PT_Data
	call	esi
	mov	ebx, eax
	test	ebx, ebx
	jne	SHORT $LN245@Set_Script
	push	48					; 00000030H
	push	OFFSET ??_C@_0BB@JKEOAOPH@Change_Radar_Map?$AA@
	push	OFFSET ??_C@_0CM@MKMOBENL@Error?5getting?5function?5address?5f@
	push	eax
	call	edi
$LN245@Set_Script:

; 175  : 	AddPowerupPurchaseHook = (aph)Address(bhs,"AddPowerupPurchaseHook");

	mov	ecx, DWORD PTR ?bhs@@3PAUHINSTANCE__@@A	; bhs
	push	OFFSET ??_C@_0BH@DAOOINAA@AddPowerupPurchaseHook?$AA@
	push	ecx
	mov	DWORD PTR ?Change_Radar_Map@@3P6AXMMMPBD@ZA, ebx ; Change_Radar_Map
	call	esi
	mov	ebx, eax
	test	ebx, ebx
	jne	SHORT $LN248@Set_Script
	push	48					; 00000030H
	push	OFFSET ??_C@_0BH@DAOOINAA@AddPowerupPurchaseHook?$AA@
	push	OFFSET ??_C@_0CM@MKMOBENL@Error?5getting?5function?5address?5f@
	push	eax
	call	edi
$LN248@Set_Script:

; 176  : 	AddVehiclePurchaseHook = (aph)Address(bhs,"AddVehiclePurchaseHook");

	mov	edx, DWORD PTR ?bhs@@3PAUHINSTANCE__@@A	; bhs
	push	OFFSET ??_C@_0BH@BMFCOOKO@AddVehiclePurchaseHook?$AA@
	push	edx
	mov	DWORD PTR ?AddPowerupPurchaseHook@@3P6AHP6AHPAVBaseControllerClass@@PAEIIPBD@Z2@ZA, ebx ; AddPowerupPurchaseHook
	call	esi
	mov	ebx, eax
	test	ebx, ebx
	jne	SHORT $LN251@Set_Script
	push	48					; 00000030H
	push	OFFSET ??_C@_0BH@BMFCOOKO@AddVehiclePurchaseHook?$AA@
	push	OFFSET ??_C@_0CM@MKMOBENL@Error?5getting?5function?5address?5f@
	push	eax
	call	edi
$LN251@Set_Script:

; 177  : 	AddCharacterPurchaseHook = (aph)Address(bhs,"AddCharacterPurchaseHook");

	mov	eax, DWORD PTR ?bhs@@3PAUHINSTANCE__@@A	; bhs
	push	OFFSET ??_C@_0BJ@INOONOPD@AddCharacterPurchaseHook?$AA@
	push	eax
	mov	DWORD PTR ?AddVehiclePurchaseHook@@3P6AHP6AHPAVBaseControllerClass@@PAEIIPBD@Z2@ZA, ebx ; AddVehiclePurchaseHook
	call	esi
	mov	ebx, eax
	test	ebx, ebx
	jne	SHORT $LN254@Set_Script
	push	48					; 00000030H
	push	OFFSET ??_C@_0BJ@INOONOPD@AddCharacterPurchaseHook?$AA@
	push	OFFSET ??_C@_0CM@MKMOBENL@Error?5getting?5function?5address?5f@
	push	eax
	call	edi
$LN254@Set_Script:

; 178  : 	AddPowerupPurchaseMonHook = (apmh)Address(bhs,"AddPowerupPurchaseMonHook");

	mov	ecx, DWORD PTR ?bhs@@3PAUHINSTANCE__@@A	; bhs
	push	OFFSET ??_C@_0BK@GKIFHIHI@AddPowerupPurchaseMonHook?$AA@
	push	ecx
	mov	DWORD PTR ?AddCharacterPurchaseHook@@3P6AHP6AHPAVBaseControllerClass@@PAEIIPBD@Z2@ZA, ebx ; AddCharacterPurchaseHook
	call	esi
	mov	ebx, eax
	test	ebx, ebx
	jne	SHORT $LN257@Set_Script
	push	48					; 00000030H
	push	OFFSET ??_C@_0BK@GKIFHIHI@AddPowerupPurchaseMonHook?$AA@
	push	OFFSET ??_C@_0CM@MKMOBENL@Error?5getting?5function?5address?5f@
	push	eax
	call	edi
$LN257@Set_Script:

; 179  : 	AddVehiclePurchaseMonHook = (apmh)Address(bhs,"AddVehiclePurchaseMonHook");

	mov	edx, DWORD PTR ?bhs@@3PAUHINSTANCE__@@A	; bhs
	push	OFFSET ??_C@_0BK@DFGEMPPN@AddVehiclePurchaseMonHook?$AA@
	push	edx
	mov	DWORD PTR ?AddPowerupPurchaseMonHook@@3P6AHP6AXPAVBaseControllerClass@@PAEIIIPBD@Z2@ZA, ebx ; AddPowerupPurchaseMonHook
	call	esi
	mov	ebx, eax
	test	ebx, ebx
	jne	SHORT $LN260@Set_Script
	push	48					; 00000030H
	push	OFFSET ??_C@_0BK@DFGEMPPN@AddVehiclePurchaseMonHook?$AA@
	push	OFFSET ??_C@_0CM@MKMOBENL@Error?5getting?5function?5address?5f@
	push	eax
	call	edi
$LN260@Set_Script:

; 180  : 	AddCharacterPurchaseMonHook = (apmh)Address(bhs,"AddCharacterPurchaseMonHook");

	mov	eax, DWORD PTR ?bhs@@3PAUHINSTANCE__@@A	; bhs
	push	OFFSET ??_C@_0BM@EMJBLLNL@AddCharacterPurchaseMonHook?$AA@
	push	eax
	mov	DWORD PTR ?AddVehiclePurchaseMonHook@@3P6AHP6AXPAVBaseControllerClass@@PAEIIIPBD@Z2@ZA, ebx ; AddVehiclePurchaseMonHook
	call	esi
	mov	ebx, eax
	test	ebx, ebx
	jne	SHORT $LN263@Set_Script
	push	48					; 00000030H
	push	OFFSET ??_C@_0BM@EMJBLLNL@AddCharacterPurchaseMonHook?$AA@
	push	OFFSET ??_C@_0CM@MKMOBENL@Error?5getting?5function?5address?5f@
	push	eax
	call	edi
$LN263@Set_Script:

; 181  : 	RemovePowerupPurchaseHook = (rph)Address(bhs,"RemovePowerupPurchaseHook");

	mov	ecx, DWORD PTR ?bhs@@3PAUHINSTANCE__@@A	; bhs
	push	OFFSET ??_C@_0BK@NGJKJBAA@RemovePowerupPurchaseHook?$AA@
	push	ecx
	mov	DWORD PTR ?AddCharacterPurchaseMonHook@@3P6AHP6AXPAVBaseControllerClass@@PAEIIIPBD@Z2@ZA, ebx ; AddCharacterPurchaseMonHook
	call	esi
	mov	ebx, eax
	test	ebx, ebx
	jne	SHORT $LN266@Set_Script
	push	48					; 00000030H
	push	OFFSET ??_C@_0BK@NGJKJBAA@RemovePowerupPurchaseHook?$AA@
	push	OFFSET ??_C@_0CM@MKMOBENL@Error?5getting?5function?5address?5f@
	push	eax
	call	edi
$LN266@Set_Script:

; 182  : 	RemoveVehiclePurchaseHook = (rph)Address(bhs,"RemoveVehiclePurchaseHook");

	mov	edx, DWORD PTR ?bhs@@3PAUHINSTANCE__@@A	; bhs
	push	OFFSET ??_C@_0BK@PKCGPCKO@RemoveVehiclePurchaseHook?$AA@
	push	edx
	mov	DWORD PTR ?RemovePowerupPurchaseHook@@3P6AXH@ZA, ebx ; RemovePowerupPurchaseHook
	call	esi
	mov	ebx, eax
	test	ebx, ebx
	jne	SHORT $LN269@Set_Script
	push	48					; 00000030H
	push	OFFSET ??_C@_0BK@PKCGPCKO@RemoveVehiclePurchaseHook?$AA@
	push	OFFSET ??_C@_0CM@MKMOBENL@Error?5getting?5function?5address?5f@
	push	eax
	call	edi
$LN269@Set_Script:

; 183  : 	RemoveCharacterPurchaseHook = (rph)Address(bhs,"RemoveCharacterPurchaseHook");

	mov	eax, DWORD PTR ?bhs@@3PAUHINSTANCE__@@A	; bhs
	push	OFFSET ??_C@_0BM@JJOPGEMI@RemoveCharacterPurchaseHook?$AA@
	push	eax
	mov	DWORD PTR ?RemoveVehiclePurchaseHook@@3P6AXH@ZA, ebx ; RemoveVehiclePurchaseHook
	call	esi
	mov	ebx, eax
	test	ebx, ebx
	jne	SHORT $LN272@Set_Script
	push	48					; 00000030H
	push	OFFSET ??_C@_0BM@JJOPGEMI@RemoveCharacterPurchaseHook?$AA@
	push	OFFSET ??_C@_0CM@MKMOBENL@Error?5getting?5function?5address?5f@
	push	eax
	call	edi
$LN272@Set_Script:

; 184  : 	RemovePowerupPurchaseMonHook = (rph)Address(bhs,"RemovePowerupPurchaseMonHook");

	mov	ecx, DWORD PTR ?bhs@@3PAUHINSTANCE__@@A	; bhs
	push	OFFSET ??_C@_0BN@NLJKJAOG@RemovePowerupPurchaseMonHook?$AA@
	push	ecx
	mov	DWORD PTR ?RemoveCharacterPurchaseHook@@3P6AXH@ZA, ebx ; RemoveCharacterPurchaseHook
	call	esi
	mov	ebx, eax
	test	ebx, ebx
	jne	SHORT $LN275@Set_Script
	push	48					; 00000030H
	push	OFFSET ??_C@_0BN@NLJKJAOG@RemovePowerupPurchaseMonHook?$AA@
	push	OFFSET ??_C@_0CM@MKMOBENL@Error?5getting?5function?5address?5f@
	push	eax
	call	edi
$LN275@Set_Script:

; 185  : 	RemoveVehiclePurchaseMonHook = (rph)Address(bhs,"RemoveVehiclePurchaseMonHook");

	mov	edx, DWORD PTR ?bhs@@3PAUHINSTANCE__@@A	; bhs
	push	OFFSET ??_C@_0BN@IEHLCHGD@RemoveVehiclePurchaseMonHook?$AA@
	push	edx
	mov	DWORD PTR ?RemovePowerupPurchaseMonHook@@3P6AXH@ZA, ebx ; RemovePowerupPurchaseMonHook
	call	esi
	mov	ebx, eax
	test	ebx, ebx
	jne	SHORT $LN278@Set_Script
	push	48					; 00000030H
	push	OFFSET ??_C@_0BN@IEHLCHGD@RemoveVehiclePurchaseMonHook?$AA@
	push	OFFSET ??_C@_0CM@MKMOBENL@Error?5getting?5function?5address?5f@
	push	eax
	call	edi
$LN278@Set_Script:

; 186  : 	RemoveCharacterPurchaseMonHook = (rph)Address(bhs,"RemoveCharacterPurchaseMonHook");

	mov	eax, DWORD PTR ?bhs@@3PAUHINSTANCE__@@A	; bhs
	push	OFFSET ??_C@_0BP@NICMHBK@RemoveCharacterPurchaseMonHook?$AA@
	push	eax
	mov	DWORD PTR ?RemoveVehiclePurchaseMonHook@@3P6AXH@ZA, ebx ; RemoveVehiclePurchaseMonHook
	call	esi
	mov	ebx, eax
	test	ebx, ebx
	jne	SHORT $LN281@Set_Script
	push	48					; 00000030H
	push	OFFSET ??_C@_0BP@NICMHBK@RemoveCharacterPurchaseMonHook?$AA@
	push	OFFSET ??_C@_0CM@MKMOBENL@Error?5getting?5function?5address?5f@
	push	eax
	call	edi
$LN281@Set_Script:

; 187  : 	Get_Build_Time_Multiplier = (gbm)Address(bhs,"Get_Build_Time_Multiplier");

	mov	ecx, DWORD PTR ?bhs@@3PAUHINSTANCE__@@A	; bhs
	push	OFFSET ??_C@_0BK@FFCPOFBA@Get_Build_Time_Multiplier?$AA@
	push	ecx
	mov	DWORD PTR ?RemoveCharacterPurchaseMonHook@@3P6AXH@ZA, ebx ; RemoveCharacterPurchaseMonHook
	call	esi
	mov	ebx, eax
	test	ebx, ebx
	jne	SHORT $LN284@Set_Script
	push	48					; 00000030H
	push	OFFSET ??_C@_0BK@FFCPOFBA@Get_Build_Time_Multiplier?$AA@
	push	OFFSET ??_C@_0CM@MKMOBENL@Error?5getting?5function?5address?5f@
	push	eax
	call	edi
$LN284@Set_Script:

; 188  : 	Set_Currently_Building = (scb)Address(bhs,"Set_Currently_Building");

	mov	edx, DWORD PTR ?bhs@@3PAUHINSTANCE__@@A	; bhs
	push	OFFSET ??_C@_0BH@NFHCMOHH@Set_Currently_Building?$AA@
	push	edx
	mov	DWORD PTR ?Get_Build_Time_Multiplier@@3P6AMH@ZA, ebx ; Get_Build_Time_Multiplier
	call	esi
	mov	ebx, eax
	test	ebx, ebx
	jne	SHORT $LN287@Set_Script
	push	48					; 00000030H
	push	OFFSET ??_C@_0BH@NFHCMOHH@Set_Currently_Building?$AA@
	push	OFFSET ??_C@_0CM@MKMOBENL@Error?5getting?5function?5address?5f@
	push	eax
	call	edi
$LN287@Set_Script:

; 189  : 	Is_Currently_Building = (icb)Address(bhs,"Is_Currently_Building");

	mov	eax, DWORD PTR ?bhs@@3PAUHINSTANCE__@@A	; bhs
	push	OFFSET ??_C@_0BG@HJDMFMAJ@Is_Currently_Building?$AA@
	push	eax
	mov	DWORD PTR ?Set_Currently_Building@@3P6AX_NH@ZA, ebx ; Set_Currently_Building
	call	esi
	mov	ebx, eax
	test	ebx, ebx
	jne	SHORT $LN290@Set_Script
	push	48					; 00000030H
	push	OFFSET ??_C@_0BG@HJDMFMAJ@Is_Currently_Building?$AA@
	push	OFFSET ??_C@_0CM@MKMOBENL@Error?5getting?5function?5address?5f@
	push	eax
	call	edi
$LN290@Set_Script:

; 190  : 	AddConsoleOutputHook = (acoh)Address(bhs,"AddConsoleOutputHook");

	mov	ecx, DWORD PTR ?bhs@@3PAUHINSTANCE__@@A	; bhs
	push	OFFSET ??_C@_0BF@JHNKODII@AddConsoleOutputHook?$AA@
	push	ecx
	mov	DWORD PTR ?Is_Currently_Building@@3P6A_NH@ZA, ebx ; Is_Currently_Building
	call	esi
	mov	ebx, eax
	test	ebx, ebx
	jne	SHORT $LN293@Set_Script
	push	48					; 00000030H
	push	OFFSET ??_C@_0BF@JHNKODII@AddConsoleOutputHook?$AA@
	push	OFFSET ??_C@_0CM@MKMOBENL@Error?5getting?5function?5address?5f@
	push	eax
	call	edi
$LN293@Set_Script:

; 191  : 	AddCRCHook = (acrch)Address(bhs,"AddCRCHook");

	mov	edx, DWORD PTR ?bhs@@3PAUHINSTANCE__@@A	; bhs
	push	OFFSET ??_C@_0L@OONHDGA@AddCRCHook?$AA@
	push	edx
	mov	DWORD PTR ?AddConsoleOutputHook@@3P6AXP6AXPBD@Z@ZA, ebx ; AddConsoleOutputHook
	call	esi
	mov	ebx, eax
	test	ebx, ebx
	jne	SHORT $LN296@Set_Script
	push	48					; 00000030H
	push	OFFSET ??_C@_0L@OONHDGA@AddCRCHook?$AA@
	push	OFFSET ??_C@_0CM@MKMOBENL@Error?5getting?5function?5address?5f@
	push	eax
	call	edi
$LN296@Set_Script:

; 192  : 	AddDataHook = (adh)Address(bhs,"AddDataHook");

	mov	eax, DWORD PTR ?bhs@@3PAUHINSTANCE__@@A	; bhs
	push	OFFSET ??_C@_0M@JNBJJDPK@AddDataHook?$AA@
	push	eax
	mov	DWORD PTR ?AddCRCHook@@3P6AXP6AXIH@Z@ZA, ebx ; AddCRCHook
	call	esi
	mov	ebx, eax
	test	ebx, ebx
	jne	SHORT $LN299@Set_Script
	push	48					; 00000030H
	push	OFFSET ??_C@_0M@JNBJJDPK@AddDataHook?$AA@
	push	OFFSET ??_C@_0CM@MKMOBENL@Error?5getting?5function?5address?5f@
	push	eax
	call	edi
$LN299@Set_Script:

; 193  : 	Set_Reticle_Texture1 = (srt)Address(bhs,"Set_Reticle_Texture1");

	mov	ecx, DWORD PTR ?bhs@@3PAUHINSTANCE__@@A	; bhs
	push	OFFSET ??_C@_0BF@IJDIAGHM@Set_Reticle_Texture1?$AA@
	push	ecx
	mov	DWORD PTR ?AddDataHook@@3P6AXP6AXHIPAI@Z@ZA, ebx ; AddDataHook
	call	esi
	mov	ebx, eax
	test	ebx, ebx
	jne	SHORT $LN302@Set_Script
	push	48					; 00000030H
	push	OFFSET ??_C@_0BF@IJDIAGHM@Set_Reticle_Texture1?$AA@
	push	OFFSET ??_C@_0CM@MKMOBENL@Error?5getting?5function?5address?5f@
	push	eax
	call	edi
$LN302@Set_Script:

; 194  : 	Set_Reticle_Texture2 = (srt)Address(bhs,"Set_Reticle_Texture2");

	mov	edx, DWORD PTR ?bhs@@3PAUHINSTANCE__@@A	; bhs
	push	OFFSET ??_C@_0BF@KCBFFFLP@Set_Reticle_Texture2?$AA@
	push	edx
	mov	DWORD PTR ?Set_Reticle_Texture1@@3P6AXPAEPBD@ZA, ebx ; Set_Reticle_Texture1
	call	esi
	mov	ebx, eax
	test	ebx, ebx
	jne	SHORT $LN305@Set_Script
	push	48					; 00000030H
	push	OFFSET ??_C@_0BF@KCBFFFLP@Set_Reticle_Texture2?$AA@
	push	OFFSET ??_C@_0CM@MKMOBENL@Error?5getting?5function?5address?5f@
	push	eax
	call	edi
$LN305@Set_Script:

; 195  : 	Set_Fog_Color = (sfc)Address(bhs,"New_Set_Fog_Color");

	mov	eax, DWORD PTR ?bhs@@3PAUHINSTANCE__@@A	; bhs
	push	OFFSET ??_C@_0BC@GCCMNPJK@New_Set_Fog_Color?$AA@
	push	eax
	mov	DWORD PTR ?Set_Reticle_Texture2@@3P6AXPAEPBD@ZA, ebx ; Set_Reticle_Texture2
	call	esi
	mov	ebx, eax
	test	ebx, ebx
	jne	SHORT $LN308@Set_Script
	push	48					; 00000030H
	push	OFFSET ??_C@_0BC@GCCMNPJK@New_Set_Fog_Color?$AA@
	push	OFFSET ??_C@_0CM@MKMOBENL@Error?5getting?5function?5address?5f@
	push	eax
	call	edi
$LN308@Set_Script:

; 196  : 	Set_Fog_Color_Player = (sfcp)Address(bhs,"Set_Fog_Color_Player");

	mov	ecx, DWORD PTR ?bhs@@3PAUHINSTANCE__@@A	; bhs
	push	OFFSET ??_C@_0BF@KHIDDEHK@Set_Fog_Color_Player?$AA@
	push	ecx
	mov	DWORD PTR ?Set_Fog_Color@@3P6AXIII@ZA, ebx ; Set_Fog_Color
	call	esi
	mov	ebx, eax
	test	ebx, ebx
	jne	SHORT $LN311@Set_Script
	push	48					; 00000030H
	push	OFFSET ??_C@_0BF@KHIDDEHK@Set_Fog_Color_Player?$AA@
	push	OFFSET ??_C@_0CM@MKMOBENL@Error?5getting?5function?5address?5f@
	push	eax
	call	edi
$LN311@Set_Script:

; 197  : 	Set_Fog_Mode = (sfm)Address(bhs,"New_Set_Fog_Mode");

	mov	edx, DWORD PTR ?bhs@@3PAUHINSTANCE__@@A	; bhs
	push	OFFSET ??_C@_0BB@EAFFCBP@New_Set_Fog_Mode?$AA@
	push	edx
	mov	DWORD PTR ?Set_Fog_Color_Player@@3P6AXPAEIII@ZA, ebx ; Set_Fog_Color_Player
	call	esi
	mov	ebx, eax
	test	ebx, ebx
	jne	SHORT $LN314@Set_Script
	push	48					; 00000030H
	push	OFFSET ??_C@_0BB@EAFFCBP@New_Set_Fog_Mode?$AA@
	push	OFFSET ??_C@_0CM@MKMOBENL@Error?5getting?5function?5address?5f@
	push	eax
	call	edi
$LN314@Set_Script:

; 198  : 	Set_Fog_Mode_Player = (sfmp)Address(bhs,"Set_Fog_Mode_Player");

	mov	eax, DWORD PTR ?bhs@@3PAUHINSTANCE__@@A	; bhs
	push	OFFSET ??_C@_0BE@KPNALHHL@Set_Fog_Mode_Player?$AA@
	push	eax
	mov	DWORD PTR ?Set_Fog_Mode@@3P6AXI@ZA, ebx	; Set_Fog_Mode
	call	esi
	mov	ebx, eax
	test	ebx, ebx
	jne	SHORT $LN317@Set_Script
	push	48					; 00000030H
	push	OFFSET ??_C@_0BE@KPNALHHL@Set_Fog_Mode_Player?$AA@
	push	OFFSET ??_C@_0CM@MKMOBENL@Error?5getting?5function?5address?5f@
	push	eax
	call	edi
$LN317@Set_Script:

; 199  : 	Set_Shader_Number = (ssn)Address(bhs,"Set_Shader_Number");

	mov	ecx, DWORD PTR ?bhs@@3PAUHINSTANCE__@@A	; bhs
	push	OFFSET ??_C@_0BC@GFPPEJCD@Set_Shader_Number?$AA@
	push	ecx
	mov	DWORD PTR ?Set_Fog_Mode_Player@@3P6AXPAEI@ZA, ebx ; Set_Fog_Mode_Player
	call	esi
	mov	ebx, eax
	test	ebx, ebx
	jne	SHORT $LN320@Set_Script
	push	48					; 00000030H
	push	OFFSET ??_C@_0BC@GFPPEJCD@Set_Shader_Number?$AA@
	push	OFFSET ??_C@_0CM@MKMOBENL@Error?5getting?5function?5address?5f@
	push	eax
	call	edi
$LN320@Set_Script:

; 200  : 	Set_Fog_Density = (sfd)Address(bhs,"New_Set_Fog_Density");

	mov	edx, DWORD PTR ?bhs@@3PAUHINSTANCE__@@A	; bhs
	push	OFFSET ??_C@_0BE@PBLCJAIL@New_Set_Fog_Density?$AA@
	push	edx
	mov	DWORD PTR ?Set_Shader_Number@@3P6AXPAEIM@ZA, ebx ; Set_Shader_Number
	call	esi
	mov	ebx, eax
	test	ebx, ebx
	jne	SHORT $LN323@Set_Script
	push	48					; 00000030H
	push	OFFSET ??_C@_0BE@PBLCJAIL@New_Set_Fog_Density?$AA@
	push	OFFSET ??_C@_0CM@MKMOBENL@Error?5getting?5function?5address?5f@
	push	eax
	call	edi
$LN323@Set_Script:

; 201  : 	Set_Fog_Density_Player = (sfdp)Address(bhs,"Set_Fog_Density_Player");

	mov	eax, DWORD PTR ?bhs@@3PAUHINSTANCE__@@A	; bhs
	push	OFFSET ??_C@_0BH@OHPNNHID@Set_Fog_Density_Player?$AA@
	push	eax
	mov	DWORD PTR ?Set_Fog_Density@@3P6AXM@ZA, ebx ; Set_Fog_Density
	call	esi
	mov	ebx, eax
	test	ebx, ebx
	jne	SHORT $LN326@Set_Script
	push	48					; 00000030H
	push	OFFSET ??_C@_0BH@OHPNNHID@Set_Fog_Density_Player?$AA@
	push	OFFSET ??_C@_0CM@MKMOBENL@Error?5getting?5function?5address?5f@
	push	eax
	call	edi
$LN326@Set_Script:

; 202  : 	Change_Time_Remaining = (ctr)Address(bhs,"New_Change_Time_Remaining");

	mov	ecx, DWORD PTR ?bhs@@3PAUHINSTANCE__@@A	; bhs
	push	OFFSET ??_C@_0BK@FGLGICLJ@New_Change_Time_Remaining?$AA@
	push	ecx
	mov	DWORD PTR ?Set_Fog_Density_Player@@3P6AXPAEM@ZA, ebx ; Set_Fog_Density_Player
	call	esi
	mov	ebx, eax
	test	ebx, ebx
	jne	SHORT $LN329@Set_Script
	push	48					; 00000030H
	push	OFFSET ??_C@_0BK@FGLGICLJ@New_Change_Time_Remaining?$AA@
	push	OFFSET ??_C@_0CM@MKMOBENL@Error?5getting?5function?5address?5f@
	push	eax
	call	edi
$LN329@Set_Script:

; 203  : 	Change_Time_Limit = (ctl)Address(bhs,"New_Change_Time_Limit");

	mov	edx, DWORD PTR ?bhs@@3PAUHINSTANCE__@@A	; bhs
	push	OFFSET ??_C@_0BG@OOEEFDBO@New_Change_Time_Limit?$AA@
	push	edx
	mov	DWORD PTR ?Change_Time_Remaining@@3P6AXM@ZA, ebx ; Change_Time_Remaining
	call	esi
	mov	ebx, eax
	test	ebx, ebx
	jne	SHORT $LN332@Set_Script
	push	48					; 00000030H
	push	OFFSET ??_C@_0BG@OOEEFDBO@New_Change_Time_Limit?$AA@
	push	OFFSET ??_C@_0CM@MKMOBENL@Error?5getting?5function?5address?5f@
	push	eax
	call	edi
$LN332@Set_Script:

; 204  : 	Display_GDI_Sidebar = (dps)Address(bhs,"Display_GDI_Sidebar");

	mov	eax, DWORD PTR ?bhs@@3PAUHINSTANCE__@@A	; bhs
	push	OFFSET ??_C@_0BE@FJOCJKNG@Display_GDI_Sidebar?$AA@
	push	eax
	mov	DWORD PTR ?Change_Time_Limit@@3P6AXH@ZA, ebx ; Change_Time_Limit
	call	esi
	mov	ebx, eax
	test	ebx, ebx
	jne	SHORT $LN335@Set_Script
	push	48					; 00000030H
	push	OFFSET ??_C@_0BE@FJOCJKNG@Display_GDI_Sidebar?$AA@
	push	OFFSET ??_C@_0CM@MKMOBENL@Error?5getting?5function?5address?5f@
	push	eax
	call	edi
$LN335@Set_Script:

; 205  : 	Display_NOD_Sidebar = (dps)Address(bhs,"Display_NOD_Sidebar");

	mov	ecx, DWORD PTR ?bhs@@3PAUHINSTANCE__@@A	; bhs
	push	OFFSET ??_C@_0BE@BCJEKMLD@Display_NOD_Sidebar?$AA@
	push	ecx
	mov	DWORD PTR ?Display_GDI_Sidebar@@3P6AXPAE@ZA, ebx ; Display_GDI_Sidebar
	call	esi
	mov	ebx, eax
	test	ebx, ebx
	jne	SHORT $LN338@Set_Script
	push	48					; 00000030H
	push	OFFSET ??_C@_0BE@BCJEKMLD@Display_NOD_Sidebar?$AA@
	push	OFFSET ??_C@_0CM@MKMOBENL@Error?5getting?5function?5address?5f@
	push	eax
	call	edi
$LN338@Set_Script:

; 206  : 	Display_Security_Dialog = (dps)Address(bhs,"Display_Security_Dialog");

	mov	edx, DWORD PTR ?bhs@@3PAUHINSTANCE__@@A	; bhs
	push	OFFSET ??_C@_0BI@KABJNJEM@Display_Security_Dialog?$AA@
	push	edx
	mov	DWORD PTR ?Display_NOD_Sidebar@@3P6AXPAE@ZA, ebx ; Display_NOD_Sidebar
	call	esi
	mov	ebx, eax
	test	ebx, ebx
	jne	SHORT $LN341@Set_Script
	push	48					; 00000030H
	push	OFFSET ??_C@_0BI@KABJNJEM@Display_Security_Dialog?$AA@
	push	OFFSET ??_C@_0CM@MKMOBENL@Error?5getting?5function?5address?5f@
	push	eax
	call	edi
$LN341@Set_Script:

; 207  : 	AddPlayerLeaveHook = (aplh)Address(bhs,"AddPlayerLeaveHook");

	mov	eax, DWORD PTR ?bhs@@3PAUHINSTANCE__@@A	; bhs
	push	OFFSET ??_C@_0BD@DBPLMLLJ@AddPlayerLeaveHook?$AA@
	push	eax
	mov	DWORD PTR ?Display_Security_Dialog@@3P6AXPAE@ZA, ebx ; Display_Security_Dialog
	call	esi
	mov	ebx, eax
	test	ebx, ebx
	jne	SHORT $LN344@Set_Script
	push	48					; 00000030H
	push	OFFSET ??_C@_0BD@DBPLMLLJ@AddPlayerLeaveHook?$AA@
	push	OFFSET ??_C@_0CM@MKMOBENL@Error?5getting?5function?5address?5f@
	push	eax
	call	edi
$LN344@Set_Script:

; 208  : 	GetExplosionObj = (geo)Address(bhs,"GetExplosionObj");

	mov	ecx, DWORD PTR ?bhs@@3PAUHINSTANCE__@@A	; bhs
	push	OFFSET ??_C@_0BA@ICBJGPDH@GetExplosionObj?$AA@
	push	ecx
	mov	DWORD PTR ?AddPlayerLeaveHook@@3P6AXP6AXH@Z@ZA, ebx ; AddPlayerLeaveHook
	call	esi
	mov	esi, eax
	test	esi, esi
	jne	SHORT $LN347@Set_Script
	push	48					; 00000030H
	push	OFFSET ??_C@_0BA@ICBJGPDH@GetExplosionObj?$AA@
	push	OFFSET ??_C@_0CM@MKMOBENL@Error?5getting?5function?5address?5f@
	push	eax
	call	edi
$LN347@Set_Script:
	mov	DWORD PTR ?GetExplosionObj@@3P6APAEXZA, esi ; GetExplosionObj

; 209  : 
; 210  : 	Plugin_Load();

	call	?Plugin_Load@@YAXXZ			; Plugin_Load
	pop	edi
	pop	esi

; 211  : 
; 212  : 	return true;

	mov	al, 1
	pop	ebx

; 213  : }

	ret	0
$LN1@Set_Script:

; 91   : 	{
; 92   : 		return false;

	xor	al, al

; 213  : }

	ret	0
_Set_Script_Commands ENDP
PUBLIC	_SSGM_Plugin_Load
; Function compile flags: /Ogtpy
;	COMDAT _SSGM_Plugin_Load
_TEXT	SEGMENT
_BHS$ = 8						; size = 4
_SSGM_Settings$ = 12					; size = 4
_SSGM_Data$ = 16					; size = 4
_SSGM_Version$ = 20					; size = 4
_Info$ = 24						; size = 4
_SSGM_Plugin_Load PROC					; COMDAT

; 234  : __declspec(dllexport) void SSGM_Plugin_Load(HMODULE BHS,SettingsStruct *SSGM_Settings,DataStruct *SSGM_Data,const char *SSGM_Version,PluginInfo *Info) {

	push	esi

; 235  : #else 
; 236  : void SSGM_Plugin_Load(void *BHS,SettingsStruct *SSGM_Settings,DataStruct *SSGM_Data,const char *SSGM_Version,PluginInfo *Info) {
; 237  : #ifdef RH8
; 238  : 	Exe = 3;
; 239  : #else
; 240  : 	Exe = 2;
; 241  : #endif
; 242  : 	InitEngine();
; 243  : 	InitEngineSSGM();
; 244  : #endif
; 245  : 
; 246  : 	//These are defined in plugin.h by default
; 247  : 	Info->Name = PluginName;

	mov	esi, DWORD PTR _Info$[esp]
	push	14					; 0000000eH
	push	OFFSET ??_C@_0P@MANNNKAF@Example?5Plugin?$AA@
	lea	ecx, DWORD PTR [esi+4]
	call	?assign@?$basic_string@DU?$char_traits@D@std@@V?$allocator@D@2@@std@@QAEAAV12@PBDI@Z ; std::basic_string<char,std::char_traits<char>,std::allocator<char> >::assign

; 248  : 	Info->Version = PluginVersion;

	push	3
	push	OFFSET ??_C@_03NKBOLEBK@0?41?$AA@
	lea	ecx, DWORD PTR [esi+36]
	call	?assign@?$basic_string@DU?$char_traits@D@std@@V?$allocator@D@2@@std@@QAEAAV12@PBDI@Z ; std::basic_string<char,std::char_traits<char>,std::allocator<char> >::assign

; 249  : 
; 250  : 	bhs = BHS;

	mov	eax, DWORD PTR _BHS$[esp]

; 251  : 	Settings = SSGM_Settings;

	mov	ecx, DWORD PTR _SSGM_Settings$[esp]
	mov	DWORD PTR ?bhs@@3PAUHINSTANCE__@@A, eax	; bhs

; 252  : 	Data = SSGM_Data;
; 253  : 
; 254  : 	//Add our chat commands to the master list
; 255  : 	if (ChatCommandList::List) {

	mov	eax, DWORD PTR ?List@ChatCommandList@@2PAV?$vector@PAUChatCommandInfo@@V?$allocator@PAUChatCommandInfo@@@std@@@std@@A ; ChatCommandList::List
	mov	DWORD PTR ?Settings@@3PAUSettingsStruct@@A, ecx ; Settings
	mov	ecx, DWORD PTR _SSGM_Data$[esp]
	mov	DWORD PTR ?Data@@3PAUDataStruct@@A, ecx	; Data
	pop	esi
	test	eax, eax
	je	SHORT $LN1@SSGM_Plugi@2

; 256  : 		Data->Copy_Chat_Commands(ChatCommandList::List);

	mov	edx, DWORD PTR [ecx]
	push	eax
	mov	eax, DWORD PTR [edx+8]
	call	eax
$LN1@SSGM_Plugi@2:

; 257  : 	}
; 258  : }

	ret	0
_SSGM_Plugin_Load ENDP
_TEXT	ENDS
PUBLIC	_SSGM_Check_Version
; Function compile flags: /Ogtpy
;	COMDAT _SSGM_Check_Version
_TEXT	SEGMENT
_SSGM_Version$ = 8					; size = 4
_Info$ = 12						; size = 4
_SSGM_Check_Version PROC				; COMDAT

; 224  : SCRIPTSAPI bool SSGM_Check_Version(const char *SSGM_Version,PluginInfo *Info) {

	push	esi

; 225  : 	Info->SSGMVer = SSGMVersion; //Version of SSGM that the plugin is based off of

	mov	esi, DWORD PTR _Info$[esp]
	push	5
	push	OFFSET ??_C@_05FGPGKOKF@2?40?42?$AA@
	lea	ecx, DWORD PTR [esi+64]
	call	?assign@?$basic_string@DU?$char_traits@D@std@@V?$allocator@D@2@@std@@QAEAAV12@PBDI@Z ; std::basic_string<char,std::char_traits<char>,std::allocator<char> >::assign

; 226  : 	Info->SSGMVerRequired = false; //Should this plugin only be allowed to work with this version of SSGM?

	mov	BYTE PTR [esi+92], 0

; 227  : 	return true;

	mov	al, 1
	pop	esi

; 228  : }

	ret	0
_SSGM_Check_Version ENDP
END
