; Listing generated by Microsoft (R) Optimizing Compiler Version 15.00.30729.01 

	TITLE	c:\Users\Admin\Desktop\Projects\SEye_Server\engine_game.cpp
	.686P
	.XMM
	include listing.inc
	.model	flat

INCLUDELIB OLDNAMES

PUBLIC	?SetCanGenerateVehicles@@3PAXA			; SetCanGenerateVehicles
PUBLIC	?Collect_Building_Components@@3P6AXXZA		; Collect_Building_Components
PUBLIC	?FindBase@@3PAXA				; FindBase
PUBLIC	?PublicMessageColor@@3PAMA			; PublicMessageColor
PUBLIC	?GameType@@3PAHA				; GameType
PUBLIC	?Cnc_Game@@3PAXA				; Cnc_Game
PUBLIC	?SetCanGenerateSoldiers@@3PAXA			; SetCanGenerateSoldiers
PUBLIC	?Game_Mode_Find@@3P6APAXPBD@ZA			; Game_Mode_Find
PUBLIC	?PowerBase@@3PAXA				; PowerBase
PUBLIC	?GameMode@@3PAIA				; GameMode
PUBLIC	?GetHarvester@@3PAXA				; GetHarvester
PUBLIC	?IsMapVTOL@@3PA_NA				; IsMapVTOL
PUBLIC	?NodHouseColor@@3PAMA				; NodHouseColor
PUBLIC	?Game@@3PAXA					; Game
PUBLIC	?PrivateMessageColor@@3PAMA			; PrivateMessageColor
PUBLIC	?SetBeaconDestroyedBase@@3PAXA			; SetBeaconDestroyedBase
PUBLIC	?Single_Player_Game@@3PAXA			; Single_Player_Game
PUBLIC	?GDIHouseColor@@3PAMA				; GDIHouseColor
PUBLIC	?DestroyBase@@3PAXA				; DestroyBase
PUBLIC	?Skirmish_Game@@3PAXA				; Skirmish_Game
PUBLIC	?IsListed@@3PA_NA				; IsListed
PUBLIC	?FindBuilding@@3PAXA				; FindBuilding
PUBLIC	?EnableRadar@@3PAXA				; EnableRadar
PUBLIC	??_C@_03KPGLNNAM@WOL?$AA@			; `string'
PUBLIC	??_C@_03BANLECBK@LAN?$AA@			; `string'
EXTRN	__stricmp:PROC
?SetCanGenerateVehicles@@3PAXA DD 01H DUP (?)		; SetCanGenerateVehicles
?Collect_Building_Components@@3P6AXXZA DD 01H DUP (?)	; Collect_Building_Components
?FindBase@@3PAXA DD 01H DUP (?)				; FindBase
?PublicMessageColor@@3PAMA DD 01H DUP (?)		; PublicMessageColor
?GameType@@3PAHA DD 01H DUP (?)				; GameType
?Cnc_Game@@3PAXA DD 01H DUP (?)				; Cnc_Game
?SetCanGenerateSoldiers@@3PAXA DD 01H DUP (?)		; SetCanGenerateSoldiers
?Game_Mode_Find@@3P6APAXPBD@ZA DD 01H DUP (?)		; Game_Mode_Find
?PowerBase@@3PAXA DD 01H DUP (?)			; PowerBase
?GameMode@@3PAIA DD 01H DUP (?)				; GameMode
?GetHarvester@@3PAXA DD 01H DUP (?)			; GetHarvester
?IsMapVTOL@@3PA_NA DD 01H DUP (?)			; IsMapVTOL
?NodHouseColor@@3PAMA DD 01H DUP (?)			; NodHouseColor
?Game@@3PAXA DD	01H DUP (?)				; Game
?PrivateMessageColor@@3PAMA DD 01H DUP (?)		; PrivateMessageColor
?SetBeaconDestroyedBase@@3PAXA DD 01H DUP (?)		; SetBeaconDestroyedBase
?Single_Player_Game@@3PAXA DD 01H DUP (?)		; Single_Player_Game
?GDIHouseColor@@3PAMA DD 01H DUP (?)			; GDIHouseColor
?DestroyBase@@3PAXA DD 01H DUP (?)			; DestroyBase
?Skirmish_Game@@3PAXA DD 01H DUP (?)			; Skirmish_Game
?IsListed@@3PA_NA DD 01H DUP (?)			; IsListed
?FindBuilding@@3PAXA DD 01H DUP (?)			; FindBuilding
?EnableRadar@@3PAXA DD 01H DUP (?)			; EnableRadar
;	COMDAT ??_C@_03BANLECBK@LAN?$AA@
CONST	SEGMENT
??_C@_03BANLECBK@LAN?$AA@ DB 'LAN', 00H			; `string'
CONST	ENDS
;	COMDAT ??_C@_03KPGLNNAM@WOL?$AA@
CONST	SEGMENT
??_C@_03KPGLNNAM@WOL?$AA@ DB 'WOL', 00H			; `string'
PUBLIC	?InitEngineGame@@YAXI@Z				; InitEngineGame
; Function compile flags: /Ogtpy
; File c:\users\admin\desktop\projects\seye_server\engine_game.cpp
;	COMDAT ?InitEngineGame@@YAXI@Z
_TEXT	SEGMENT
?InitEngineGame@@YAXI@Z PROC				; InitEngineGame, COMDAT

; 85   : {

	mov	eax, DWORD PTR ?Exe@@3HA		; Exe

; 86   : 	switch(exe)

	cmp	eax, 3
	ja	$LN1@InitEngine@12
	jmp	DWORD PTR $LN10@InitEngine@12[eax*4]
$LN5@InitEngine@12:

; 87   : 	{
; 88   : 		case 0: //game.exe
; 89   : 			Game = (void *)0x00477CA0;

	mov	DWORD PTR ?Game@@3PAXA, 4684960		; Game, 00477ca0H

; 90   : 			FindBase = (void *)0x006EF790;

	mov	DWORD PTR ?FindBase@@3PAXA, 7272336	; FindBase, 006ef790H

; 91   : 			GetHarvester = (void *)0x006EFD60;

	mov	DWORD PTR ?GetHarvester@@3PAXA, 7273824	; GetHarvester, 006efd60H

; 92   : 			PowerBase = (void *)0x006EF310;

	mov	DWORD PTR ?PowerBase@@3PAXA, 7271184	; PowerBase, 006ef310H

; 93   : 			SetCanGenerateSoldiers = (void *)0x006EF420;

	mov	DWORD PTR ?SetCanGenerateSoldiers@@3PAXA, 7271456 ; SetCanGenerateSoldiers, 006ef420H

; 94   : 			SetCanGenerateVehicles = (void *)0x006EF440;

	mov	DWORD PTR ?SetCanGenerateVehicles@@3PAXA, 7271488 ; SetCanGenerateVehicles, 006ef440H

; 95   : 			DestroyBase = (void *)0x006EF840;

	mov	DWORD PTR ?DestroyBase@@3PAXA, 7272512	; DestroyBase, 006ef840H

; 96   : 			SetBeaconDestroyedBase = (void *)0x006EF8D0;

	mov	DWORD PTR ?SetBeaconDestroyedBase@@3PAXA, 7272656 ; SetBeaconDestroyedBase, 006ef8d0H

; 97   : 			EnableRadar = (void *)0x006EFD00;

	mov	DWORD PTR ?EnableRadar@@3PAXA, 7273728	; EnableRadar, 006efd00H

; 98   : 			FindBuilding = (void *)0x006EF6D0;

	mov	DWORD PTR ?FindBuilding@@3PAXA, 7272144	; FindBuilding, 006ef6d0H

; 99   : 			Skirmish_Game = (void *)0x00477CC0;

	mov	DWORD PTR ?Skirmish_Game@@3PAXA, 4684992 ; Skirmish_Game, 00477cc0H

; 100  : 			Cnc_Game = (void *)0x00477CD0;

	mov	DWORD PTR ?Cnc_Game@@3PAXA, 4685008	; Cnc_Game, 00477cd0H

; 101  : 			Single_Player_Game = (void *)0x00477CB0;

	mov	DWORD PTR ?Single_Player_Game@@3PAXA, 4684976 ; Single_Player_Game, 00477cb0H

; 102  : 			IsMapVTOL = (bool *)0x0085E31C;

	mov	DWORD PTR ?IsMapVTOL@@3PA_NA, 8774428	; IsMapVTOL, 0085e31cH

; 103  : 			Collect_Building_Components = (cbc)0x006843E0;

	mov	DWORD PTR ?Collect_Building_Components@@3P6AXXZA, 6833120 ; Collect_Building_Components, 006843e0H

; 104  : 			GameMode = (unsigned int *)0x0081F5F0;

	mov	DWORD PTR ?GameMode@@3PAIA, 8517104	; GameMode, 0081f5f0H

; 105  : 			PrivateMessageColor = (float *)0x0082FC20;

	mov	DWORD PTR ?PrivateMessageColor@@3PAMA, 8584224 ; PrivateMessageColor, 0082fc20H

; 106  : 			PublicMessageColor = (float *)0x0082FBA0;

	mov	DWORD PTR ?PublicMessageColor@@3PAMA, 8584096 ; PublicMessageColor, 0082fba0H

; 107  : 			GDIHouseColor = (float *)0x0085CAA8;

	mov	DWORD PTR ?GDIHouseColor@@3PAMA, 8768168 ; GDIHouseColor, 0085caa8H

; 108  : 			NodHouseColor = (float *)0x0085CA98;

	mov	DWORD PTR ?NodHouseColor@@3PAMA, 8768152 ; NodHouseColor, 0085ca98H

; 109  : 			GameType = (int *)0x00856518;

	mov	DWORD PTR ?GameType@@3PAHA, 8742168	; GameType, 00856518H

; 110  : 			IsListed = (bool *)0x0082FD94;

	mov	DWORD PTR ?IsListed@@3PA_NA, 8584596	; IsListed, 0082fd94H

; 111  : 			Game_Mode_Find = (GameModeFind)0x004372B0;

	mov	DWORD PTR ?Game_Mode_Find@@3P6APAXPBD@ZA, 4420272 ; Game_Mode_Find, 004372b0H

; 212  : 			break;
; 213  : 	}
; 214  : }

	ret	0
$LN4@InitEngine@12:

; 112  : 			break;
; 113  : 		case 1: //server.dat
; 114  : 			Game = (void *)0x00477370;

	mov	DWORD PTR ?Game@@3PAXA, 4682608		; Game, 00477370H

; 115  : 			FindBase = (void *)0x006EED50;

	mov	DWORD PTR ?FindBase@@3PAXA, 7269712	; FindBase, 006eed50H

; 116  : 			GetHarvester = (void *)0x006EF320;

	mov	DWORD PTR ?GetHarvester@@3PAXA, 7271200	; GetHarvester, 006ef320H

; 117  : 			PowerBase = (void *)0x006EE8D0;

	mov	DWORD PTR ?PowerBase@@3PAXA, 7268560	; PowerBase, 006ee8d0H

; 118  : 			SetCanGenerateSoldiers = (void *)0x006EE9E0;

	mov	DWORD PTR ?SetCanGenerateSoldiers@@3PAXA, 7268832 ; SetCanGenerateSoldiers, 006ee9e0H

; 119  : 			SetCanGenerateVehicles = (void *)0x006EEA00;

	mov	DWORD PTR ?SetCanGenerateVehicles@@3PAXA, 7268864 ; SetCanGenerateVehicles, 006eea00H

; 120  : 			DestroyBase = (void *)0x006EEE00;

	mov	DWORD PTR ?DestroyBase@@3PAXA, 7269888	; DestroyBase, 006eee00H

; 121  : 			SetBeaconDestroyedBase = (void *)0x006EEE90;

	mov	DWORD PTR ?SetBeaconDestroyedBase@@3PAXA, 7270032 ; SetBeaconDestroyedBase, 006eee90H

; 122  : 			EnableRadar = (void *)0x006EF2C0;

	mov	DWORD PTR ?EnableRadar@@3PAXA, 7271104	; EnableRadar, 006ef2c0H

; 123  : 			FindBuilding = (void *)0x006EEC90;

	mov	DWORD PTR ?FindBuilding@@3PAXA, 7269520	; FindBuilding, 006eec90H

; 124  : 			Skirmish_Game = (void *)0x00477390;

	mov	DWORD PTR ?Skirmish_Game@@3PAXA, 4682640 ; Skirmish_Game, 00477390H

; 125  : 			Cnc_Game = (void *)0x004773A0;

	mov	DWORD PTR ?Cnc_Game@@3PAXA, 4682656	; Cnc_Game, 004773a0H

; 126  : 			Single_Player_Game = (void *)0x00477380;

	mov	DWORD PTR ?Single_Player_Game@@3PAXA, 4682624 ; Single_Player_Game, 00477380H

; 127  : 			IsMapVTOL = (bool *)0x0085D4F4;

	mov	DWORD PTR ?IsMapVTOL@@3PA_NA, 8770804	; IsMapVTOL, 0085d4f4H

; 128  : 			Collect_Building_Components = (cbc)0x00683C80;

	mov	DWORD PTR ?Collect_Building_Components@@3P6AXXZA, 6831232 ; Collect_Building_Components, 00683c80H

; 129  : 			GameMode = (unsigned int *)0x0081E7D8;

	mov	DWORD PTR ?GameMode@@3PAIA, 8513496	; GameMode, 0081e7d8H

; 130  : 			PrivateMessageColor = (float *)0x0082EE08;

	mov	DWORD PTR ?PrivateMessageColor@@3PAMA, 8580616 ; PrivateMessageColor, 0082ee08H

; 131  : 			PublicMessageColor = (float *)0x0082ED88;

	mov	DWORD PTR ?PublicMessageColor@@3PAMA, 8580488 ; PublicMessageColor, 0082ed88H

; 132  : 			GDIHouseColor = (float *)0x0085BC90;

	mov	DWORD PTR ?GDIHouseColor@@3PAMA, 8764560 ; GDIHouseColor, 0085bc90H

; 133  : 			NodHouseColor = (float *)0x0085BC80;

	mov	DWORD PTR ?NodHouseColor@@3PAMA, 8764544 ; NodHouseColor, 0085bc80H

; 134  : 			GameType = (int *)0x00855700;

	mov	DWORD PTR ?GameType@@3PAHA, 8738560	; GameType, 00855700H

; 135  : 			IsListed = (bool *)0x0082EF7C;

	mov	DWORD PTR ?IsListed@@3PA_NA, 8580988	; IsListed, 0082ef7cH

; 136  : 			Game_Mode_Find = (GameModeFind)0x00437350;

	mov	DWORD PTR ?Game_Mode_Find@@3P6APAXPBD@ZA, 4420432 ; Game_Mode_Find, 00437350H

; 212  : 			break;
; 213  : 	}
; 214  : }

	ret	0
$LN3@InitEngine@12:

; 137  : 			break;
; 138  : 		case 2: //RH73
; 139  : 			Game = (void *)0x0807CCD0;

	mov	DWORD PTR ?Game@@3PAXA, 134728912	; Game, 0807ccd0H

; 140  : 			FindBase = (void *)0x080ED660;

	mov	DWORD PTR ?FindBase@@3PAXA, 135190112	; FindBase, 080ed660H

; 141  : 			GetHarvester = (void *)0x080EDB54;

	mov	DWORD PTR ?GetHarvester@@3PAXA, 135191380 ; GetHarvester, 080edb54H

; 142  : 			PowerBase = (void *)0x080ED15C;

	mov	DWORD PTR ?PowerBase@@3PAXA, 135188828	; PowerBase, 080ed15cH

; 143  : 			SetCanGenerateSoldiers = (void *)0x080ED28C;

	mov	DWORD PTR ?SetCanGenerateSoldiers@@3PAXA, 135189132 ; SetCanGenerateSoldiers, 080ed28cH

; 144  : 			SetCanGenerateVehicles = (void *)0x080ED2B0;

	mov	DWORD PTR ?SetCanGenerateVehicles@@3PAXA, 135189168 ; SetCanGenerateVehicles, 080ed2b0H

; 145  : 			DestroyBase = (void *)0x080ED720;

	mov	DWORD PTR ?DestroyBase@@3PAXA, 135190304 ; DestroyBase, 080ed720H

; 146  : 			SetBeaconDestroyedBase = (void *)0x080ED7B8;

	mov	DWORD PTR ?SetBeaconDestroyedBase@@3PAXA, 135190456 ; SetBeaconDestroyedBase, 080ed7b8H

; 147  : 			EnableRadar = (void *)0x080EDABC;

	mov	DWORD PTR ?EnableRadar@@3PAXA, 135191228 ; EnableRadar, 080edabcH

; 148  : 			FindBuilding = (void *)0x080ED548;

	mov	DWORD PTR ?FindBuilding@@3PAXA, 135189832 ; FindBuilding, 080ed548H

; 149  : 			Skirmish_Game = (void *)0x0807CCF0;

	mov	DWORD PTR ?Skirmish_Game@@3PAXA, 134728944 ; Skirmish_Game, 0807ccf0H

; 150  : 			Cnc_Game = (void *)0x0807CD08;

	mov	DWORD PTR ?Cnc_Game@@3PAXA, 134728968	; Cnc_Game, 0807cd08H

; 151  : 			Single_Player_Game = (void *)0x0807CCD8;

	mov	DWORD PTR ?Single_Player_Game@@3PAXA, 134728920 ; Single_Player_Game, 0807ccd8H

; 152  : 			IsMapVTOL = (bool *)0x086C9D94;

	mov	DWORD PTR ?IsMapVTOL@@3PA_NA, 141335956	; IsMapVTOL, 086c9d94H

; 153  : 			Collect_Building_Components = (cbc)0x080F55C4;

	mov	DWORD PTR ?Collect_Building_Components@@3P6AXXZA, 135222724 ; Collect_Building_Components, 080f55c4H

; 154  : 			GameMode = (unsigned int *)0x086C4A30;

	mov	DWORD PTR ?GameMode@@3PAIA, 141314608	; GameMode, 086c4a30H

; 155  : 			PrivateMessageColor = (float *)0x08B9B18C;

	mov	DWORD PTR ?PrivateMessageColor@@3PAMA, 146387340 ; PrivateMessageColor, 08b9b18cH

; 156  : 			PublicMessageColor = (float *)0x08B9B180;

	mov	DWORD PTR ?PublicMessageColor@@3PAMA, 146387328 ; PublicMessageColor, 08b9b180H

; 157  : 			GDIHouseColor = (float *)0x08B9FA40;

	mov	DWORD PTR ?GDIHouseColor@@3PAMA, 146405952 ; GDIHouseColor, 08b9fa40H

; 158  : 			NodHouseColor = (float *)0x08B9FA34;

	mov	DWORD PTR ?NodHouseColor@@3PAMA, 146405940 ; NodHouseColor, 08b9fa34H

; 159  : 			GameType = (int *)0x086C8F78;

	mov	DWORD PTR ?GameType@@3PAHA, 141332344	; GameType, 086c8f78H

; 160  : 			IsListed = (bool *)0x086C2BA8;

	mov	DWORD PTR ?IsListed@@3PA_NA, 141306792	; IsListed, 086c2ba8H

; 161  : 			Game_Mode_Find = (GameModeFind)0x0807FC90;

	mov	DWORD PTR ?Game_Mode_Find@@3P6APAXPBD@ZA, 134741136 ; Game_Mode_Find, 0807fc90H

; 212  : 			break;
; 213  : 	}
; 214  : }

	ret	0
$LN2@InitEngine@12:

; 162  : 			break;
; 163  : 		case 3: //RH8
; 164  : 			Game = (void *)0x0807C7A8;

	mov	DWORD PTR ?Game@@3PAXA, 134727592	; Game, 0807c7a8H

; 165  : 			FindBase = (void *)0x080E2D3A;

	mov	DWORD PTR ?FindBase@@3PAXA, 135146810	; FindBase, 080e2d3aH

; 166  : 			GetHarvester = (void *)0x080E322C;

	mov	DWORD PTR ?GetHarvester@@3PAXA, 135148076 ; GetHarvester, 080e322cH

; 167  : 			PowerBase = (void *)0x080E28C8;

	mov	DWORD PTR ?PowerBase@@3PAXA, 135145672	; PowerBase, 080e28c8H

; 168  : 			SetCanGenerateSoldiers = (void *)0x080E29EE;

	mov	DWORD PTR ?SetCanGenerateSoldiers@@3PAXA, 135145966 ; SetCanGenerateSoldiers, 080e29eeH

; 169  : 			SetCanGenerateVehicles = (void *)0x080E2A0E;

	mov	DWORD PTR ?SetCanGenerateVehicles@@3PAXA, 135145998 ; SetCanGenerateVehicles, 080e2a0eH

; 170  : 			DestroyBase = (void *)0x080E2DEA;

	mov	DWORD PTR ?DestroyBase@@3PAXA, 135146986 ; DestroyBase, 080e2deaH

; 171  : 			SetBeaconDestroyedBase = (void *)0x080E2E78;

	mov	DWORD PTR ?SetBeaconDestroyedBase@@3PAXA, 135147128 ; SetBeaconDestroyedBase, 080e2e78H

; 172  : 			EnableRadar = (void *)0x080E319A;

	mov	DWORD PTR ?EnableRadar@@3PAXA, 135147930 ; EnableRadar, 080e319aH

; 173  : 			FindBuilding = (void *)0x080E2C52;

	mov	DWORD PTR ?FindBuilding@@3PAXA, 135146578 ; FindBuilding, 080e2c52H

; 174  : 			Skirmish_Game = (void *)0x0807C7C2;

	mov	DWORD PTR ?Skirmish_Game@@3PAXA, 134727618 ; Skirmish_Game, 0807c7c2H

; 175  : 			Cnc_Game = (void *)0x0807C7D6;

	mov	DWORD PTR ?Cnc_Game@@3PAXA, 134727638	; Cnc_Game, 0807c7d6H

; 176  : 			Single_Player_Game = (void *)0x0807C7AE;

	mov	DWORD PTR ?Single_Player_Game@@3PAXA, 134727598 ; Single_Player_Game, 0807c7aeH

; 177  : 			IsMapVTOL = (bool *)0x085F1554;

	mov	DWORD PTR ?IsMapVTOL@@3PA_NA, 140449108	; IsMapVTOL, 085f1554H

; 178  : 			Collect_Building_Components = (cbc)0x080EA1F2;

	mov	DWORD PTR ?Collect_Building_Components@@3P6AXXZA, 135176690 ; Collect_Building_Components, 080ea1f2H

; 179  : 			GameMode = (unsigned int *)0x085EBB70;

	mov	DWORD PTR ?GameMode@@3PAIA, 140426096	; GameMode, 085ebb70H

; 180  : 			PrivateMessageColor = (float *)0x089A36F4;

	mov	DWORD PTR ?PrivateMessageColor@@3PAMA, 144324340 ; PrivateMessageColor, 089a36f4H

; 181  : 			PublicMessageColor = (float *)0x089A36E8;

	mov	DWORD PTR ?PublicMessageColor@@3PAMA, 144324328 ; PublicMessageColor, 089a36e8H

; 182  : 			GDIHouseColor = (float *)0x089A8398;

	mov	DWORD PTR ?GDIHouseColor@@3PAMA, 144343960 ; GDIHouseColor, 089a8398H

; 183  : 			NodHouseColor = (float *)0x089A838C;

	mov	DWORD PTR ?NodHouseColor@@3PAMA, 144343948 ; NodHouseColor, 089a838cH

; 184  : 			GameType = (int *)0x085F0670;

	mov	DWORD PTR ?GameType@@3PAHA, 140445296	; GameType, 085f0670H

; 185  : 			IsListed = (bool *)0x085E9AB8;

	mov	DWORD PTR ?IsListed@@3PA_NA, 140417720	; IsListed, 085e9ab8H

; 186  : 			Game_Mode_Find = (GameModeFind)0x0807F36A;

	mov	DWORD PTR ?Game_Mode_Find@@3P6APAXPBD@ZA, 134738794 ; Game_Mode_Find, 0807f36aH

; 212  : 			break;
; 213  : 	}
; 214  : }

	ret	0
$LN1@InitEngine@12:

; 187  : 			break;
; 188  : 		default:
; 189  : 			Game = (void *)0;

	xor	eax, eax
	mov	DWORD PTR ?Game@@3PAXA, eax		; Game

; 190  : 			FindBase = (void *)0;

	mov	DWORD PTR ?FindBase@@3PAXA, eax		; FindBase

; 191  : 			GetHarvester = (void *)0;

	mov	DWORD PTR ?GetHarvester@@3PAXA, eax	; GetHarvester

; 192  : 			PowerBase = (void *)0;

	mov	DWORD PTR ?PowerBase@@3PAXA, eax	; PowerBase

; 193  : 			SetCanGenerateSoldiers = (void *)0;

	mov	DWORD PTR ?SetCanGenerateSoldiers@@3PAXA, eax ; SetCanGenerateSoldiers

; 194  : 			SetCanGenerateVehicles = (void *)0;

	mov	DWORD PTR ?SetCanGenerateVehicles@@3PAXA, eax ; SetCanGenerateVehicles

; 195  : 			DestroyBase = (void *)0;

	mov	DWORD PTR ?DestroyBase@@3PAXA, eax	; DestroyBase

; 196  : 			SetBeaconDestroyedBase = (void *)0;

	mov	DWORD PTR ?SetBeaconDestroyedBase@@3PAXA, eax ; SetBeaconDestroyedBase

; 197  : 			EnableRadar = (void *)0;

	mov	DWORD PTR ?EnableRadar@@3PAXA, eax	; EnableRadar

; 198  : 			FindBuilding = (void *)0;

	mov	DWORD PTR ?FindBuilding@@3PAXA, eax	; FindBuilding

; 199  : 			Skirmish_Game = (void *)0;

	mov	DWORD PTR ?Skirmish_Game@@3PAXA, eax	; Skirmish_Game

; 200  : 			Cnc_Game = (void *)0;

	mov	DWORD PTR ?Cnc_Game@@3PAXA, eax		; Cnc_Game

; 201  : 			Single_Player_Game = (void *)0;

	mov	DWORD PTR ?Single_Player_Game@@3PAXA, eax ; Single_Player_Game

; 202  : 			IsMapVTOL = (bool *)0;

	mov	DWORD PTR ?IsMapVTOL@@3PA_NA, eax	; IsMapVTOL

; 203  : 			Collect_Building_Components = (cbc)0;

	mov	DWORD PTR ?Collect_Building_Components@@3P6AXXZA, eax ; Collect_Building_Components

; 204  : 			GameMode = (unsigned int *)0;

	mov	DWORD PTR ?GameMode@@3PAIA, eax		; GameMode

; 205  : 			PrivateMessageColor = (float *)0;

	mov	DWORD PTR ?PrivateMessageColor@@3PAMA, eax ; PrivateMessageColor

; 206  : 			PublicMessageColor = (float *)0;

	mov	DWORD PTR ?PublicMessageColor@@3PAMA, eax ; PublicMessageColor

; 207  : 			GDIHouseColor = (float *)0;

	mov	DWORD PTR ?GDIHouseColor@@3PAMA, eax	; GDIHouseColor

; 208  : 			NodHouseColor = (float *)0;

	mov	DWORD PTR ?NodHouseColor@@3PAMA, eax	; NodHouseColor

; 209  : 			GameType = (int *)0;

	mov	DWORD PTR ?GameType@@3PAHA, eax		; GameType

; 210  : 			IsListed = (bool *)0;

	mov	DWORD PTR ?IsListed@@3PA_NA, eax	; IsListed

; 211  : 			Game_Mode_Find = (GameModeFind)0;

	mov	DWORD PTR ?Game_Mode_Find@@3P6APAXPBD@ZA, eax ; Game_Mode_Find

; 212  : 			break;
; 213  : 	}
; 214  : }

	ret	0
	npad	1
$LN10@InitEngine@12:
	DD	$LN5@InitEngine@12
	DD	$LN4@InitEngine@12
	DD	$LN3@InitEngine@12
	DD	$LN2@InitEngine@12
?InitEngineGame@@YAXI@Z ENDP				; InitEngineGame
_TEXT	ENDS
PUBLIC	?The_Game@@YAPAVcGameData@@XZ			; The_Game
; Function compile flags: /Odtpy
;	COMDAT ?The_Game@@YAPAVcGameData@@XZ
_TEXT	SEGMENT
?The_Game@@YAPAVcGameData@@XZ PROC			; The_Game, COMDAT

; 58   : IMPLEMENT_THUNK_RETURN(Game)

	mov	eax, DWORD PTR ?Game@@3PAXA		; Game
	jmp	eax
?The_Game@@YAPAVcGameData@@XZ ENDP			; The_Game
END
