; Listing generated by Microsoft (R) Optimizing Compiler Version 15.00.30729.01 

	TITLE	c:\Users\Admin\Desktop\Projects\SEye_Server\engine_def.cpp
	.686P
	.XMM
	include listing.inc
	.model	flat

INCLUDELIB OLDNAMES

PUBLIC	?Get_Safe_Data_Int@@3PAXA			; Get_Safe_Data_Int
PUBLIC	?Find_Def@@3P6APAVDefinitionClass@@K_N@ZA	; Find_Def
PUBLIC	?Get_Safe_Data_Float@@3PAXA			; Get_Safe_Data_Float
PUBLIC	?Set_Safe_Data_Int_Ref@@3P6A_NPAXAAH@ZA		; Set_Safe_Data_Int_Ref
PUBLIC	?Set_Safe_Data_Uint_Ref@@3P6A_NPAXAAI@ZA	; Set_Safe_Data_Uint_Ref
PUBLIC	?Get_Safe_Data_Uint@@3PAXA			; Get_Safe_Data_Uint
PUBLIC	?Set_Safe_Data_Float_Ref@@3P6A_NPAXAAM@ZA	; Set_Safe_Data_Float_Ref
PUBLIC	?FindNamedDef@@3P6APAVDefinitionClass@@PBD_N@ZA	; FindNamedDef
PUBLIC	??_C@_04CGFJFPFD@none?$AA@			; `string'
?Get_Safe_Data_Int@@3PAXA DD 01H DUP (?)		; Get_Safe_Data_Int
?Find_Def@@3P6APAVDefinitionClass@@K_N@ZA DD 01H DUP (?) ; Find_Def
?Get_Safe_Data_Float@@3PAXA DD 01H DUP (?)		; Get_Safe_Data_Float
?Set_Safe_Data_Int_Ref@@3P6A_NPAXAAH@ZA DD 01H DUP (?)	; Set_Safe_Data_Int_Ref
?Set_Safe_Data_Uint_Ref@@3P6A_NPAXAAI@ZA DD 01H DUP (?)	; Set_Safe_Data_Uint_Ref
?Get_Safe_Data_Uint@@3PAXA DD 01H DUP (?)		; Get_Safe_Data_Uint
?Set_Safe_Data_Float_Ref@@3P6A_NPAXAAM@ZA DD 01H DUP (?) ; Set_Safe_Data_Float_Ref
?FindNamedDef@@3P6APAVDefinitionClass@@PBD_N@ZA DD 01H DUP (?) ; FindNamedDef
;	COMDAT ??_C@_04CGFJFPFD@none?$AA@
CONST	SEGMENT
??_C@_04CGFJFPFD@none?$AA@ DB 'none', 00H		; `string'
PUBLIC	?Get_Definition@@YAPAVDefinitionClass@@PAE@Z	; Get_Definition
; Function compile flags: /Ogtpy
; File c:\users\admin\desktop\projects\seye_server\engine_def.cpp
;	COMDAT ?Get_Definition@@YAPAVDefinitionClass@@PAE@Z
_TEXT	SEGMENT
?Get_Definition@@YAPAVDefinitionClass@@PAE@Z PROC	; Get_Definition, COMDAT
; _obj$ = esi

; 193  : 	if (!Commands->Get_ID(obj) || !obj)

	mov	eax, DWORD PTR ?Commands@@3PAUScriptCommands@@A ; Commands
	mov	ecx, DWORD PTR [eax+108]
	push	esi
	call	ecx
	add	esp, 4
	test	eax, eax
	je	SHORT $LN1@Get_Defini
	test	esi, esi
	je	SHORT $LN1@Get_Defini

; 196  : 	}
; 197  : 	return ((ScriptableGameObj *)obj)->definition;

	mov	eax, DWORD PTR [esi+1724]

; 198  : }

	ret	0
$LN1@Get_Defini:

; 194  : 	{
; 195  : 		return 0;

	xor	eax, eax

; 198  : }

	ret	0
?Get_Definition@@YAPAVDefinitionClass@@PAE@Z ENDP	; Get_Definition
_TEXT	ENDS
PUBLIC	?InitEngineDef@@YAXI@Z				; InitEngineDef
; Function compile flags: /Ogtpy
;	COMDAT ?InitEngineDef@@YAXI@Z
_TEXT	SEGMENT
?InitEngineDef@@YAXI@Z PROC				; InitEngineDef, COMDAT

; 97   : {

	mov	eax, DWORD PTR ?Exe@@3HA		; Exe

; 98   : 	switch(exe)

	cmp	eax, 3
	ja	$LN1@InitEngine@14
	jmp	DWORD PTR $LN12@InitEngine@14[eax*4]
$LN5@InitEngine@14:

; 99   : 	{
; 100  : 		case 0: //game.exe
; 101  : 			Find_Def = (FindDefinition)0x00526760;
; 102  : 			FindNamedDef = (Find_Named_Def)0x00526860;
; 103  : 			Get_Safe_Data_Int = (void *)0x00408280;

	mov	eax, 4227712				; 00408280H
	mov	DWORD PTR ?Find_Def@@3P6APAVDefinitionClass@@K_N@ZA, 5400416 ; Find_Def, 00526760H
	mov	DWORD PTR ?FindNamedDef@@3P6APAVDefinitionClass@@PBD_N@ZA, 5400672 ; FindNamedDef, 00526860H

; 104  : 			Get_Safe_Data_Uint = (void *)0x00408280;
; 105  : 			Get_Safe_Data_Float = (void *)0x00413510;

	mov	DWORD PTR ?Get_Safe_Data_Float@@3PAXA, 4273424 ; Get_Safe_Data_Float, 00413510H

; 106  : 			Set_Safe_Data_Float_Ref = (SetSafeDataFloatRef)0x00694F90;

	mov	DWORD PTR ?Set_Safe_Data_Float_Ref@@3P6A_NPAXAAM@ZA, 6901648 ; Set_Safe_Data_Float_Ref, 00694f90H

; 107  : 			Set_Safe_Data_Uint_Ref = (SetSafeDataUintRef)0x00696200;

	mov	DWORD PTR ?Set_Safe_Data_Uint_Ref@@3P6A_NPAXAAI@ZA, 6906368 ; Set_Safe_Data_Uint_Ref, 00696200H

; 108  : 			Set_Safe_Data_Int_Ref = (SetSafeDataIntRef)0x00414350;

	mov	DWORD PTR ?Set_Safe_Data_Int_Ref@@3P6A_NPAXAAH@ZA, 4277072 ; Set_Safe_Data_Int_Ref, 00414350H

; 143  : 			Get_Safe_Data_Int = (void *)0;

	mov	DWORD PTR ?Get_Safe_Data_Int@@3PAXA, eax ; Get_Safe_Data_Int

; 144  : 			Get_Safe_Data_Uint = (void *)0;

	mov	DWORD PTR ?Get_Safe_Data_Uint@@3PAXA, eax ; Get_Safe_Data_Uint

; 149  : 			break;
; 150  : 	}
; 151  : }

	ret	0
$LN4@InitEngine@14:

; 109  : 			break;
; 110  : 		case 1: //server.dat
; 111  : 			Find_Def = (FindDefinition)0x00526000;
; 112  : 			FindNamedDef = (Find_Named_Def)0x00526100;
; 113  : 			Get_Safe_Data_Int = (void *)0x00408280;

	mov	eax, 4227712				; 00408280H
	mov	DWORD PTR ?Find_Def@@3P6APAVDefinitionClass@@K_N@ZA, 5398528 ; Find_Def, 00526000H
	mov	DWORD PTR ?FindNamedDef@@3P6APAVDefinitionClass@@PBD_N@ZA, 5398784 ; FindNamedDef, 00526100H

; 114  : 			Get_Safe_Data_Uint = (void *)0x00408280;
; 115  : 			Get_Safe_Data_Float = (void *)0x00413510;

	mov	DWORD PTR ?Get_Safe_Data_Float@@3PAXA, 4273424 ; Get_Safe_Data_Float, 00413510H

; 116  : 			Set_Safe_Data_Float_Ref = (SetSafeDataFloatRef)0x00694830;

	mov	DWORD PTR ?Set_Safe_Data_Float_Ref@@3P6A_NPAXAAM@ZA, 6899760 ; Set_Safe_Data_Float_Ref, 00694830H

; 117  : 			Set_Safe_Data_Uint_Ref = (SetSafeDataUintRef)0x00695AA0;

	mov	DWORD PTR ?Set_Safe_Data_Uint_Ref@@3P6A_NPAXAAI@ZA, 6904480 ; Set_Safe_Data_Uint_Ref, 00695aa0H

; 118  : 			Set_Safe_Data_Int_Ref = (SetSafeDataIntRef)0x00414350;

	mov	DWORD PTR ?Set_Safe_Data_Int_Ref@@3P6A_NPAXAAH@ZA, 4277072 ; Set_Safe_Data_Int_Ref, 00414350H

; 143  : 			Get_Safe_Data_Int = (void *)0;

	mov	DWORD PTR ?Get_Safe_Data_Int@@3PAXA, eax ; Get_Safe_Data_Int

; 144  : 			Get_Safe_Data_Uint = (void *)0;

	mov	DWORD PTR ?Get_Safe_Data_Uint@@3PAXA, eax ; Get_Safe_Data_Uint

; 149  : 			break;
; 150  : 	}
; 151  : }

	ret	0
$LN3@InitEngine@14:

; 119  : 			break;
; 120  : 		case 2: //RH73
; 121  : 			Find_Def = (FindDefinition)0x08365410;

	mov	DWORD PTR ?Find_Def@@3P6APAVDefinitionClass@@K_N@ZA, 137778192 ; Find_Def, 08365410H

; 122  : 			FindNamedDef = (Find_Named_Def)0x0836557C;

	mov	DWORD PTR ?FindNamedDef@@3P6APAVDefinitionClass@@PBD_N@ZA, 137778556 ; FindNamedDef, 0836557cH

; 123  : 			Get_Safe_Data_Int = (void *)0;

	xor	eax, eax

; 124  : 			Get_Safe_Data_Uint = (void *)0;
; 125  : 			Get_Safe_Data_Float = (void *)0;
; 126  : 			Set_Safe_Data_Float_Ref = (SetSafeDataFloatRef)0;
; 127  : 			Set_Safe_Data_Uint_Ref = (SetSafeDataUintRef)0;
; 128  : 			Set_Safe_Data_Int_Ref = (SetSafeDataIntRef)0;
; 129  : 			break;

	jmp	SHORT $LN11@InitEngine@14
$LN2@InitEngine@14:

; 130  : 		case 3: //RH8
; 131  : 			Find_Def = (FindDefinition)0x083187AE;

	mov	DWORD PTR ?Find_Def@@3P6APAVDefinitionClass@@K_N@ZA, 137463726 ; Find_Def, 083187aeH

; 132  : 			FindNamedDef = (Find_Named_Def)0x0831890A;

	mov	DWORD PTR ?FindNamedDef@@3P6APAVDefinitionClass@@PBD_N@ZA, 137464074 ; FindNamedDef, 0831890aH

; 133  : 			Get_Safe_Data_Int = (void *)0;

	xor	eax, eax

; 134  : 			Get_Safe_Data_Uint = (void *)0;
; 135  : 			Get_Safe_Data_Float = (void *)0;
; 136  : 			Set_Safe_Data_Float_Ref = (SetSafeDataFloatRef)0;
; 137  : 			Set_Safe_Data_Uint_Ref = (SetSafeDataUintRef)0;
; 138  : 			Set_Safe_Data_Int_Ref = (SetSafeDataIntRef)0;
; 139  : 			break;

	jmp	SHORT $LN11@InitEngine@14
$LN1@InitEngine@14:

; 140  : 		default:
; 141  : 			Find_Def = (FindDefinition)0;

	xor	eax, eax
	mov	DWORD PTR ?Find_Def@@3P6APAVDefinitionClass@@K_N@ZA, eax ; Find_Def

; 142  : 			FindNamedDef = (Find_Named_Def)0;

	mov	DWORD PTR ?FindNamedDef@@3P6APAVDefinitionClass@@PBD_N@ZA, eax ; FindNamedDef
$LN11@InitEngine@14:

; 145  : 			Get_Safe_Data_Float = (void *)0;

	mov	DWORD PTR ?Get_Safe_Data_Float@@3PAXA, eax ; Get_Safe_Data_Float

; 146  : 			Set_Safe_Data_Float_Ref = (SetSafeDataFloatRef)0;

	mov	DWORD PTR ?Set_Safe_Data_Float_Ref@@3P6A_NPAXAAM@ZA, eax ; Set_Safe_Data_Float_Ref

; 147  : 			Set_Safe_Data_Uint_Ref = (SetSafeDataUintRef)0;

	mov	DWORD PTR ?Set_Safe_Data_Uint_Ref@@3P6A_NPAXAAI@ZA, eax ; Set_Safe_Data_Uint_Ref

; 148  : 			Set_Safe_Data_Int_Ref = (SetSafeDataIntRef)0;

	mov	DWORD PTR ?Set_Safe_Data_Int_Ref@@3P6A_NPAXAAH@ZA, eax ; Set_Safe_Data_Int_Ref
	mov	DWORD PTR ?Get_Safe_Data_Int@@3PAXA, eax ; Get_Safe_Data_Int
	mov	DWORD PTR ?Get_Safe_Data_Uint@@3PAXA, eax ; Get_Safe_Data_Uint

; 149  : 			break;
; 150  : 	}
; 151  : }

	ret	0
$LN12@InitEngine@14:
	DD	$LN5@InitEngine@14
	DD	$LN4@InitEngine@14
	DD	$LN3@InitEngine@14
	DD	$LN2@InitEngine@14
?InitEngineDef@@YAXI@Z ENDP				; InitEngineDef
_TEXT	ENDS
PUBLIC	?Get@IntDataSafeClass@@QAEHXZ			; IntDataSafeClass::Get
; Function compile flags: /Odtpy
;	COMDAT ?Get@IntDataSafeClass@@QAEHXZ
_TEXT	SEGMENT
?Get@IntDataSafeClass@@QAEHXZ PROC			; IntDataSafeClass::Get, COMDAT
; _this$ = ecx

; 41   : IMPLEMENT_THUNK_RETURN(Get_Safe_Data_Int)

	mov	eax, DWORD PTR ?Get_Safe_Data_Int@@3PAXA ; Get_Safe_Data_Int
	jmp	eax
?Get@IntDataSafeClass@@QAEHXZ ENDP			; IntDataSafeClass::Get
END
