; Listing generated by Microsoft (R) Optimizing Compiler Version 15.00.30729.01 

	TITLE	c:\Users\Admin\Desktop\Projects\SEye_Server\SEye_Server.cpp
	.686P
	.XMM
	include listing.inc
	.model	flat

INCLUDELIB OLDNAMES

PUBLIC	??_R4?$ScriptRegistrant@VSEye_SOCKET@@@@6B@	; ScriptRegistrant<SEye_SOCKET>::`RTTI Complete Object Locator'
PUBLIC	??_R3?$ScriptRegistrant@VSEye_SOCKET@@@@8	; ScriptRegistrant<SEye_SOCKET>::`RTTI Class Hierarchy Descriptor'
PUBLIC	??_R2?$ScriptRegistrant@VSEye_SOCKET@@@@8	; ScriptRegistrant<SEye_SOCKET>::`RTTI Base Class Array'
PUBLIC	??_R1A@?0A@EA@?$ScriptRegistrant@VSEye_SOCKET@@@@8 ; ScriptRegistrant<SEye_SOCKET>::`RTTI Base Class Descriptor at (0,-1,0,64)'
PUBLIC	??_R0?AV?$ScriptRegistrant@VSEye_SOCKET@@@@@8	; ScriptRegistrant<SEye_SOCKET> `RTTI Type Descriptor'
PUBLIC	??_R4?$ScriptRegistrant@VSEye_Vehicle_Update@@@@6B@ ; ScriptRegistrant<SEye_Vehicle_Update>::`RTTI Complete Object Locator'
PUBLIC	??_R3?$ScriptRegistrant@VSEye_Vehicle_Update@@@@8 ; ScriptRegistrant<SEye_Vehicle_Update>::`RTTI Class Hierarchy Descriptor'
PUBLIC	??_R2?$ScriptRegistrant@VSEye_Vehicle_Update@@@@8 ; ScriptRegistrant<SEye_Vehicle_Update>::`RTTI Base Class Array'
PUBLIC	??_R1A@?0A@EA@?$ScriptRegistrant@VSEye_Vehicle_Update@@@@8 ; ScriptRegistrant<SEye_Vehicle_Update>::`RTTI Base Class Descriptor at (0,-1,0,64)'
PUBLIC	??_R0?AV?$ScriptRegistrant@VSEye_Vehicle_Update@@@@@8 ; ScriptRegistrant<SEye_Vehicle_Update> `RTTI Type Descriptor'
PUBLIC	??_R4?$ScriptRegistrant@VSEye_Player_Update@@@@6B@ ; ScriptRegistrant<SEye_Player_Update>::`RTTI Complete Object Locator'
PUBLIC	??_R3?$ScriptRegistrant@VSEye_Player_Update@@@@8 ; ScriptRegistrant<SEye_Player_Update>::`RTTI Class Hierarchy Descriptor'
PUBLIC	??_R2?$ScriptRegistrant@VSEye_Player_Update@@@@8 ; ScriptRegistrant<SEye_Player_Update>::`RTTI Base Class Array'
PUBLIC	??_R1A@?0A@EA@?$ScriptRegistrant@VSEye_Player_Update@@@@8 ; ScriptRegistrant<SEye_Player_Update>::`RTTI Base Class Descriptor at (0,-1,0,64)'
PUBLIC	??_R0?AV?$ScriptRegistrant@VSEye_Player_Update@@@@@8 ; ScriptRegistrant<SEye_Player_Update> `RTTI Type Descriptor'
PUBLIC	??_R4?$ScriptRegistrant@VSEye_C4_Update@@@@6B@	; ScriptRegistrant<SEye_C4_Update>::`RTTI Complete Object Locator'
PUBLIC	??_R3?$ScriptRegistrant@VSEye_C4_Update@@@@8	; ScriptRegistrant<SEye_C4_Update>::`RTTI Class Hierarchy Descriptor'
PUBLIC	??_R2?$ScriptRegistrant@VSEye_C4_Update@@@@8	; ScriptRegistrant<SEye_C4_Update>::`RTTI Base Class Array'
PUBLIC	??_R1A@?0A@EA@?$ScriptRegistrant@VSEye_C4_Update@@@@8 ; ScriptRegistrant<SEye_C4_Update>::`RTTI Base Class Descriptor at (0,-1,0,64)'
PUBLIC	??_R0?AV?$ScriptRegistrant@VSEye_C4_Update@@@@@8 ; ScriptRegistrant<SEye_C4_Update> `RTTI Type Descriptor'
PUBLIC	??_R4?$ScriptRegistrant@VSEye_Building_Update@@@@6B@ ; ScriptRegistrant<SEye_Building_Update>::`RTTI Complete Object Locator'
PUBLIC	??_R3?$ScriptRegistrant@VSEye_Building_Update@@@@8 ; ScriptRegistrant<SEye_Building_Update>::`RTTI Class Hierarchy Descriptor'
PUBLIC	??_R2?$ScriptRegistrant@VSEye_Building_Update@@@@8 ; ScriptRegistrant<SEye_Building_Update>::`RTTI Base Class Array'
PUBLIC	??_R1A@?0A@EA@ScriptFactory@@8			; ScriptFactory::`RTTI Base Class Descriptor at (0,-1,0,64)'
PUBLIC	??_R3ScriptFactory@@8				; ScriptFactory::`RTTI Class Hierarchy Descriptor'
PUBLIC	??_R2ScriptFactory@@8				; ScriptFactory::`RTTI Base Class Array'
PUBLIC	??_R0?AVScriptFactory@@@8			; ScriptFactory `RTTI Type Descriptor'
PUBLIC	??_R1A@?0A@EA@?$ScriptRegistrant@VSEye_Building_Update@@@@8 ; ScriptRegistrant<SEye_Building_Update>::`RTTI Base Class Descriptor at (0,-1,0,64)'
PUBLIC	??_R0?AV?$ScriptRegistrant@VSEye_Building_Update@@@@@8 ; ScriptRegistrant<SEye_Building_Update> `RTTI Type Descriptor'
PUBLIC	??_R4SEye_Building_Update@@6B@			; SEye_Building_Update::`RTTI Complete Object Locator'
PUBLIC	??_R3SEye_Building_Update@@8			; SEye_Building_Update::`RTTI Class Hierarchy Descriptor'
PUBLIC	??_R2SEye_Building_Update@@8			; SEye_Building_Update::`RTTI Base Class Array'
PUBLIC	??_R1A@?0A@EA@SEye_Building_Update@@8		; SEye_Building_Update::`RTTI Base Class Descriptor at (0,-1,0,64)'
PUBLIC	??_R0?AVSEye_Building_Update@@@8		; SEye_Building_Update `RTTI Type Descriptor'
PUBLIC	??_R4SEye_C4_Update@@6B@			; SEye_C4_Update::`RTTI Complete Object Locator'
PUBLIC	??_R3SEye_C4_Update@@8				; SEye_C4_Update::`RTTI Class Hierarchy Descriptor'
PUBLIC	??_R2SEye_C4_Update@@8				; SEye_C4_Update::`RTTI Base Class Array'
PUBLIC	??_R1A@?0A@EA@SEye_C4_Update@@8			; SEye_C4_Update::`RTTI Base Class Descriptor at (0,-1,0,64)'
PUBLIC	??_R0?AVSEye_C4_Update@@@8			; SEye_C4_Update `RTTI Type Descriptor'
PUBLIC	??_R4SEye_Vehicle_Update@@6B@			; SEye_Vehicle_Update::`RTTI Complete Object Locator'
PUBLIC	??_R3SEye_Vehicle_Update@@8			; SEye_Vehicle_Update::`RTTI Class Hierarchy Descriptor'
PUBLIC	??_R2SEye_Vehicle_Update@@8			; SEye_Vehicle_Update::`RTTI Base Class Array'
PUBLIC	??_R1A@?0A@EA@SEye_Vehicle_Update@@8		; SEye_Vehicle_Update::`RTTI Base Class Descriptor at (0,-1,0,64)'
PUBLIC	??_R0?AVSEye_Vehicle_Update@@@8			; SEye_Vehicle_Update `RTTI Type Descriptor'
PUBLIC	??_R4SEye_Player_Update@@6B@			; SEye_Player_Update::`RTTI Complete Object Locator'
PUBLIC	??_R3SEye_Player_Update@@8			; SEye_Player_Update::`RTTI Class Hierarchy Descriptor'
PUBLIC	??_R2SEye_Player_Update@@8			; SEye_Player_Update::`RTTI Base Class Array'
PUBLIC	??_R1A@?0A@EA@SEye_Player_Update@@8		; SEye_Player_Update::`RTTI Base Class Descriptor at (0,-1,0,64)'
PUBLIC	??_R0?AVSEye_Player_Update@@@8			; SEye_Player_Update `RTTI Type Descriptor'
PUBLIC	??_R4SEye_SOCKET@@6B@				; SEye_SOCKET::`RTTI Complete Object Locator'
PUBLIC	??_R3SEye_SOCKET@@8				; SEye_SOCKET::`RTTI Class Hierarchy Descriptor'
PUBLIC	??_R2SEye_SOCKET@@8				; SEye_SOCKET::`RTTI Base Class Array'
PUBLIC	??_R1A@?0A@EA@ScriptImpClass@@8			; ScriptImpClass::`RTTI Base Class Descriptor at (0,-1,0,64)'
PUBLIC	??_R3ScriptImpClass@@8				; ScriptImpClass::`RTTI Class Hierarchy Descriptor'
PUBLIC	??_R2ScriptImpClass@@8				; ScriptImpClass::`RTTI Base Class Array'
PUBLIC	??_R1A@?0A@EA@ScriptClass@@8			; ScriptClass::`RTTI Base Class Descriptor at (0,-1,0,64)'
PUBLIC	??_R3ScriptClass@@8				; ScriptClass::`RTTI Class Hierarchy Descriptor'
PUBLIC	??_R2ScriptClass@@8				; ScriptClass::`RTTI Base Class Array'
PUBLIC	??_R1A@?0A@EA@GameObjObserverClass@@8		; GameObjObserverClass::`RTTI Base Class Descriptor at (0,-1,0,64)'
PUBLIC	??_R3GameObjObserverClass@@8			; GameObjObserverClass::`RTTI Class Hierarchy Descriptor'
PUBLIC	??_R2GameObjObserverClass@@8			; GameObjObserverClass::`RTTI Base Class Array'
PUBLIC	??_R0?AVGameObjObserverClass@@@8		; GameObjObserverClass `RTTI Type Descriptor'
PUBLIC	??_R0?AVScriptClass@@@8				; ScriptClass `RTTI Type Descriptor'
PUBLIC	??_R0?AVScriptImpClass@@@8			; ScriptImpClass `RTTI Type Descriptor'
PUBLIC	??_R1A@?0A@EA@SEye_SOCKET@@8			; SEye_SOCKET::`RTTI Base Class Descriptor at (0,-1,0,64)'
PUBLIC	??_R0?AVSEye_SOCKET@@@8				; SEye_SOCKET `RTTI Type Descriptor'
PUBLIC	?strchr@@YAPADPADH@Z				; strchr
PUBLIC	??$Pack@H@SEyePacket@SEye@@QAEXH@Z		; SEye::SEyePacket::Pack<int>
PUBLIC	??$Unpack@_N@SEyePacket@SEye@@QAEXAA_N@Z	; SEye::SEyePacket::Unpack<bool>
PUBLIC	??$Unpack@I@SEyePacket@SEye@@QAEXAAI@Z		; SEye::SEyePacket::Unpack<unsigned int>
PUBLIC	?Created@SEye_SOCKET@@EAEXPAE@Z			; SEye_SOCKET::Created
PUBLIC	??BWideStringClass@@QAEPB_WXZ			; WideStringClass::operator wchar_t const *
PUBLIC	??_GTCPSocket@@QAEPAXI@Z			; TCPSocket::`scalar deleting destructor'
PUBLIC	?Timer_Expired@SEye_SOCKET@@EAEXPAEH@Z		; SEye_SOCKET::Timer_Expired
PUBLIC	??1SEye_SOCKET@@UAE@XZ				; SEye_SOCKET::~SEye_SOCKET
PUBLIC	??_GSEye_SOCKET@@UAEPAXI@Z			; SEye_SOCKET::`scalar deleting destructor'
PUBLIC	??0SEye_SOCKET@@QAE@XZ				; SEye_SOCKET::SEye_SOCKET
PUBLIC	?Create@?$ScriptRegistrant@VSEye_SOCKET@@@@UAEPAVScriptImpClass@@XZ ; ScriptRegistrant<SEye_SOCKET>::Create
PUBLIC	??_G?$ScriptRegistrant@VSEye_SOCKET@@@@UAEPAXI@Z ; ScriptRegistrant<SEye_SOCKET>::`scalar deleting destructor'
PUBLIC	??0?$ScriptRegistrant@VSEye_SOCKET@@@@QAE@PAD0@Z ; ScriptRegistrant<SEye_SOCKET>::ScriptRegistrant<SEye_SOCKET>
PUBLIC	??1?$ScriptRegistrant@VSEye_SOCKET@@@@UAE@XZ	; ScriptRegistrant<SEye_SOCKET>::~ScriptRegistrant<SEye_SOCKET>
PUBLIC	?Created@SEye_Vehicle_Update@@EAEXPAE@Z		; SEye_Vehicle_Update::Created
PUBLIC	?Timer_Expired@SEye_Vehicle_Update@@EAEXPAEH@Z	; SEye_Vehicle_Update::Timer_Expired
PUBLIC	?Destroyed@SEye_Vehicle_Update@@EAEXPAE@Z	; SEye_Vehicle_Update::Destroyed
PUBLIC	?Damaged@SEye_Vehicle_Update@@EAEXPAE0M@Z	; SEye_Vehicle_Update::Damaged
PUBLIC	?Custom@SEye_Vehicle_Update@@EAEXPAEHH0@Z	; SEye_Vehicle_Update::Custom
PUBLIC	??1SEye_Vehicle_Update@@UAE@XZ			; SEye_Vehicle_Update::~SEye_Vehicle_Update
PUBLIC	??_GSEye_Vehicle_Update@@UAEPAXI@Z		; SEye_Vehicle_Update::`scalar deleting destructor'
PUBLIC	??0SEye_Vehicle_Update@@QAE@XZ			; SEye_Vehicle_Update::SEye_Vehicle_Update
PUBLIC	?Create@?$ScriptRegistrant@VSEye_Vehicle_Update@@@@UAEPAVScriptImpClass@@XZ ; ScriptRegistrant<SEye_Vehicle_Update>::Create
PUBLIC	??_G?$ScriptRegistrant@VSEye_Vehicle_Update@@@@UAEPAXI@Z ; ScriptRegistrant<SEye_Vehicle_Update>::`scalar deleting destructor'
PUBLIC	??0?$ScriptRegistrant@VSEye_Vehicle_Update@@@@QAE@PAD0@Z ; ScriptRegistrant<SEye_Vehicle_Update>::ScriptRegistrant<SEye_Vehicle_Update>
PUBLIC	??1?$ScriptRegistrant@VSEye_Vehicle_Update@@@@UAE@XZ ; ScriptRegistrant<SEye_Vehicle_Update>::~ScriptRegistrant<SEye_Vehicle_Update>
PUBLIC	?Created@SEye_Building_Update@@EAEXPAE@Z	; SEye_Building_Update::Created
PUBLIC	?Timer_Expired@SEye_Building_Update@@EAEXPAEH@Z	; SEye_Building_Update::Timer_Expired
PUBLIC	?Damaged@SEye_Building_Update@@EAEXPAE0M@Z	; SEye_Building_Update::Damaged
PUBLIC	?Killed@SEye_Building_Update@@EAEXPAE0@Z	; SEye_Building_Update::Killed
PUBLIC	??1SEye_Building_Update@@UAE@XZ			; SEye_Building_Update::~SEye_Building_Update
PUBLIC	??_GSEye_Building_Update@@UAEPAXI@Z		; SEye_Building_Update::`scalar deleting destructor'
PUBLIC	??0SEye_Building_Update@@QAE@XZ			; SEye_Building_Update::SEye_Building_Update
PUBLIC	?Create@?$ScriptRegistrant@VSEye_Building_Update@@@@UAEPAVScriptImpClass@@XZ ; ScriptRegistrant<SEye_Building_Update>::Create
PUBLIC	??_G?$ScriptRegistrant@VSEye_Building_Update@@@@UAEPAXI@Z ; ScriptRegistrant<SEye_Building_Update>::`scalar deleting destructor'
PUBLIC	??0?$ScriptRegistrant@VSEye_Building_Update@@@@QAE@PAD0@Z ; ScriptRegistrant<SEye_Building_Update>::ScriptRegistrant<SEye_Building_Update>
PUBLIC	??1?$ScriptRegistrant@VSEye_Building_Update@@@@UAE@XZ ; ScriptRegistrant<SEye_Building_Update>::~ScriptRegistrant<SEye_Building_Update>
PUBLIC	??$Pack@M@SEyePacket@SEye@@QAEXM@Z		; SEye::SEyePacket::Pack<float>
PUBLIC	??$Pack@D@SEyePacket@SEye@@QAEXD@Z		; SEye::SEyePacket::Pack<char>
PUBLIC	??$Pack@E@SEyePacket@SEye@@QAEXE@Z		; SEye::SEyePacket::Pack<unsigned char>
PUBLIC	?Created@SEye_C4_Update@@EAEXPAE@Z		; SEye_C4_Update::Created
PUBLIC	?Timer_Expired@SEye_C4_Update@@EAEXPAEH@Z	; SEye_C4_Update::Timer_Expired
PUBLIC	?Killed@SEye_C4_Update@@EAEXPAE0@Z		; SEye_C4_Update::Killed
PUBLIC	?Destroyed@SEye_C4_Update@@EAEXPAE@Z		; SEye_C4_Update::Destroyed
PUBLIC	??1SEye_C4_Update@@UAE@XZ			; SEye_C4_Update::~SEye_C4_Update
PUBLIC	??_GSEye_C4_Update@@UAEPAXI@Z			; SEye_C4_Update::`scalar deleting destructor'
PUBLIC	??0SEye_C4_Update@@QAE@XZ			; SEye_C4_Update::SEye_C4_Update
PUBLIC	?Create@?$ScriptRegistrant@VSEye_C4_Update@@@@UAEPAVScriptImpClass@@XZ ; ScriptRegistrant<SEye_C4_Update>::Create
PUBLIC	??_G?$ScriptRegistrant@VSEye_C4_Update@@@@UAEPAXI@Z ; ScriptRegistrant<SEye_C4_Update>::`scalar deleting destructor'
PUBLIC	??0?$ScriptRegistrant@VSEye_C4_Update@@@@QAE@PAD0@Z ; ScriptRegistrant<SEye_C4_Update>::ScriptRegistrant<SEye_C4_Update>
PUBLIC	??1?$ScriptRegistrant@VSEye_C4_Update@@@@UAE@XZ	; ScriptRegistrant<SEye_C4_Update>::~ScriptRegistrant<SEye_C4_Update>
PUBLIC	?SetFactory@ScriptImpClass@@QAEXPAVScriptFactory@@@Z ; ScriptImpClass::SetFactory
PUBLIC	?Created@SEye_Player_Update@@EAEXPAE@Z		; SEye_Player_Update::Created
PUBLIC	?Timer_Expired@SEye_Player_Update@@EAEXPAEH@Z	; SEye_Player_Update::Timer_Expired
PUBLIC	?Destroyed@SEye_Player_Update@@EAEXPAE@Z	; SEye_Player_Update::Destroyed
PUBLIC	?Killed@SEye_Player_Update@@EAEXPAE0@Z		; SEye_Player_Update::Killed
PUBLIC	??0SEyePacket@SEye@@QAE@XZ			; SEye::SEyePacket::SEyePacket
PUBLIC	??$Pack@I@SEyePacket@SEye@@QAEXI@Z		; SEye::SEyePacket::Pack<unsigned int>
PUBLIC	??$Pack@_N@SEyePacket@SEye@@QAEX_N@Z		; SEye::SEyePacket::Pack<bool>
PUBLIC	?Damaged@SEye_Player_Update@@EAEXPAE0M@Z	; SEye_Player_Update::Damaged
PUBLIC	??1SEye_Player_Update@@UAE@XZ			; SEye_Player_Update::~SEye_Player_Update
PUBLIC	??_GSEye_Player_Update@@UAEPAXI@Z		; SEye_Player_Update::`scalar deleting destructor'
PUBLIC	??0SEye_Player_Update@@QAE@XZ			; SEye_Player_Update::SEye_Player_Update
PUBLIC	?Create@?$ScriptRegistrant@VSEye_Player_Update@@@@UAEPAVScriptImpClass@@XZ ; ScriptRegistrant<SEye_Player_Update>::Create
PUBLIC	??_G?$ScriptRegistrant@VSEye_Player_Update@@@@UAEPAXI@Z ; ScriptRegistrant<SEye_Player_Update>::`scalar deleting destructor'
PUBLIC	??0?$ScriptRegistrant@VSEye_Player_Update@@@@QAE@PAD0@Z ; ScriptRegistrant<SEye_Player_Update>::ScriptRegistrant<SEye_Player_Update>
PUBLIC	??1?$ScriptRegistrant@VSEye_Player_Update@@@@UAE@XZ ; ScriptRegistrant<SEye_Player_Update>::~ScriptRegistrant<SEye_Player_Update>
PUBLIC	?t_Client@@3PAVTCPSocket@@A			; t_Client
PUBLIC	?t_Sock@@3PAVTCPSocket@@A			; t_Sock
PUBLIC	?PingPong@@3JA					; PingPong
PUBLIC	??_C@_0BD@CEEFLPHM@SEye_Player_Update?$AA@	; `string'
PUBLIC	??_C@_0BE@KDALBFM@SEye_Vehicle_Update?$AA@	; `string'
PUBLIC	??_C@_0P@EAMHLGBK@SEye_C4_Update?$AA@		; `string'
PUBLIC	??_C@_0M@FJCGCEP@?$CFs?2SEye?4ini?$AA@		; `string'
PUBLIC	??_C@_0DB@HLGPIOGI@Failed?5to?5load?5SEye?5Server?0?5ini?5@ ; `string'
PUBLIC	??_C@_09PFCHIMEP@127?40?40?41?$AA@		; `string'
PUBLIC	??_C@_07OHJJKHHI@Bind_IP?$AA@			; `string'
PUBLIC	??_C@_04KJAONJML@SEye?$AA@			; `string'
PUBLIC	??_C@_0BK@PIFHHBJL@Failed?5to?5bind?5to?5IP?3?5?$CFs?6?$AA@ ; `string'
PUBLIC	??_C@_0CE@HIAMLLPN@SEye?5started?5successfuly?5on?5IP?3?5@ ; `string'
PUBLIC	??_C@_0M@OPINOOFP@SEye_SOCKET?$AA@		; `string'
PUBLIC	??_C@_0BF@MCAOHKKL@SEye_Building_Update?$AA@	; `string'
PUBLIC	?PingData@@3IA					; PingData
PUBLIC	??_C@_0BL@KGBFPHLL@SEye?5client?5disconnected?$CB?6?$AA@ ; `string'
PUBLIC	??_C@_0CK@NFJNGOJO@SEye?5client?5disconnected?5?$CIping?5t@ ; `string'
PUBLIC	??_C@_0BF@GCBADCAG@New?5client?5rejected?6?$AA@	; `string'
PUBLIC	??_C@_0BF@EHJOBKHJ@New?5client?5accepted?6?$AA@	; `string'
PUBLIC	??_C@_05LFNECPGD@?$CC?$CFs?$CC?6?$AA@		; `string'
PUBLIC	??_C@_0BH@FPKMONJH@Unable?5to?5send?5packet?6?$AA@ ; `string'
PUBLIC	?i_PacketBytes@SEye_SOCKET@@0HA			; SEye_SOCKET::i_PacketBytes
PUBLIC	??_7SEye_SOCKET@@6B@				; SEye_SOCKET::`vftable'
PUBLIC	??_7SEye_Player_Update@@6B@			; SEye_Player_Update::`vftable'
PUBLIC	??_7SEye_Vehicle_Update@@6B@			; SEye_Vehicle_Update::`vftable'
PUBLIC	??_7SEye_C4_Update@@6B@				; SEye_C4_Update::`vftable'
PUBLIC	??_7SEye_Building_Update@@6B@			; SEye_Building_Update::`vftable'
PUBLIC	??_7?$ScriptRegistrant@VSEye_Building_Update@@@@6B@ ; ScriptRegistrant<SEye_Building_Update>::`vftable'
PUBLIC	??_7?$ScriptRegistrant@VSEye_C4_Update@@@@6B@	; ScriptRegistrant<SEye_C4_Update>::`vftable'
PUBLIC	??_7?$ScriptRegistrant@VSEye_Player_Update@@@@6B@ ; ScriptRegistrant<SEye_Player_Update>::`vftable'
PUBLIC	??_7?$ScriptRegistrant@VSEye_Vehicle_Update@@@@6B@ ; ScriptRegistrant<SEye_Vehicle_Update>::`vftable'
PUBLIC	??_7?$ScriptRegistrant@VSEye_SOCKET@@@@6B@	; ScriptRegistrant<SEye_SOCKET>::`vftable'
EXTRN	_strchr:PROC
EXTRN	__imp__GetModuleFileNameA@12:PROC
EXTRN	_strcpy_s:PROC
EXTRN	__imp__connect@12:PROC
EXTRN	__imp__gethostbyname@4:PROC
EXTRN	__imp__bind@12:PROC
EXTRN	__imp__htons@4:PROC
EXTRN	__imp__inet_addr@4:PROC
EXTRN	__imp__listen@8:PROC
EXTRN	__imp__socket@12:PROC
EXTRN	___WSAFDIsSet@8:PROC
EXTRN	__imp__select@20:PROC
EXTRN	__imp__recv@16:PROC
EXTRN	__imp__send@16:PROC
EXTRN	__imp__closesocket@4:PROC
EXTRN	__imp__shutdown@8:PROC
EXTRN	__imp__accept@12:PROC
EXTRN	_rand:PROC
EXTRN	_clock:PROC
EXTRN	??_ESEye_SOCKET@@UAEPAXI@Z:PROC			; SEye_SOCKET::`vector deleting destructor'
EXTRN	??_E?$ScriptRegistrant@VSEye_SOCKET@@@@UAEPAXI@Z:PROC ; ScriptRegistrant<SEye_SOCKET>::`vector deleting destructor'
EXTRN	??_ESEye_Vehicle_Update@@UAEPAXI@Z:PROC		; SEye_Vehicle_Update::`vector deleting destructor'
EXTRN	??_E?$ScriptRegistrant@VSEye_Vehicle_Update@@@@UAEPAXI@Z:PROC ; ScriptRegistrant<SEye_Vehicle_Update>::`vector deleting destructor'
EXTRN	??_ESEye_Building_Update@@UAEPAXI@Z:PROC	; SEye_Building_Update::`vector deleting destructor'
EXTRN	??_E?$ScriptRegistrant@VSEye_Building_Update@@@@UAEPAXI@Z:PROC ; ScriptRegistrant<SEye_Building_Update>::`vector deleting destructor'
EXTRN	??_ESEye_C4_Update@@UAEPAXI@Z:PROC		; SEye_C4_Update::`vector deleting destructor'
EXTRN	??_E?$ScriptRegistrant@VSEye_C4_Update@@@@UAEPAXI@Z:PROC ; ScriptRegistrant<SEye_C4_Update>::`vector deleting destructor'
EXTRN	_atexit:PROC
EXTRN	??_ESEye_Player_Update@@UAEPAXI@Z:PROC		; SEye_Player_Update::`vector deleting destructor'
EXTRN	??_E?$ScriptRegistrant@VSEye_Player_Update@@@@UAEPAXI@Z:PROC ; ScriptRegistrant<SEye_Player_Update>::`vector deleting destructor'
?t_Client@@3PAVTCPSocket@@A DD 01H DUP (?)		; t_Client
?t_Sock@@3PAVTCPSocket@@A DD 01H DUP (?)		; t_Sock
?PingPong@@3JA DD 01H DUP (?)				; PingPong
?PingData@@3IA DD 01H DUP (?)				; PingData
?i_PacketBytes@SEye_SOCKET@@0HA DD 01H DUP (?)		; SEye_SOCKET::i_PacketBytes
;	COMDAT ??_7?$ScriptRegistrant@VSEye_SOCKET@@@@6B@
CONST	SEGMENT
??_7?$ScriptRegistrant@VSEye_SOCKET@@@@6B@ DD FLAT:??_R4?$ScriptRegistrant@VSEye_SOCKET@@@@6B@ ; ScriptRegistrant<SEye_SOCKET>::`vftable'
	DD	FLAT:??_E?$ScriptRegistrant@VSEye_SOCKET@@@@UAEPAXI@Z
	DD	FLAT:?Create@?$ScriptRegistrant@VSEye_SOCKET@@@@UAEPAVScriptImpClass@@XZ
CONST	ENDS
;	COMDAT ??_R4?$ScriptRegistrant@VSEye_SOCKET@@@@6B@
rdata$r	SEGMENT
??_R4?$ScriptRegistrant@VSEye_SOCKET@@@@6B@ DD 00H	; ScriptRegistrant<SEye_SOCKET>::`RTTI Complete Object Locator'
	DD	00H
	DD	00H
	DD	FLAT:??_R0?AV?$ScriptRegistrant@VSEye_SOCKET@@@@@8
	DD	FLAT:??_R3?$ScriptRegistrant@VSEye_SOCKET@@@@8
rdata$r	ENDS
;	COMDAT ??_R3?$ScriptRegistrant@VSEye_SOCKET@@@@8
rdata$r	SEGMENT
??_R3?$ScriptRegistrant@VSEye_SOCKET@@@@8 DD 00H	; ScriptRegistrant<SEye_SOCKET>::`RTTI Class Hierarchy Descriptor'
	DD	00H
	DD	02H
	DD	FLAT:??_R2?$ScriptRegistrant@VSEye_SOCKET@@@@8
rdata$r	ENDS
;	COMDAT ??_R2?$ScriptRegistrant@VSEye_SOCKET@@@@8
rdata$r	SEGMENT
??_R2?$ScriptRegistrant@VSEye_SOCKET@@@@8 DD FLAT:??_R1A@?0A@EA@?$ScriptRegistrant@VSEye_SOCKET@@@@8 ; ScriptRegistrant<SEye_SOCKET>::`RTTI Base Class Array'
	DD	FLAT:??_R1A@?0A@EA@ScriptFactory@@8
rdata$r	ENDS
;	COMDAT ??_R1A@?0A@EA@?$ScriptRegistrant@VSEye_SOCKET@@@@8
rdata$r	SEGMENT
??_R1A@?0A@EA@?$ScriptRegistrant@VSEye_SOCKET@@@@8 DD FLAT:??_R0?AV?$ScriptRegistrant@VSEye_SOCKET@@@@@8 ; ScriptRegistrant<SEye_SOCKET>::`RTTI Base Class Descriptor at (0,-1,0,64)'
	DD	01H
	DD	00H
	DD	0ffffffffH
	DD	00H
	DD	040H
	DD	FLAT:??_R3?$ScriptRegistrant@VSEye_SOCKET@@@@8
rdata$r	ENDS
;	COMDAT ??_R0?AV?$ScriptRegistrant@VSEye_SOCKET@@@@@8
_DATA	SEGMENT
??_R0?AV?$ScriptRegistrant@VSEye_SOCKET@@@@@8 DD FLAT:??_7type_info@@6B@ ; ScriptRegistrant<SEye_SOCKET> `RTTI Type Descriptor'
	DD	00H
	DB	'.?AV?$ScriptRegistrant@VSEye_SOCKET@@@@', 00H
_DATA	ENDS
;	COMDAT ??_7?$ScriptRegistrant@VSEye_Vehicle_Update@@@@6B@
CONST	SEGMENT
??_7?$ScriptRegistrant@VSEye_Vehicle_Update@@@@6B@ DD FLAT:??_R4?$ScriptRegistrant@VSEye_Vehicle_Update@@@@6B@ ; ScriptRegistrant<SEye_Vehicle_Update>::`vftable'
	DD	FLAT:??_E?$ScriptRegistrant@VSEye_Vehicle_Update@@@@UAEPAXI@Z
	DD	FLAT:?Create@?$ScriptRegistrant@VSEye_Vehicle_Update@@@@UAEPAVScriptImpClass@@XZ
CONST	ENDS
;	COMDAT ??_R4?$ScriptRegistrant@VSEye_Vehicle_Update@@@@6B@
rdata$r	SEGMENT
??_R4?$ScriptRegistrant@VSEye_Vehicle_Update@@@@6B@ DD 00H ; ScriptRegistrant<SEye_Vehicle_Update>::`RTTI Complete Object Locator'
	DD	00H
	DD	00H
	DD	FLAT:??_R0?AV?$ScriptRegistrant@VSEye_Vehicle_Update@@@@@8
	DD	FLAT:??_R3?$ScriptRegistrant@VSEye_Vehicle_Update@@@@8
rdata$r	ENDS
;	COMDAT ??_R3?$ScriptRegistrant@VSEye_Vehicle_Update@@@@8
rdata$r	SEGMENT
??_R3?$ScriptRegistrant@VSEye_Vehicle_Update@@@@8 DD 00H ; ScriptRegistrant<SEye_Vehicle_Update>::`RTTI Class Hierarchy Descriptor'
	DD	00H
	DD	02H
	DD	FLAT:??_R2?$ScriptRegistrant@VSEye_Vehicle_Update@@@@8
rdata$r	ENDS
;	COMDAT ??_R2?$ScriptRegistrant@VSEye_Vehicle_Update@@@@8
rdata$r	SEGMENT
??_R2?$ScriptRegistrant@VSEye_Vehicle_Update@@@@8 DD FLAT:??_R1A@?0A@EA@?$ScriptRegistrant@VSEye_Vehicle_Update@@@@8 ; ScriptRegistrant<SEye_Vehicle_Update>::`RTTI Base Class Array'
	DD	FLAT:??_R1A@?0A@EA@ScriptFactory@@8
rdata$r	ENDS
;	COMDAT ??_R1A@?0A@EA@?$ScriptRegistrant@VSEye_Vehicle_Update@@@@8
rdata$r	SEGMENT
??_R1A@?0A@EA@?$ScriptRegistrant@VSEye_Vehicle_Update@@@@8 DD FLAT:??_R0?AV?$ScriptRegistrant@VSEye_Vehicle_Update@@@@@8 ; ScriptRegistrant<SEye_Vehicle_Update>::`RTTI Base Class Descriptor at (0,-1,0,64)'
	DD	01H
	DD	00H
	DD	0ffffffffH
	DD	00H
	DD	040H
	DD	FLAT:??_R3?$ScriptRegistrant@VSEye_Vehicle_Update@@@@8
rdata$r	ENDS
;	COMDAT ??_R0?AV?$ScriptRegistrant@VSEye_Vehicle_Update@@@@@8
_DATA	SEGMENT
??_R0?AV?$ScriptRegistrant@VSEye_Vehicle_Update@@@@@8 DD FLAT:??_7type_info@@6B@ ; ScriptRegistrant<SEye_Vehicle_Update> `RTTI Type Descriptor'
	DD	00H
	DB	'.?AV?$ScriptRegistrant@VSEye_Vehicle_Update@@@@', 00H
_DATA	ENDS
;	COMDAT ??_7?$ScriptRegistrant@VSEye_Player_Update@@@@6B@
CONST	SEGMENT
??_7?$ScriptRegistrant@VSEye_Player_Update@@@@6B@ DD FLAT:??_R4?$ScriptRegistrant@VSEye_Player_Update@@@@6B@ ; ScriptRegistrant<SEye_Player_Update>::`vftable'
	DD	FLAT:??_E?$ScriptRegistrant@VSEye_Player_Update@@@@UAEPAXI@Z
	DD	FLAT:?Create@?$ScriptRegistrant@VSEye_Player_Update@@@@UAEPAVScriptImpClass@@XZ
CONST	ENDS
;	COMDAT ??_R4?$ScriptRegistrant@VSEye_Player_Update@@@@6B@
rdata$r	SEGMENT
??_R4?$ScriptRegistrant@VSEye_Player_Update@@@@6B@ DD 00H ; ScriptRegistrant<SEye_Player_Update>::`RTTI Complete Object Locator'
	DD	00H
	DD	00H
	DD	FLAT:??_R0?AV?$ScriptRegistrant@VSEye_Player_Update@@@@@8
	DD	FLAT:??_R3?$ScriptRegistrant@VSEye_Player_Update@@@@8
rdata$r	ENDS
;	COMDAT ??_R3?$ScriptRegistrant@VSEye_Player_Update@@@@8
rdata$r	SEGMENT
??_R3?$ScriptRegistrant@VSEye_Player_Update@@@@8 DD 00H	; ScriptRegistrant<SEye_Player_Update>::`RTTI Class Hierarchy Descriptor'
	DD	00H
	DD	02H
	DD	FLAT:??_R2?$ScriptRegistrant@VSEye_Player_Update@@@@8
rdata$r	ENDS
;	COMDAT ??_R2?$ScriptRegistrant@VSEye_Player_Update@@@@8
rdata$r	SEGMENT
??_R2?$ScriptRegistrant@VSEye_Player_Update@@@@8 DD FLAT:??_R1A@?0A@EA@?$ScriptRegistrant@VSEye_Player_Update@@@@8 ; ScriptRegistrant<SEye_Player_Update>::`RTTI Base Class Array'
	DD	FLAT:??_R1A@?0A@EA@ScriptFactory@@8
rdata$r	ENDS
;	COMDAT ??_R1A@?0A@EA@?$ScriptRegistrant@VSEye_Player_Update@@@@8
rdata$r	SEGMENT
??_R1A@?0A@EA@?$ScriptRegistrant@VSEye_Player_Update@@@@8 DD FLAT:??_R0?AV?$ScriptRegistrant@VSEye_Player_Update@@@@@8 ; ScriptRegistrant<SEye_Player_Update>::`RTTI Base Class Descriptor at (0,-1,0,64)'
	DD	01H
	DD	00H
	DD	0ffffffffH
	DD	00H
	DD	040H
	DD	FLAT:??_R3?$ScriptRegistrant@VSEye_Player_Update@@@@8
rdata$r	ENDS
;	COMDAT ??_R0?AV?$ScriptRegistrant@VSEye_Player_Update@@@@@8
_DATA	SEGMENT
??_R0?AV?$ScriptRegistrant@VSEye_Player_Update@@@@@8 DD FLAT:??_7type_info@@6B@ ; ScriptRegistrant<SEye_Player_Update> `RTTI Type Descriptor'
	DD	00H
	DB	'.?AV?$ScriptRegistrant@VSEye_Player_Update@@@@', 00H
_DATA	ENDS
;	COMDAT ??_7?$ScriptRegistrant@VSEye_C4_Update@@@@6B@
CONST	SEGMENT
??_7?$ScriptRegistrant@VSEye_C4_Update@@@@6B@ DD FLAT:??_R4?$ScriptRegistrant@VSEye_C4_Update@@@@6B@ ; ScriptRegistrant<SEye_C4_Update>::`vftable'
	DD	FLAT:??_E?$ScriptRegistrant@VSEye_C4_Update@@@@UAEPAXI@Z
	DD	FLAT:?Create@?$ScriptRegistrant@VSEye_C4_Update@@@@UAEPAVScriptImpClass@@XZ
CONST	ENDS
;	COMDAT ??_R4?$ScriptRegistrant@VSEye_C4_Update@@@@6B@
rdata$r	SEGMENT
??_R4?$ScriptRegistrant@VSEye_C4_Update@@@@6B@ DD 00H	; ScriptRegistrant<SEye_C4_Update>::`RTTI Complete Object Locator'
	DD	00H
	DD	00H
	DD	FLAT:??_R0?AV?$ScriptRegistrant@VSEye_C4_Update@@@@@8
	DD	FLAT:??_R3?$ScriptRegistrant@VSEye_C4_Update@@@@8
rdata$r	ENDS
;	COMDAT ??_R3?$ScriptRegistrant@VSEye_C4_Update@@@@8
rdata$r	SEGMENT
??_R3?$ScriptRegistrant@VSEye_C4_Update@@@@8 DD 00H	; ScriptRegistrant<SEye_C4_Update>::`RTTI Class Hierarchy Descriptor'
	DD	00H
	DD	02H
	DD	FLAT:??_R2?$ScriptRegistrant@VSEye_C4_Update@@@@8
rdata$r	ENDS
;	COMDAT ??_R2?$ScriptRegistrant@VSEye_C4_Update@@@@8
rdata$r	SEGMENT
??_R2?$ScriptRegistrant@VSEye_C4_Update@@@@8 DD FLAT:??_R1A@?0A@EA@?$ScriptRegistrant@VSEye_C4_Update@@@@8 ; ScriptRegistrant<SEye_C4_Update>::`RTTI Base Class Array'
	DD	FLAT:??_R1A@?0A@EA@ScriptFactory@@8
rdata$r	ENDS
;	COMDAT ??_R1A@?0A@EA@?$ScriptRegistrant@VSEye_C4_Update@@@@8
rdata$r	SEGMENT
??_R1A@?0A@EA@?$ScriptRegistrant@VSEye_C4_Update@@@@8 DD FLAT:??_R0?AV?$ScriptRegistrant@VSEye_C4_Update@@@@@8 ; ScriptRegistrant<SEye_C4_Update>::`RTTI Base Class Descriptor at (0,-1,0,64)'
	DD	01H
	DD	00H
	DD	0ffffffffH
	DD	00H
	DD	040H
	DD	FLAT:??_R3?$ScriptRegistrant@VSEye_C4_Update@@@@8
rdata$r	ENDS
;	COMDAT ??_R0?AV?$ScriptRegistrant@VSEye_C4_Update@@@@@8
_DATA	SEGMENT
??_R0?AV?$ScriptRegistrant@VSEye_C4_Update@@@@@8 DD FLAT:??_7type_info@@6B@ ; ScriptRegistrant<SEye_C4_Update> `RTTI Type Descriptor'
	DD	00H
	DB	'.?AV?$ScriptRegistrant@VSEye_C4_Update@@@@', 00H
_DATA	ENDS
;	COMDAT ??_7?$ScriptRegistrant@VSEye_Building_Update@@@@6B@
CONST	SEGMENT
??_7?$ScriptRegistrant@VSEye_Building_Update@@@@6B@ DD FLAT:??_R4?$ScriptRegistrant@VSEye_Building_Update@@@@6B@ ; ScriptRegistrant<SEye_Building_Update>::`vftable'
	DD	FLAT:??_E?$ScriptRegistrant@VSEye_Building_Update@@@@UAEPAXI@Z
	DD	FLAT:?Create@?$ScriptRegistrant@VSEye_Building_Update@@@@UAEPAVScriptImpClass@@XZ
CONST	ENDS
;	COMDAT ??_R4?$ScriptRegistrant@VSEye_Building_Update@@@@6B@
rdata$r	SEGMENT
??_R4?$ScriptRegistrant@VSEye_Building_Update@@@@6B@ DD 00H ; ScriptRegistrant<SEye_Building_Update>::`RTTI Complete Object Locator'
	DD	00H
	DD	00H
	DD	FLAT:??_R0?AV?$ScriptRegistrant@VSEye_Building_Update@@@@@8
	DD	FLAT:??_R3?$ScriptRegistrant@VSEye_Building_Update@@@@8
rdata$r	ENDS
;	COMDAT ??_R3?$ScriptRegistrant@VSEye_Building_Update@@@@8
rdata$r	SEGMENT
??_R3?$ScriptRegistrant@VSEye_Building_Update@@@@8 DD 00H ; ScriptRegistrant<SEye_Building_Update>::`RTTI Class Hierarchy Descriptor'
	DD	00H
	DD	02H
	DD	FLAT:??_R2?$ScriptRegistrant@VSEye_Building_Update@@@@8
rdata$r	ENDS
;	COMDAT ??_R2?$ScriptRegistrant@VSEye_Building_Update@@@@8
rdata$r	SEGMENT
??_R2?$ScriptRegistrant@VSEye_Building_Update@@@@8 DD FLAT:??_R1A@?0A@EA@?$ScriptRegistrant@VSEye_Building_Update@@@@8 ; ScriptRegistrant<SEye_Building_Update>::`RTTI Base Class Array'
	DD	FLAT:??_R1A@?0A@EA@ScriptFactory@@8
rdata$r	ENDS
;	COMDAT ??_R1A@?0A@EA@ScriptFactory@@8
rdata$r	SEGMENT
??_R1A@?0A@EA@ScriptFactory@@8 DD FLAT:??_R0?AVScriptFactory@@@8 ; ScriptFactory::`RTTI Base Class Descriptor at (0,-1,0,64)'
	DD	00H
	DD	00H
	DD	0ffffffffH
	DD	00H
	DD	040H
	DD	FLAT:??_R3ScriptFactory@@8
rdata$r	ENDS
;	COMDAT ??_R3ScriptFactory@@8
rdata$r	SEGMENT
??_R3ScriptFactory@@8 DD 00H				; ScriptFactory::`RTTI Class Hierarchy Descriptor'
	DD	00H
	DD	01H
	DD	FLAT:??_R2ScriptFactory@@8
rdata$r	ENDS
;	COMDAT ??_R2ScriptFactory@@8
rdata$r	SEGMENT
??_R2ScriptFactory@@8 DD FLAT:??_R1A@?0A@EA@ScriptFactory@@8 ; ScriptFactory::`RTTI Base Class Array'
rdata$r	ENDS
;	COMDAT ??_R0?AVScriptFactory@@@8
_DATA	SEGMENT
??_R0?AVScriptFactory@@@8 DD FLAT:??_7type_info@@6B@	; ScriptFactory `RTTI Type Descriptor'
	DD	00H
	DB	'.?AVScriptFactory@@', 00H
_DATA	ENDS
;	COMDAT ??_R1A@?0A@EA@?$ScriptRegistrant@VSEye_Building_Update@@@@8
rdata$r	SEGMENT
??_R1A@?0A@EA@?$ScriptRegistrant@VSEye_Building_Update@@@@8 DD FLAT:??_R0?AV?$ScriptRegistrant@VSEye_Building_Update@@@@@8 ; ScriptRegistrant<SEye_Building_Update>::`RTTI Base Class Descriptor at (0,-1,0,64)'
	DD	01H
	DD	00H
	DD	0ffffffffH
	DD	00H
	DD	040H
	DD	FLAT:??_R3?$ScriptRegistrant@VSEye_Building_Update@@@@8
rdata$r	ENDS
;	COMDAT ??_R0?AV?$ScriptRegistrant@VSEye_Building_Update@@@@@8
_DATA	SEGMENT
??_R0?AV?$ScriptRegistrant@VSEye_Building_Update@@@@@8 DD FLAT:??_7type_info@@6B@ ; ScriptRegistrant<SEye_Building_Update> `RTTI Type Descriptor'
	DD	00H
	DB	'.?AV?$ScriptRegistrant@VSEye_Building_Update@@@@', 00H
_DATA	ENDS
;	COMDAT ??_7SEye_Building_Update@@6B@
CONST	SEGMENT
??_7SEye_Building_Update@@6B@ DD FLAT:??_R4SEye_Building_Update@@6B@ ; SEye_Building_Update::`vftable'
	DD	FLAT:??_ESEye_Building_Update@@UAEPAXI@Z
	DD	FLAT:?Get_Name@ScriptImpClass@@UAEPADXZ
	DD	FLAT:?Attach@ScriptImpClass@@UAEXPAE@Z
	DD	FLAT:?Detach@ScriptImpClass@@UAEXPAE@Z
	DD	FLAT:?Created@SEye_Building_Update@@EAEXPAE@Z
	DD	FLAT:?Destroyed@ScriptImpClass@@UAEXPAE@Z
	DD	FLAT:?Killed@SEye_Building_Update@@EAEXPAE0@Z
	DD	FLAT:?Damaged@SEye_Building_Update@@EAEXPAE0M@Z
	DD	FLAT:?Custom@ScriptImpClass@@UAEXPAEHH0@Z
	DD	FLAT:?Sound_Heard@ScriptImpClass@@UAEXPAEABUCombatSound@@@Z
	DD	FLAT:?Enemy_Seen@ScriptImpClass@@UAEXPAE0@Z
	DD	FLAT:?Action_Complete@ScriptImpClass@@UAEXPAEHW4ActionCompleteReason@@@Z
	DD	FLAT:?Timer_Expired@SEye_Building_Update@@EAEXPAEH@Z
	DD	FLAT:?Animation_Complete@ScriptImpClass@@UAEXPAEPBD@Z
	DD	FLAT:?Poked@ScriptImpClass@@UAEXPAE0@Z
	DD	FLAT:?Entered@ScriptImpClass@@UAEXPAE0@Z
	DD	FLAT:?Exited@ScriptImpClass@@UAEXPAE0@Z
	DD	FLAT:?Owner@ScriptImpClass@@UAEPAEXZ
	DD	FLAT:?Get_Owner_Ptr@ScriptImpClass@@UAEPAPAEXZ
	DD	FLAT:?Set_Parameters_String@ScriptImpClass@@UAEXPBD@Z
	DD	FLAT:?Get_Parameters_String@ScriptImpClass@@UAEXPADI@Z
	DD	FLAT:?Save@ScriptImpClass@@UAEXAAE@Z
	DD	FLAT:?Load@ScriptImpClass@@UAEXAAE@Z
	DD	FLAT:?Save_Data@ScriptImpClass@@UAEXAAE@Z
	DD	FLAT:?Load_Data@ScriptImpClass@@UAEXAAE@Z
	DD	FLAT:?Register_Auto_Save_Variables@ScriptImpClass@@UAEXXZ
CONST	ENDS
;	COMDAT ??_R4SEye_Building_Update@@6B@
rdata$r	SEGMENT
??_R4SEye_Building_Update@@6B@ DD 00H			; SEye_Building_Update::`RTTI Complete Object Locator'
	DD	00H
	DD	00H
	DD	FLAT:??_R0?AVSEye_Building_Update@@@8
	DD	FLAT:??_R3SEye_Building_Update@@8
rdata$r	ENDS
;	COMDAT ??_R3SEye_Building_Update@@8
rdata$r	SEGMENT
??_R3SEye_Building_Update@@8 DD 00H			; SEye_Building_Update::`RTTI Class Hierarchy Descriptor'
	DD	00H
	DD	04H
	DD	FLAT:??_R2SEye_Building_Update@@8
rdata$r	ENDS
;	COMDAT ??_R2SEye_Building_Update@@8
rdata$r	SEGMENT
??_R2SEye_Building_Update@@8 DD FLAT:??_R1A@?0A@EA@SEye_Building_Update@@8 ; SEye_Building_Update::`RTTI Base Class Array'
	DD	FLAT:??_R1A@?0A@EA@ScriptImpClass@@8
	DD	FLAT:??_R1A@?0A@EA@ScriptClass@@8
	DD	FLAT:??_R1A@?0A@EA@GameObjObserverClass@@8
rdata$r	ENDS
;	COMDAT ??_R1A@?0A@EA@SEye_Building_Update@@8
rdata$r	SEGMENT
??_R1A@?0A@EA@SEye_Building_Update@@8 DD FLAT:??_R0?AVSEye_Building_Update@@@8 ; SEye_Building_Update::`RTTI Base Class Descriptor at (0,-1,0,64)'
	DD	03H
	DD	00H
	DD	0ffffffffH
	DD	00H
	DD	040H
	DD	FLAT:??_R3SEye_Building_Update@@8
rdata$r	ENDS
;	COMDAT ??_R0?AVSEye_Building_Update@@@8
_DATA	SEGMENT
??_R0?AVSEye_Building_Update@@@8 DD FLAT:??_7type_info@@6B@ ; SEye_Building_Update `RTTI Type Descriptor'
	DD	00H
	DB	'.?AVSEye_Building_Update@@', 00H
_DATA	ENDS
;	COMDAT ??_7SEye_C4_Update@@6B@
CONST	SEGMENT
??_7SEye_C4_Update@@6B@ DD FLAT:??_R4SEye_C4_Update@@6B@ ; SEye_C4_Update::`vftable'
	DD	FLAT:??_ESEye_C4_Update@@UAEPAXI@Z
	DD	FLAT:?Get_Name@ScriptImpClass@@UAEPADXZ
	DD	FLAT:?Attach@ScriptImpClass@@UAEXPAE@Z
	DD	FLAT:?Detach@ScriptImpClass@@UAEXPAE@Z
	DD	FLAT:?Created@SEye_C4_Update@@EAEXPAE@Z
	DD	FLAT:?Destroyed@SEye_C4_Update@@EAEXPAE@Z
	DD	FLAT:?Killed@SEye_C4_Update@@EAEXPAE0@Z
	DD	FLAT:?Damaged@ScriptImpClass@@UAEXPAE0M@Z
	DD	FLAT:?Custom@ScriptImpClass@@UAEXPAEHH0@Z
	DD	FLAT:?Sound_Heard@ScriptImpClass@@UAEXPAEABUCombatSound@@@Z
	DD	FLAT:?Enemy_Seen@ScriptImpClass@@UAEXPAE0@Z
	DD	FLAT:?Action_Complete@ScriptImpClass@@UAEXPAEHW4ActionCompleteReason@@@Z
	DD	FLAT:?Timer_Expired@SEye_C4_Update@@EAEXPAEH@Z
	DD	FLAT:?Animation_Complete@ScriptImpClass@@UAEXPAEPBD@Z
	DD	FLAT:?Poked@ScriptImpClass@@UAEXPAE0@Z
	DD	FLAT:?Entered@ScriptImpClass@@UAEXPAE0@Z
	DD	FLAT:?Exited@ScriptImpClass@@UAEXPAE0@Z
	DD	FLAT:?Owner@ScriptImpClass@@UAEPAEXZ
	DD	FLAT:?Get_Owner_Ptr@ScriptImpClass@@UAEPAPAEXZ
	DD	FLAT:?Set_Parameters_String@ScriptImpClass@@UAEXPBD@Z
	DD	FLAT:?Get_Parameters_String@ScriptImpClass@@UAEXPADI@Z
	DD	FLAT:?Save@ScriptImpClass@@UAEXAAE@Z
	DD	FLAT:?Load@ScriptImpClass@@UAEXAAE@Z
	DD	FLAT:?Save_Data@ScriptImpClass@@UAEXAAE@Z
	DD	FLAT:?Load_Data@ScriptImpClass@@UAEXAAE@Z
	DD	FLAT:?Register_Auto_Save_Variables@ScriptImpClass@@UAEXXZ
CONST	ENDS
;	COMDAT ??_R4SEye_C4_Update@@6B@
rdata$r	SEGMENT
??_R4SEye_C4_Update@@6B@ DD 00H				; SEye_C4_Update::`RTTI Complete Object Locator'
	DD	00H
	DD	00H
	DD	FLAT:??_R0?AVSEye_C4_Update@@@8
	DD	FLAT:??_R3SEye_C4_Update@@8
rdata$r	ENDS
;	COMDAT ??_R3SEye_C4_Update@@8
rdata$r	SEGMENT
??_R3SEye_C4_Update@@8 DD 00H				; SEye_C4_Update::`RTTI Class Hierarchy Descriptor'
	DD	00H
	DD	04H
	DD	FLAT:??_R2SEye_C4_Update@@8
rdata$r	ENDS
;	COMDAT ??_R2SEye_C4_Update@@8
rdata$r	SEGMENT
??_R2SEye_C4_Update@@8 DD FLAT:??_R1A@?0A@EA@SEye_C4_Update@@8 ; SEye_C4_Update::`RTTI Base Class Array'
	DD	FLAT:??_R1A@?0A@EA@ScriptImpClass@@8
	DD	FLAT:??_R1A@?0A@EA@ScriptClass@@8
	DD	FLAT:??_R1A@?0A@EA@GameObjObserverClass@@8
rdata$r	ENDS
;	COMDAT ??_R1A@?0A@EA@SEye_C4_Update@@8
rdata$r	SEGMENT
??_R1A@?0A@EA@SEye_C4_Update@@8 DD FLAT:??_R0?AVSEye_C4_Update@@@8 ; SEye_C4_Update::`RTTI Base Class Descriptor at (0,-1,0,64)'
	DD	03H
	DD	00H
	DD	0ffffffffH
	DD	00H
	DD	040H
	DD	FLAT:??_R3SEye_C4_Update@@8
rdata$r	ENDS
;	COMDAT ??_R0?AVSEye_C4_Update@@@8
_DATA	SEGMENT
??_R0?AVSEye_C4_Update@@@8 DD FLAT:??_7type_info@@6B@	; SEye_C4_Update `RTTI Type Descriptor'
	DD	00H
	DB	'.?AVSEye_C4_Update@@', 00H
_DATA	ENDS
;	COMDAT ??_7SEye_Vehicle_Update@@6B@
CONST	SEGMENT
??_7SEye_Vehicle_Update@@6B@ DD FLAT:??_R4SEye_Vehicle_Update@@6B@ ; SEye_Vehicle_Update::`vftable'
	DD	FLAT:??_ESEye_Vehicle_Update@@UAEPAXI@Z
	DD	FLAT:?Get_Name@ScriptImpClass@@UAEPADXZ
	DD	FLAT:?Attach@ScriptImpClass@@UAEXPAE@Z
	DD	FLAT:?Detach@ScriptImpClass@@UAEXPAE@Z
	DD	FLAT:?Created@SEye_Vehicle_Update@@EAEXPAE@Z
	DD	FLAT:?Destroyed@SEye_Vehicle_Update@@EAEXPAE@Z
	DD	FLAT:?Killed@ScriptImpClass@@UAEXPAE0@Z
	DD	FLAT:?Damaged@SEye_Vehicle_Update@@EAEXPAE0M@Z
	DD	FLAT:?Custom@SEye_Vehicle_Update@@EAEXPAEHH0@Z
	DD	FLAT:?Sound_Heard@ScriptImpClass@@UAEXPAEABUCombatSound@@@Z
	DD	FLAT:?Enemy_Seen@ScriptImpClass@@UAEXPAE0@Z
	DD	FLAT:?Action_Complete@ScriptImpClass@@UAEXPAEHW4ActionCompleteReason@@@Z
	DD	FLAT:?Timer_Expired@SEye_Vehicle_Update@@EAEXPAEH@Z
	DD	FLAT:?Animation_Complete@ScriptImpClass@@UAEXPAEPBD@Z
	DD	FLAT:?Poked@ScriptImpClass@@UAEXPAE0@Z
	DD	FLAT:?Entered@ScriptImpClass@@UAEXPAE0@Z
	DD	FLAT:?Exited@ScriptImpClass@@UAEXPAE0@Z
	DD	FLAT:?Owner@ScriptImpClass@@UAEPAEXZ
	DD	FLAT:?Get_Owner_Ptr@ScriptImpClass@@UAEPAPAEXZ
	DD	FLAT:?Set_Parameters_String@ScriptImpClass@@UAEXPBD@Z
	DD	FLAT:?Get_Parameters_String@ScriptImpClass@@UAEXPADI@Z
	DD	FLAT:?Save@ScriptImpClass@@UAEXAAE@Z
	DD	FLAT:?Load@ScriptImpClass@@UAEXAAE@Z
	DD	FLAT:?Save_Data@ScriptImpClass@@UAEXAAE@Z
	DD	FLAT:?Load_Data@ScriptImpClass@@UAEXAAE@Z
	DD	FLAT:?Register_Auto_Save_Variables@ScriptImpClass@@UAEXXZ
CONST	ENDS
;	COMDAT ??_R4SEye_Vehicle_Update@@6B@
rdata$r	SEGMENT
??_R4SEye_Vehicle_Update@@6B@ DD 00H			; SEye_Vehicle_Update::`RTTI Complete Object Locator'
	DD	00H
	DD	00H
	DD	FLAT:??_R0?AVSEye_Vehicle_Update@@@8
	DD	FLAT:??_R3SEye_Vehicle_Update@@8
rdata$r	ENDS
;	COMDAT ??_R3SEye_Vehicle_Update@@8
rdata$r	SEGMENT
??_R3SEye_Vehicle_Update@@8 DD 00H			; SEye_Vehicle_Update::`RTTI Class Hierarchy Descriptor'
	DD	00H
	DD	04H
	DD	FLAT:??_R2SEye_Vehicle_Update@@8
rdata$r	ENDS
;	COMDAT ??_R2SEye_Vehicle_Update@@8
rdata$r	SEGMENT
??_R2SEye_Vehicle_Update@@8 DD FLAT:??_R1A@?0A@EA@SEye_Vehicle_Update@@8 ; SEye_Vehicle_Update::`RTTI Base Class Array'
	DD	FLAT:??_R1A@?0A@EA@ScriptImpClass@@8
	DD	FLAT:??_R1A@?0A@EA@ScriptClass@@8
	DD	FLAT:??_R1A@?0A@EA@GameObjObserverClass@@8
rdata$r	ENDS
;	COMDAT ??_R1A@?0A@EA@SEye_Vehicle_Update@@8
rdata$r	SEGMENT
??_R1A@?0A@EA@SEye_Vehicle_Update@@8 DD FLAT:??_R0?AVSEye_Vehicle_Update@@@8 ; SEye_Vehicle_Update::`RTTI Base Class Descriptor at (0,-1,0,64)'
	DD	03H
	DD	00H
	DD	0ffffffffH
	DD	00H
	DD	040H
	DD	FLAT:??_R3SEye_Vehicle_Update@@8
rdata$r	ENDS
;	COMDAT ??_R0?AVSEye_Vehicle_Update@@@8
_DATA	SEGMENT
??_R0?AVSEye_Vehicle_Update@@@8 DD FLAT:??_7type_info@@6B@ ; SEye_Vehicle_Update `RTTI Type Descriptor'
	DD	00H
	DB	'.?AVSEye_Vehicle_Update@@', 00H
_DATA	ENDS
;	COMDAT ??_7SEye_Player_Update@@6B@
CONST	SEGMENT
??_7SEye_Player_Update@@6B@ DD FLAT:??_R4SEye_Player_Update@@6B@ ; SEye_Player_Update::`vftable'
	DD	FLAT:??_ESEye_Player_Update@@UAEPAXI@Z
	DD	FLAT:?Get_Name@ScriptImpClass@@UAEPADXZ
	DD	FLAT:?Attach@ScriptImpClass@@UAEXPAE@Z
	DD	FLAT:?Detach@ScriptImpClass@@UAEXPAE@Z
	DD	FLAT:?Created@SEye_Player_Update@@EAEXPAE@Z
	DD	FLAT:?Destroyed@SEye_Player_Update@@EAEXPAE@Z
	DD	FLAT:?Killed@SEye_Player_Update@@EAEXPAE0@Z
	DD	FLAT:?Damaged@SEye_Player_Update@@EAEXPAE0M@Z
	DD	FLAT:?Custom@ScriptImpClass@@UAEXPAEHH0@Z
	DD	FLAT:?Sound_Heard@ScriptImpClass@@UAEXPAEABUCombatSound@@@Z
	DD	FLAT:?Enemy_Seen@ScriptImpClass@@UAEXPAE0@Z
	DD	FLAT:?Action_Complete@ScriptImpClass@@UAEXPAEHW4ActionCompleteReason@@@Z
	DD	FLAT:?Timer_Expired@SEye_Player_Update@@EAEXPAEH@Z
	DD	FLAT:?Animation_Complete@ScriptImpClass@@UAEXPAEPBD@Z
	DD	FLAT:?Poked@ScriptImpClass@@UAEXPAE0@Z
	DD	FLAT:?Entered@ScriptImpClass@@UAEXPAE0@Z
	DD	FLAT:?Exited@ScriptImpClass@@UAEXPAE0@Z
	DD	FLAT:?Owner@ScriptImpClass@@UAEPAEXZ
	DD	FLAT:?Get_Owner_Ptr@ScriptImpClass@@UAEPAPAEXZ
	DD	FLAT:?Set_Parameters_String@ScriptImpClass@@UAEXPBD@Z
	DD	FLAT:?Get_Parameters_String@ScriptImpClass@@UAEXPADI@Z
	DD	FLAT:?Save@ScriptImpClass@@UAEXAAE@Z
	DD	FLAT:?Load@ScriptImpClass@@UAEXAAE@Z
	DD	FLAT:?Save_Data@ScriptImpClass@@UAEXAAE@Z
	DD	FLAT:?Load_Data@ScriptImpClass@@UAEXAAE@Z
	DD	FLAT:?Register_Auto_Save_Variables@ScriptImpClass@@UAEXXZ
CONST	ENDS
;	COMDAT ??_R4SEye_Player_Update@@6B@
rdata$r	SEGMENT
??_R4SEye_Player_Update@@6B@ DD 00H			; SEye_Player_Update::`RTTI Complete Object Locator'
	DD	00H
	DD	00H
	DD	FLAT:??_R0?AVSEye_Player_Update@@@8
	DD	FLAT:??_R3SEye_Player_Update@@8
rdata$r	ENDS
;	COMDAT ??_R3SEye_Player_Update@@8
rdata$r	SEGMENT
??_R3SEye_Player_Update@@8 DD 00H			; SEye_Player_Update::`RTTI Class Hierarchy Descriptor'
	DD	00H
	DD	04H
	DD	FLAT:??_R2SEye_Player_Update@@8
rdata$r	ENDS
;	COMDAT ??_R2SEye_Player_Update@@8
rdata$r	SEGMENT
??_R2SEye_Player_Update@@8 DD FLAT:??_R1A@?0A@EA@SEye_Player_Update@@8 ; SEye_Player_Update::`RTTI Base Class Array'
	DD	FLAT:??_R1A@?0A@EA@ScriptImpClass@@8
	DD	FLAT:??_R1A@?0A@EA@ScriptClass@@8
	DD	FLAT:??_R1A@?0A@EA@GameObjObserverClass@@8
rdata$r	ENDS
;	COMDAT ??_R1A@?0A@EA@SEye_Player_Update@@8
rdata$r	SEGMENT
??_R1A@?0A@EA@SEye_Player_Update@@8 DD FLAT:??_R0?AVSEye_Player_Update@@@8 ; SEye_Player_Update::`RTTI Base Class Descriptor at (0,-1,0,64)'
	DD	03H
	DD	00H
	DD	0ffffffffH
	DD	00H
	DD	040H
	DD	FLAT:??_R3SEye_Player_Update@@8
rdata$r	ENDS
;	COMDAT ??_R0?AVSEye_Player_Update@@@8
_DATA	SEGMENT
??_R0?AVSEye_Player_Update@@@8 DD FLAT:??_7type_info@@6B@ ; SEye_Player_Update `RTTI Type Descriptor'
	DD	00H
	DB	'.?AVSEye_Player_Update@@', 00H
_DATA	ENDS
;	COMDAT ??_7SEye_SOCKET@@6B@
CONST	SEGMENT
??_7SEye_SOCKET@@6B@ DD FLAT:??_R4SEye_SOCKET@@6B@	; SEye_SOCKET::`vftable'
	DD	FLAT:??_ESEye_SOCKET@@UAEPAXI@Z
	DD	FLAT:?Get_Name@ScriptImpClass@@UAEPADXZ
	DD	FLAT:?Attach@ScriptImpClass@@UAEXPAE@Z
	DD	FLAT:?Detach@ScriptImpClass@@UAEXPAE@Z
	DD	FLAT:?Created@SEye_SOCKET@@EAEXPAE@Z
	DD	FLAT:?Destroyed@ScriptImpClass@@UAEXPAE@Z
	DD	FLAT:?Killed@ScriptImpClass@@UAEXPAE0@Z
	DD	FLAT:?Damaged@ScriptImpClass@@UAEXPAE0M@Z
	DD	FLAT:?Custom@ScriptImpClass@@UAEXPAEHH0@Z
	DD	FLAT:?Sound_Heard@ScriptImpClass@@UAEXPAEABUCombatSound@@@Z
	DD	FLAT:?Enemy_Seen@ScriptImpClass@@UAEXPAE0@Z
	DD	FLAT:?Action_Complete@ScriptImpClass@@UAEXPAEHW4ActionCompleteReason@@@Z
	DD	FLAT:?Timer_Expired@SEye_SOCKET@@EAEXPAEH@Z
	DD	FLAT:?Animation_Complete@ScriptImpClass@@UAEXPAEPBD@Z
	DD	FLAT:?Poked@ScriptImpClass@@UAEXPAE0@Z
	DD	FLAT:?Entered@ScriptImpClass@@UAEXPAE0@Z
	DD	FLAT:?Exited@ScriptImpClass@@UAEXPAE0@Z
	DD	FLAT:?Owner@ScriptImpClass@@UAEPAEXZ
	DD	FLAT:?Get_Owner_Ptr@ScriptImpClass@@UAEPAPAEXZ
	DD	FLAT:?Set_Parameters_String@ScriptImpClass@@UAEXPBD@Z
	DD	FLAT:?Get_Parameters_String@ScriptImpClass@@UAEXPADI@Z
	DD	FLAT:?Save@ScriptImpClass@@UAEXAAE@Z
	DD	FLAT:?Load@ScriptImpClass@@UAEXAAE@Z
	DD	FLAT:?Save_Data@ScriptImpClass@@UAEXAAE@Z
	DD	FLAT:?Load_Data@ScriptImpClass@@UAEXAAE@Z
	DD	FLAT:?Register_Auto_Save_Variables@ScriptImpClass@@UAEXXZ
CONST	ENDS
;	COMDAT ??_R4SEye_SOCKET@@6B@
rdata$r	SEGMENT
??_R4SEye_SOCKET@@6B@ DD 00H				; SEye_SOCKET::`RTTI Complete Object Locator'
	DD	00H
	DD	00H
	DD	FLAT:??_R0?AVSEye_SOCKET@@@8
	DD	FLAT:??_R3SEye_SOCKET@@8
rdata$r	ENDS
;	COMDAT ??_R3SEye_SOCKET@@8
rdata$r	SEGMENT
??_R3SEye_SOCKET@@8 DD 00H				; SEye_SOCKET::`RTTI Class Hierarchy Descriptor'
	DD	00H
	DD	04H
	DD	FLAT:??_R2SEye_SOCKET@@8
rdata$r	ENDS
;	COMDAT ??_R2SEye_SOCKET@@8
rdata$r	SEGMENT
??_R2SEye_SOCKET@@8 DD FLAT:??_R1A@?0A@EA@SEye_SOCKET@@8 ; SEye_SOCKET::`RTTI Base Class Array'
	DD	FLAT:??_R1A@?0A@EA@ScriptImpClass@@8
	DD	FLAT:??_R1A@?0A@EA@ScriptClass@@8
	DD	FLAT:??_R1A@?0A@EA@GameObjObserverClass@@8
rdata$r	ENDS
;	COMDAT ??_R1A@?0A@EA@ScriptImpClass@@8
rdata$r	SEGMENT
??_R1A@?0A@EA@ScriptImpClass@@8 DD FLAT:??_R0?AVScriptImpClass@@@8 ; ScriptImpClass::`RTTI Base Class Descriptor at (0,-1,0,64)'
	DD	02H
	DD	00H
	DD	0ffffffffH
	DD	00H
	DD	040H
	DD	FLAT:??_R3ScriptImpClass@@8
rdata$r	ENDS
;	COMDAT ??_R3ScriptImpClass@@8
rdata$r	SEGMENT
??_R3ScriptImpClass@@8 DD 00H				; ScriptImpClass::`RTTI Class Hierarchy Descriptor'
	DD	00H
	DD	03H
	DD	FLAT:??_R2ScriptImpClass@@8
rdata$r	ENDS
;	COMDAT ??_R2ScriptImpClass@@8
rdata$r	SEGMENT
??_R2ScriptImpClass@@8 DD FLAT:??_R1A@?0A@EA@ScriptImpClass@@8 ; ScriptImpClass::`RTTI Base Class Array'
	DD	FLAT:??_R1A@?0A@EA@ScriptClass@@8
	DD	FLAT:??_R1A@?0A@EA@GameObjObserverClass@@8
rdata$r	ENDS
;	COMDAT ??_R1A@?0A@EA@ScriptClass@@8
rdata$r	SEGMENT
??_R1A@?0A@EA@ScriptClass@@8 DD FLAT:??_R0?AVScriptClass@@@8 ; ScriptClass::`RTTI Base Class Descriptor at (0,-1,0,64)'
	DD	01H
	DD	00H
	DD	0ffffffffH
	DD	00H
	DD	040H
	DD	FLAT:??_R3ScriptClass@@8
rdata$r	ENDS
;	COMDAT ??_R3ScriptClass@@8
rdata$r	SEGMENT
??_R3ScriptClass@@8 DD 00H				; ScriptClass::`RTTI Class Hierarchy Descriptor'
	DD	00H
	DD	02H
	DD	FLAT:??_R2ScriptClass@@8
rdata$r	ENDS
;	COMDAT ??_R2ScriptClass@@8
rdata$r	SEGMENT
??_R2ScriptClass@@8 DD FLAT:??_R1A@?0A@EA@ScriptClass@@8 ; ScriptClass::`RTTI Base Class Array'
	DD	FLAT:??_R1A@?0A@EA@GameObjObserverClass@@8
rdata$r	ENDS
;	COMDAT ??_R1A@?0A@EA@GameObjObserverClass@@8
rdata$r	SEGMENT
??_R1A@?0A@EA@GameObjObserverClass@@8 DD FLAT:??_R0?AVGameObjObserverClass@@@8 ; GameObjObserverClass::`RTTI Base Class Descriptor at (0,-1,0,64)'
	DD	00H
	DD	00H
	DD	0ffffffffH
	DD	00H
	DD	040H
	DD	FLAT:??_R3GameObjObserverClass@@8
rdata$r	ENDS
;	COMDAT ??_R3GameObjObserverClass@@8
rdata$r	SEGMENT
??_R3GameObjObserverClass@@8 DD 00H			; GameObjObserverClass::`RTTI Class Hierarchy Descriptor'
	DD	00H
	DD	01H
	DD	FLAT:??_R2GameObjObserverClass@@8
rdata$r	ENDS
;	COMDAT ??_R2GameObjObserverClass@@8
rdata$r	SEGMENT
??_R2GameObjObserverClass@@8 DD FLAT:??_R1A@?0A@EA@GameObjObserverClass@@8 ; GameObjObserverClass::`RTTI Base Class Array'
rdata$r	ENDS
;	COMDAT ??_R0?AVGameObjObserverClass@@@8
_DATA	SEGMENT
??_R0?AVGameObjObserverClass@@@8 DD FLAT:??_7type_info@@6B@ ; GameObjObserverClass `RTTI Type Descriptor'
	DD	00H
	DB	'.?AVGameObjObserverClass@@', 00H
_DATA	ENDS
;	COMDAT ??_R0?AVScriptClass@@@8
_DATA	SEGMENT
??_R0?AVScriptClass@@@8 DD FLAT:??_7type_info@@6B@	; ScriptClass `RTTI Type Descriptor'
	DD	00H
	DB	'.?AVScriptClass@@', 00H
_DATA	ENDS
;	COMDAT ??_R0?AVScriptImpClass@@@8
_DATA	SEGMENT
??_R0?AVScriptImpClass@@@8 DD FLAT:??_7type_info@@6B@	; ScriptImpClass `RTTI Type Descriptor'
	DD	00H
	DB	'.?AVScriptImpClass@@', 00H
_DATA	ENDS
;	COMDAT ??_R1A@?0A@EA@SEye_SOCKET@@8
rdata$r	SEGMENT
??_R1A@?0A@EA@SEye_SOCKET@@8 DD FLAT:??_R0?AVSEye_SOCKET@@@8 ; SEye_SOCKET::`RTTI Base Class Descriptor at (0,-1,0,64)'
	DD	03H
	DD	00H
	DD	0ffffffffH
	DD	00H
	DD	040H
	DD	FLAT:??_R3SEye_SOCKET@@8
rdata$r	ENDS
;	COMDAT ??_R0?AVSEye_SOCKET@@@8
_DATA	SEGMENT
??_R0?AVSEye_SOCKET@@@8 DD FLAT:??_7type_info@@6B@	; SEye_SOCKET `RTTI Type Descriptor'
	DD	00H
	DB	'.?AVSEye_SOCKET@@', 00H
_DATA	ENDS
;	COMDAT ??_C@_0BH@FPKMONJH@Unable?5to?5send?5packet?6?$AA@
CONST	SEGMENT
??_C@_0BH@FPKMONJH@Unable?5to?5send?5packet?6?$AA@ DB 'Unable to send pac'
	DB	'ket', 0aH, 00H				; `string'
CONST	ENDS
;	COMDAT ??_C@_05LFNECPGD@?$CC?$CFs?$CC?6?$AA@
CONST	SEGMENT
??_C@_05LFNECPGD@?$CC?$CFs?$CC?6?$AA@ DB '"%s"', 0aH, 00H ; `string'
CONST	ENDS
;	COMDAT ??_C@_0BF@EHJOBKHJ@New?5client?5accepted?6?$AA@
CONST	SEGMENT
??_C@_0BF@EHJOBKHJ@New?5client?5accepted?6?$AA@ DB 'New client accepted', 0aH
	DB	00H						; `string'
CONST	ENDS
;	COMDAT ??_C@_0BF@GCBADCAG@New?5client?5rejected?6?$AA@
CONST	SEGMENT
??_C@_0BF@GCBADCAG@New?5client?5rejected?6?$AA@ DB 'New client rejected', 0aH
	DB	00H						; `string'
CONST	ENDS
;	COMDAT ??_C@_0CK@NFJNGOJO@SEye?5client?5disconnected?5?$CIping?5t@
CONST	SEGMENT
??_C@_0CK@NFJNGOJO@SEye?5client?5disconnected?5?$CIping?5t@ DB 'SEye clie'
	DB	'nt disconnected (ping timeout).', 0aH, 00H	; `string'
CONST	ENDS
;	COMDAT ??_C@_0BL@KGBFPHLL@SEye?5client?5disconnected?$CB?6?$AA@
CONST	SEGMENT
??_C@_0BL@KGBFPHLL@SEye?5client?5disconnected?$CB?6?$AA@ DB 'SEye client '
	DB	'disconnected!', 0aH, 00H			; `string'
CONST	ENDS
;	COMDAT ??_C@_0BF@MCAOHKKL@SEye_Building_Update?$AA@
CONST	SEGMENT
??_C@_0BF@MCAOHKKL@SEye_Building_Update?$AA@ DB 'SEye_Building_Update', 00H ; `string'
CONST	ENDS
;	COMDAT ??_C@_0M@OPINOOFP@SEye_SOCKET?$AA@
CONST	SEGMENT
??_C@_0M@OPINOOFP@SEye_SOCKET?$AA@ DB 'SEye_SOCKET', 00H ; `string'
CONST	ENDS
;	COMDAT ??_C@_0CE@HIAMLLPN@SEye?5started?5successfuly?5on?5IP?3?5@
CONST	SEGMENT
??_C@_0CE@HIAMLLPN@SEye?5started?5successfuly?5on?5IP?3?5@ DB 'SEye start'
	DB	'ed successfuly on IP: %s', 0aH, 00H		; `string'
CONST	ENDS
;	COMDAT ??_C@_0BK@PIFHHBJL@Failed?5to?5bind?5to?5IP?3?5?$CFs?6?$AA@
CONST	SEGMENT
??_C@_0BK@PIFHHBJL@Failed?5to?5bind?5to?5IP?3?5?$CFs?6?$AA@ DB 'Failed to'
	DB	' bind to IP: %s', 0aH, 00H			; `string'
CONST	ENDS
;	COMDAT ??_C@_04KJAONJML@SEye?$AA@
CONST	SEGMENT
??_C@_04KJAONJML@SEye?$AA@ DB 'SEye', 00H		; `string'
CONST	ENDS
;	COMDAT ??_C@_07OHJJKHHI@Bind_IP?$AA@
CONST	SEGMENT
??_C@_07OHJJKHHI@Bind_IP?$AA@ DB 'Bind_IP', 00H		; `string'
CONST	ENDS
;	COMDAT ??_C@_09PFCHIMEP@127?40?40?41?$AA@
CONST	SEGMENT
??_C@_09PFCHIMEP@127?40?40?41?$AA@ DB '127.0.0.1', 00H	; `string'
CONST	ENDS
;	COMDAT ??_C@_0DB@HLGPIOGI@Failed?5to?5load?5SEye?5Server?0?5ini?5@
CONST	SEGMENT
??_C@_0DB@HLGPIOGI@Failed?5to?5load?5SEye?5Server?0?5ini?5@ DB 'Failed to'
	DB	' load SEye Server, ini file not found.', 0aH, 00H ; `string'
CONST	ENDS
;	COMDAT ??_C@_0M@FJCGCEP@?$CFs?2SEye?4ini?$AA@
CONST	SEGMENT
??_C@_0M@FJCGCEP@?$CFs?2SEye?4ini?$AA@ DB '%s\SEye.ini', 00H ; `string'
CONST	ENDS
;	COMDAT ??_C@_0P@EAMHLGBK@SEye_C4_Update?$AA@
CONST	SEGMENT
??_C@_0P@EAMHLGBK@SEye_C4_Update?$AA@ DB 'SEye_C4_Update', 00H ; `string'
CONST	ENDS
;	COMDAT ??_C@_0BE@KDALBFM@SEye_Vehicle_Update?$AA@
CONST	SEGMENT
??_C@_0BE@KDALBFM@SEye_Vehicle_Update?$AA@ DB 'SEye_Vehicle_Update', 00H ; `string'
CONST	ENDS
;	COMDAT ??_C@_0BD@CEEFLPHM@SEye_Player_Update?$AA@
CONST	SEGMENT
??_C@_0BD@CEEFLPHM@SEye_Player_Update?$AA@ DB 'SEye_Player_Update', 00H ; `string'
__bad_alloc_Message DD FLAT:??_C@_0P@GHFPNOJB@bad?5allocation?$AA@
PUBLIC	?Destroy@TCPSocket@@QAE_NXZ			; TCPSocket::Destroy
EXTRN	_memset:PROC
; Function compile flags: /Ogtpy
; File c:\users\admin\desktop\projects\seye_server\seye_server.cpp
;	COMDAT ?Destroy@TCPSocket@@QAE_NXZ
_TEXT	SEGMENT
?Destroy@TCPSocket@@QAE_NXZ PROC			; TCPSocket::Destroy, COMDAT
; _this$ = esi

; 1138 : 	shutdown(this->Socket, SD_BOTH);

	mov	eax, DWORD PTR [esi]
	push	2
	push	eax
	call	DWORD PTR __imp__shutdown@8

; 1139 : 	closesocket(this->Socket);

	mov	ecx, DWORD PTR [esi]
	push	ecx
	call	DWORD PTR __imp__closesocket@4

; 1140 : 
; 1141 : 	memset((void *)this, 0, sizeof(TCPSocket));

	push	272					; 00000110H
	push	0
	push	esi
	call	_memset
	add	esp, 12					; 0000000cH

; 1142 : 	return 0;

	xor	al, al

; 1143 : }

	ret	0
?Destroy@TCPSocket@@QAE_NXZ ENDP			; TCPSocket::Destroy
_TEXT	ENDS
PUBLIC	?Is_ConnectionWaiting@TCPSocket@@QAE_NXZ	; TCPSocket::Is_ConnectionWaiting
; Function compile flags: /Ogtpy
;	COMDAT ?Is_ConnectionWaiting@TCPSocket@@QAE_NXZ
_TEXT	SEGMENT
_tv$ = -276						; size = 8
_fd$ = -268						; size = 260
?Is_ConnectionWaiting@TCPSocket@@QAE_NXZ PROC		; TCPSocket::Is_ConnectionWaiting, COMDAT
; _this$ = eax

; 1066 : {

	sub	esp, 280				; 00000118H
	push	esi
	mov	esi, eax

; 1067 : 	if(this->Mode != 1)

	cmp	DWORD PTR [esi+268], 1

; 1068 : 	{
; 1069 : 		return 0;

	jne	$LN8@Is_Connect

; 1070 : 	}
; 1071 : 	
; 1072 : 	fd_set fd;
; 1073 : 	TIMEVAL tv;
; 1074 : 
; 1075 : 	tv.tv_sec = 0;
; 1076 : 	tv.tv_usec = 1000;
; 1077 : 
; 1078 : 	FD_ZERO(&fd);
; 1079 : 	FD_SET(this->Socket, &fd);

	mov	eax, DWORD PTR [esi]

; 1080 : 
; 1081 : 	if(select((int)this->Socket, &fd, 0, 0, &tv) == -1)

	lea	ecx, DWORD PTR _tv$[esp+284]
	push	ecx
	push	0
	push	0
	lea	edx, DWORD PTR _fd$[esp+296]
	push	edx
	push	eax
	mov	DWORD PTR _tv$[esp+304], 0
	mov	DWORD PTR _tv$[esp+308], 1000		; 000003e8H
	mov	DWORD PTR _fd$[esp+308], eax
	mov	DWORD PTR _fd$[esp+304], 1
	call	DWORD PTR __imp__select@20
	cmp	eax, -1

; 1082 : 	{
; 1083 : 		return 0;

	je	$LN8@Is_Connect

; 1084 : 	}
; 1085 : 
; 1086 : 	if(FD_ISSET(this->Socket, &fd))

	mov	ecx, DWORD PTR [esi]
	lea	eax, DWORD PTR _fd$[esp+284]
	push	eax
	push	ecx
	call	___WSAFDIsSet@8

; 1087 : 	{
; 1088 : 		FD_CLR(this->Socket, &fd);

	mov	ecx, DWORD PTR _fd$[esp+284]
	test	eax, eax
	je	SHORT $LN9@Is_Connect
	xor	eax, eax
	test	ecx, ecx
	jbe	SHORT $LN17@Is_Connect
	mov	esi, DWORD PTR [esi]
	npad	1
$LL15@Is_Connect:
	cmp	DWORD PTR _fd$[esp+eax*4+288], esi
	je	SHORT $LN35@Is_Connect
	inc	eax
	cmp	eax, ecx
	jb	SHORT $LL15@Is_Connect

; 1089 : 		return 1;

	mov	al, 1

; 1093 : }

	pop	esi
	add	esp, 280				; 00000118H
	ret	0
$LN35@Is_Connect:

; 1087 : 	{
; 1088 : 		FD_CLR(this->Socket, &fd);

	dec	ecx
	cmp	eax, ecx
	jae	SHORT $LN17@Is_Connect
	npad	6
$LL11@Is_Connect:
	mov	edx, DWORD PTR _fd$[esp+eax*4+292]
	mov	DWORD PTR _fd$[esp+eax*4+288], edx
	mov	ecx, DWORD PTR _fd$[esp+284]
	inc	eax
	dec	ecx
	cmp	eax, ecx
	jb	SHORT $LL11@Is_Connect
$LN17@Is_Connect:

; 1089 : 		return 1;

	mov	al, 1

; 1093 : }

	pop	esi
	add	esp, 280				; 00000118H
	ret	0
$LN9@Is_Connect:

; 1090 : 	}
; 1091 : 	FD_CLR(this->Socket, &fd);

	xor	eax, eax
	test	ecx, ecx
	jbe	SHORT $LN8@Is_Connect
	mov	esi, DWORD PTR [esi]
$LL6@Is_Connect:
	cmp	DWORD PTR _fd$[esp+eax*4+288], esi
	je	SHORT $LN37@Is_Connect
	inc	eax
	cmp	eax, ecx
	jb	SHORT $LL6@Is_Connect

; 1092 : 	return 0;

	xor	al, al

; 1093 : }

	pop	esi
	add	esp, 280				; 00000118H
	ret	0
$LN37@Is_Connect:

; 1090 : 	}
; 1091 : 	FD_CLR(this->Socket, &fd);

	dec	ecx
	cmp	eax, ecx
	jae	SHORT $LN8@Is_Connect
	npad	2
$LL2@Is_Connect:
	mov	edx, DWORD PTR _fd$[esp+eax*4+292]
	mov	DWORD PTR _fd$[esp+eax*4+288], edx
	mov	ecx, DWORD PTR _fd$[esp+284]
	inc	eax
	dec	ecx
	cmp	eax, ecx
	jb	SHORT $LL2@Is_Connect
$LN8@Is_Connect:

; 1092 : 	return 0;

	xor	al, al

; 1093 : }

	pop	esi
	add	esp, 280				; 00000118H
	ret	0
?Is_ConnectionWaiting@TCPSocket@@QAE_NXZ ENDP		; TCPSocket::Is_ConnectionWaiting
_TEXT	ENDS
PUBLIC	?Is_Connected@TCPSocket@@QAE_NXZ		; TCPSocket::Is_Connected
; Function compile flags: /Ogtpy
;	COMDAT ?Is_Connected@TCPSocket@@QAE_NXZ
_TEXT	SEGMENT
_tv$ = -276						; size = 8
_fd$ = -268						; size = 260
?Is_Connected@TCPSocket@@QAE_NXZ PROC			; TCPSocket::Is_Connected, COMDAT
; _this$ = eax

; 1001 : {

	sub	esp, 280				; 00000118H
	push	esi
	mov	esi, eax

; 1002 : 	if(this->Mode == 1)

	cmp	DWORD PTR [esi+268], 1

; 1003 : 	{
; 1004 : 		return 1;

	je	$LN17@Is_Connect@2

; 1005 : 	}
; 1006 : 
; 1007 : 	fd_set fd;
; 1008 : 	TIMEVAL tv;
; 1009 : 
; 1010 : 	tv.tv_sec = 0;
; 1011 : 	tv.tv_usec = 1000;
; 1012 : 
; 1013 : 	FD_ZERO(&fd);
; 1014 : 	FD_SET(this->Socket, &fd);

	mov	eax, DWORD PTR [esi]

; 1015 : 
; 1016 : 	if(select((int)this->Socket, 0, &fd, 0, &tv) == -1)

	lea	ecx, DWORD PTR _tv$[esp+284]
	push	ecx
	push	0
	lea	edx, DWORD PTR _fd$[esp+292]
	push	edx
	push	0
	push	eax
	mov	DWORD PTR _tv$[esp+304], 0
	mov	DWORD PTR _tv$[esp+308], 1000		; 000003e8H
	mov	DWORD PTR _fd$[esp+308], eax
	mov	DWORD PTR _fd$[esp+304], 1
	call	DWORD PTR __imp__select@20
	cmp	eax, -1

; 1017 : 	{
; 1018 : 		return 0;

	je	$LN8@Is_Connect@2

; 1019 : 	}
; 1020 : 
; 1021 : 	if(FD_ISSET(this->Socket, &fd))

	mov	ecx, DWORD PTR [esi]
	lea	eax, DWORD PTR _fd$[esp+284]
	push	eax
	push	ecx
	call	___WSAFDIsSet@8

; 1022 : 	{
; 1023 : 		FD_CLR(this->Socket, &fd);

	mov	ecx, DWORD PTR _fd$[esp+284]
	test	eax, eax
	je	SHORT $LN9@Is_Connect@2
	xor	eax, eax
	test	ecx, ecx
	jbe	SHORT $LN17@Is_Connect@2
	mov	esi, DWORD PTR [esi]
	npad	1
$LL15@Is_Connect@2:
	cmp	DWORD PTR _fd$[esp+eax*4+288], esi
	je	SHORT $LN35@Is_Connect@2
	inc	eax
	cmp	eax, ecx
	jb	SHORT $LL15@Is_Connect@2

; 1024 : 		return 1;

	mov	al, 1

; 1029 : }

	pop	esi
	add	esp, 280				; 00000118H
	ret	0
$LN35@Is_Connect@2:

; 1022 : 	{
; 1023 : 		FD_CLR(this->Socket, &fd);

	dec	ecx
	cmp	eax, ecx
	jae	SHORT $LN17@Is_Connect@2
	npad	6
$LL11@Is_Connect@2:
	mov	edx, DWORD PTR _fd$[esp+eax*4+292]
	mov	DWORD PTR _fd$[esp+eax*4+288], edx
	mov	ecx, DWORD PTR _fd$[esp+284]
	inc	eax
	dec	ecx
	cmp	eax, ecx
	jb	SHORT $LL11@Is_Connect@2
$LN17@Is_Connect@2:

; 1024 : 		return 1;

	mov	al, 1

; 1029 : }

	pop	esi
	add	esp, 280				; 00000118H
	ret	0
$LN9@Is_Connect@2:

; 1025 : 	}
; 1026 : 	FD_CLR(this->Socket, &fd);

	xor	eax, eax
	test	ecx, ecx
	jbe	SHORT $LN8@Is_Connect@2
	mov	esi, DWORD PTR [esi]
$LL6@Is_Connect@2:
	cmp	DWORD PTR _fd$[esp+eax*4+288], esi
	je	SHORT $LN37@Is_Connect@2
	inc	eax
	cmp	eax, ecx
	jb	SHORT $LL6@Is_Connect@2

; 1027 : 
; 1028 : 	return 0;

	xor	al, al

; 1029 : }

	pop	esi
	add	esp, 280				; 00000118H
	ret	0
$LN37@Is_Connect@2:

; 1025 : 	}
; 1026 : 	FD_CLR(this->Socket, &fd);

	dec	ecx
	cmp	eax, ecx
	jae	SHORT $LN8@Is_Connect@2
	npad	2
$LL2@Is_Connect@2:
	mov	edx, DWORD PTR _fd$[esp+eax*4+292]
	mov	DWORD PTR _fd$[esp+eax*4+288], edx
	mov	ecx, DWORD PTR _fd$[esp+284]
	inc	eax
	dec	ecx
	cmp	eax, ecx
	jb	SHORT $LL2@Is_Connect@2
$LN8@Is_Connect@2:

; 1027 : 
; 1028 : 	return 0;

	xor	al, al

; 1029 : }

	pop	esi
	add	esp, 280				; 00000118H
	ret	0
?Is_Connected@TCPSocket@@QAE_NXZ ENDP			; TCPSocket::Is_Connected
_TEXT	ENDS
PUBLIC	?Server@TCPSocket@@QAE_NPBDHH@Z			; TCPSocket::Server
; Function compile flags: /Ogtpy
;	COMDAT ?Server@TCPSocket@@QAE_NPBDHH@Z
_TEXT	SEGMENT
_service$ = -16						; size = 16
_IP$ = 8						; size = 4
?Server@TCPSocket@@QAE_NPBDHH@Z PROC			; TCPSocket::Server, COMDAT

; 972  : {

	sub	esp, 20					; 00000014H
	push	ebp
	mov	ebp, DWORD PTR _IP$[esp+20]
	push	esi
	push	edi
	mov	edi, DWORD PTR ?t_Sock@@3PAVTCPSocket@@A ; t_Sock

; 973  : 	SOCKET server = socket(AF_INET, SOCK_STREAM, IPPROTO_TCP);

	push	6
	push	1
	push	2
	call	DWORD PTR __imp__socket@12
	mov	esi, eax

; 974  : 	if (server == INVALID_SOCKET) 

	cmp	esi, -1
	jne	SHORT $LN3@Server
$LN8@Server:

; 975  : 	{
; 976  : 		return 0;

	xor	al, al

; 997  : 	return 1;
; 998  : }

	pop	edi
	pop	esi
	pop	ebp
	add	esp, 20					; 00000014H
	ret	4
$LN3@Server:

; 977  : 	}
; 978  : 
; 979  : 	sockaddr_in service;
; 980  : 	service.sin_family = AF_INET;

	mov	eax, 2
	mov	WORD PTR _service$[esp+32], ax

; 981  : 	service.sin_addr.s_addr = inet_addr(IP == 0 ? "127.0.0.1" : IP);

	mov	eax, OFFSET ??_C@_09PFCHIMEP@127?40?40?41?$AA@
	test	ebp, ebp
	je	SHORT $LN7@Server
	mov	eax, ebp
$LN7@Server:
	push	eax
	call	DWORD PTR __imp__inet_addr@4

; 982  : 	service.sin_port = htons((u_short)Port);

	push	322					; 00000142H
	mov	DWORD PTR _service$[esp+40], eax
	call	DWORD PTR __imp__htons@4

; 983  : 
; 984  : 	if(bind(server, (SOCKADDR*) &service, sizeof(service)) == SOCKET_ERROR) 

	push	16					; 00000010H
	lea	ecx, DWORD PTR _service$[esp+36]
	push	ecx
	push	esi
	mov	WORD PTR _service$[esp+46], ax
	call	DWORD PTR __imp__bind@12
	cmp	eax, -1

; 985  : 	{
; 986  : 		return 0;

	je	SHORT $LN8@Server

; 987  : 	}
; 988  : 
; 989  : 	if (listen(server, Backlog) == SOCKET_ERROR) 

	push	3
	push	esi
	call	DWORD PTR __imp__listen@8
	cmp	eax, -1

; 990  : 	{
; 991  : 		return 0;

	je	SHORT $LN8@Server

; 992  : 	}
; 993  : 	
; 994  : 	this->Socket = server;

	mov	DWORD PTR [edi], esi

; 995  : 	this->Mode = 1;

	mov	DWORD PTR [edi+268], 1

; 996  : 	this->Connected = 1;

	mov	BYTE PTR [edi+264], 1

; 997  : 	return 1;
; 998  : }

	pop	edi
	pop	esi
	mov	al, 1
	pop	ebp
	add	esp, 20					; 00000014H
	ret	4
?Server@TCPSocket@@QAE_NPBDHH@Z ENDP			; TCPSocket::Server
_TEXT	ENDS
PUBLIC	??1TCPSocket@@QAE@XZ				; TCPSocket::~TCPSocket
; Function compile flags: /Ogtpy
;	COMDAT ??1TCPSocket@@QAE@XZ
_TEXT	SEGMENT
??1TCPSocket@@QAE@XZ PROC				; TCPSocket::~TCPSocket, COMDAT
; _this$ = esi

; 936  : 	shutdown(this->Socket, SD_BOTH);

	mov	eax, DWORD PTR [esi]
	push	2
	push	eax
	call	DWORD PTR __imp__shutdown@8

; 937  : 	closesocket(this->Socket);

	mov	ecx, DWORD PTR [esi]
	push	ecx
	call	DWORD PTR __imp__closesocket@4

; 938  : 	memset((void *)this, 0, sizeof(TCPSocket));

	push	272					; 00000110H
	push	0
	push	esi
	call	_memset
	add	esp, 12					; 0000000cH

; 939  : }

	ret	0
??1TCPSocket@@QAE@XZ ENDP				; TCPSocket::~TCPSocket
_TEXT	ENDS
PUBLIC	??0TCPSocket@@AAE@AAIH@Z			; TCPSocket::TCPSocket
; Function compile flags: /Ogtpy
;	COMDAT ??0TCPSocket@@AAE@AAIH@Z
_TEXT	SEGMENT
__Socket$ = 8						; size = 4
??0TCPSocket@@AAE@AAIH@Z PROC				; TCPSocket::TCPSocket, COMDAT
; _this$ = esi

; 928  : 	memset((void *)this, 0, sizeof(TCPSocket));

	push	272					; 00000110H
	push	0
	push	esi
	call	_memset

; 929  : 	this->Socket = _Socket;

	mov	eax, DWORD PTR __Socket$[esp+8]
	mov	ecx, DWORD PTR [eax]
	add	esp, 12					; 0000000cH
	mov	DWORD PTR [esi], ecx

; 930  : 	this->Mode = _Mode;

	mov	DWORD PTR [esi+268], 0

; 931  : 	this->Connected = 1;

	mov	BYTE PTR [esi+264], 1

; 932  : }

	mov	eax, esi
	ret	4
??0TCPSocket@@AAE@AAIH@Z ENDP				; TCPSocket::TCPSocket
_TEXT	ENDS
PUBLIC	??0TCPSocket@@QAE@XZ				; TCPSocket::TCPSocket
; Function compile flags: /Ogtpy
;	COMDAT ??0TCPSocket@@QAE@XZ
_TEXT	SEGMENT
??0TCPSocket@@QAE@XZ PROC				; TCPSocket::TCPSocket, COMDAT
; _this$ = esi

; 906  : 	memset((void *)this, 0, sizeof(TCPSocket));

	push	272					; 00000110H
	push	0
	push	esi
	call	_memset
	add	esp, 12					; 0000000cH

; 907  : }

	mov	eax, esi
	ret	0
??0TCPSocket@@QAE@XZ ENDP				; TCPSocket::TCPSocket
_TEXT	ENDS
PUBLIC	?GetSize@SEyePacket@SEye@@QAEHXZ		; SEye::SEyePacket::GetSize
; Function compile flags: /Ogtpy
;	COMDAT ?GetSize@SEyePacket@SEye@@QAEHXZ
_TEXT	SEGMENT
?GetSize@SEyePacket@SEye@@QAEHXZ PROC			; SEye::SEyePacket::GetSize, COMDAT
; _this$ = eax

; 876  : 	return _Size+8;

	movzx	eax, BYTE PTR [eax]
	add	eax, 8

; 877  : }

	ret	0
?GetSize@SEyePacket@SEye@@QAEHXZ ENDP			; SEye::SEyePacket::GetSize
_TEXT	ENDS
PUBLIC	?GetType@SEyePacket@SEye@@QAEEXZ		; SEye::SEyePacket::GetType
; Function compile flags: /Ogtpy
;	COMDAT ?GetType@SEyePacket@SEye@@QAEEXZ
_TEXT	SEGMENT
?GetType@SEyePacket@SEye@@QAEEXZ PROC			; SEye::SEyePacket::GetType, COMDAT

; 871  : 	return _Type;

	mov	al, BYTE PTR ?sp_tempPacket@SEye_SOCKET@@0VSEyePacket@SEye@@A+1

; 872  : }

	ret	0
?GetType@SEyePacket@SEye@@QAEEXZ ENDP			; SEye::SEyePacket::GetType
_TEXT	ENDS
PUBLIC	?SetType@SEyePacket@SEye@@QAEXE@Z		; SEye::SEyePacket::SetType
; Function compile flags: /Ogtpy
;	COMDAT ?SetType@SEyePacket@SEye@@QAEXE@Z
_TEXT	SEGMENT
?SetType@SEyePacket@SEye@@QAEXE@Z PROC			; SEye::SEyePacket::SetType, COMDAT
; _this$ = eax
; _Type$ = ecx

; 866  : 	_Type = Type;

	mov	BYTE PTR [eax+1], cl

; 867  : }

	ret	0
?SetType@SEyePacket@SEye@@QAEXE@Z ENDP			; SEye::SEyePacket::SetType
_TEXT	ENDS
PUBLIC	?Pack@SEyePacket@SEye@@QAEXPBDH@Z		; SEye::SEyePacket::Pack
; Function compile flags: /Ogtpy
;	COMDAT ?Pack@SEyePacket@SEye@@QAEXPBDH@Z
_TEXT	SEGMENT
?Pack@SEyePacket@SEye@@QAEXPBDH@Z PROC			; SEye::SEyePacket::Pack, COMDAT
; _this$ = eax
; _Data$ = esi
; _Size$ = ecx

; 853  : 	for(; Size > 0; Size--)

	test	ecx, ecx
	jle	SHORT $LN1@Pack
	push	ebx
$LL3@Pack:

; 854  : 	{
; 855  : 		_Data[_Size++] = (unsigned char)Data[Size-1];

	movzx	edx, BYTE PTR [eax]
	mov	bl, BYTE PTR [esi+ecx-1]
	mov	BYTE PTR [edx+eax+2], bl
	inc	BYTE PTR [eax]
	dec	ecx
	test	ecx, ecx
	jg	SHORT $LL3@Pack
	pop	ebx
$LN1@Pack:

; 856  : 	}
; 857  : }

	ret	0
?Pack@SEyePacket@SEye@@QAEXPBDH@Z ENDP			; SEye::SEyePacket::Pack
_TEXT	ENDS
PUBLIC	?Unpack@SEyePacket@SEye@@QAEXPADH@Z		; SEye::SEyePacket::Unpack
; Function compile flags: /Ogtpy
;	COMDAT ?Unpack@SEyePacket@SEye@@QAEXPADH@Z
_TEXT	SEGMENT
?Unpack@SEyePacket@SEye@@QAEXPADH@Z PROC		; SEye::SEyePacket::Unpack, COMDAT
; _Data$ = edi
; _Size$ = esi

; 833  : 	for(int i = 0; i < Size; i++)

	xor	eax, eax
	test	esi, esi
	jle	SHORT $LN1@Unpack
	mov	cl, BYTE PTR ?sp_tempPacket@SEye_SOCKET@@0VSEyePacket@SEye@@A
	npad	4
$LL3@Unpack:

; 834  : 	{
; 835  : 		Data[i] = (char)_Data[(_Size--)-1];

	movzx	edx, cl
	mov	dl, BYTE PTR ?sp_tempPacket@SEye_SOCKET@@0VSEyePacket@SEye@@A[edx+1]
	mov	BYTE PTR [eax+edi], dl
	dec	cl
	inc	eax
	cmp	eax, esi
	mov	BYTE PTR ?sp_tempPacket@SEye_SOCKET@@0VSEyePacket@SEye@@A, cl
	jl	SHORT $LL3@Unpack
$LN1@Unpack:

; 836  : 	}
; 837  : }

	ret	0
?Unpack@SEyePacket@SEye@@QAEXPADH@Z ENDP		; SEye::SEyePacket::Unpack
; Function compile flags: /Ogtpy
_TEXT	ENDS
;	COMDAT ?Killed@SEye_C4_Update@@EAEXPAE0@Z
_TEXT	SEGMENT
_o$ = 8							; size = 4
_Shooter$ = 12						; size = 4
?Killed@SEye_C4_Update@@EAEXPAE0@Z PROC			; SEye_C4_Update::Killed, COMDAT
; _this$ = ecx

; 704  : 		Explode = 1;

	mov	BYTE PTR [ecx+32], 1

; 705  : 	}

	ret	8
?Killed@SEye_C4_Update@@EAEXPAE0@Z ENDP			; SEye_C4_Update::Killed
_TEXT	ENDS
PUBLIC	__real@3dcccccd
;	COMDAT __real@3dcccccd
CONST	SEGMENT
__real@3dcccccd DD 03dcccccdr			; 0.1
; Function compile flags: /Ogtpy
CONST	ENDS
;	COMDAT ?Created@SEye_SOCKET@@EAEXPAE@Z
_TEXT	SEGMENT
_o$ = 8							; size = 4
?Created@SEye_SOCKET@@EAEXPAE@Z PROC			; SEye_SOCKET::Created, COMDAT
; _this$ = ecx

; 202  : 		Commands->Start_Timer(o, this, 0.1, 1);

	fld	DWORD PTR __real@3dcccccd
	mov	eax, DWORD PTR _o$[esp-4]
	push	1
	push	ecx
	fstp	DWORD PTR [esp]
	push	ecx
	mov	ecx, DWORD PTR ?Commands@@3PAUScriptCommands@@A ; Commands
	mov	edx, DWORD PTR [ecx+128]
	push	eax
	call	edx
	add	esp, 16					; 00000010H

; 203  : 	}

	ret	4
?Created@SEye_SOCKET@@EAEXPAE@Z ENDP			; SEye_SOCKET::Created
; Function compile flags: /Ogtpy
_TEXT	ENDS
;	COMDAT ??_GTCPSocket@@QAEPAXI@Z
_TEXT	SEGMENT
??_GTCPSocket@@QAEPAXI@Z PROC				; TCPSocket::`scalar deleting destructor', COMDAT
; _this$ = esi
	mov	eax, DWORD PTR [esi]
	push	2
	push	eax
	call	DWORD PTR __imp__shutdown@8
	mov	ecx, DWORD PTR [esi]
	push	ecx
	call	DWORD PTR __imp__closesocket@4
	push	272					; 00000110H
	push	0
	push	esi
	call	_memset
	push	esi
	call	DWORD PTR ?RenDelete@@3P6AXPAX@ZA	; RenDelete
	add	esp, 16					; 00000010H
	mov	eax, esi
	ret	0
??_GTCPSocket@@QAEPAXI@Z ENDP				; TCPSocket::`scalar deleting destructor'
_TEXT	ENDS
PUBLIC	?Unload@SEye_Server@@SAXXZ			; SEye_Server::Unload
; Function compile flags: /Ogtpy
;	COMDAT ?Unload@SEye_Server@@SAXXZ
_TEXT	SEGMENT
?Unload@SEye_Server@@SAXXZ PROC				; SEye_Server::Unload, COMDAT

; 117  : {

	push	ebx

; 118  : 	if(t_Client)

	mov	ebx, DWORD PTR ?t_Client@@3PAVTCPSocket@@A ; t_Client
	push	esi
	mov	esi, DWORD PTR __imp__shutdown@8
	push	edi
	mov	edi, DWORD PTR __imp__closesocket@4
	test	ebx, ebx
	je	SHORT $LN2@Unload

; 119  : 	{
; 120  : 		t_Client->Destroy();

	mov	eax, DWORD PTR [ebx]
	push	2
	push	eax
	call	esi
	mov	ecx, DWORD PTR [ebx]
	push	ecx
	call	edi
	push	272					; 00000110H
	push	0
	push	ebx
	call	_memset

; 121  : 		delete t_Client;

	mov	ebx, DWORD PTR ?t_Client@@3PAVTCPSocket@@A ; t_Client
	add	esp, 12					; 0000000cH
	test	ebx, ebx
	je	SHORT $LN5@Unload
	mov	edx, DWORD PTR [ebx]
	push	2
	push	edx
	call	esi
	mov	eax, DWORD PTR [ebx]
	push	eax
	call	edi
	push	272					; 00000110H
	push	0
	push	ebx
	call	_memset
	push	ebx
	call	DWORD PTR ?RenDelete@@3P6AXPAX@ZA	; RenDelete
	add	esp, 16					; 00000010H
$LN5@Unload:

; 122  : 		t_Client = 0;

	mov	DWORD PTR ?t_Client@@3PAVTCPSocket@@A, 0 ; t_Client
$LN2@Unload:

; 123  : 	}
; 124  : 	if(t_Sock)

	mov	ebx, DWORD PTR ?t_Sock@@3PAVTCPSocket@@A ; t_Sock
	test	ebx, ebx
	je	SHORT $LN1@Unload

; 125  : 	{
; 126  : 		t_Sock->Destroy();

	mov	ecx, DWORD PTR [ebx]
	push	2
	push	ecx
	call	esi
	mov	edx, DWORD PTR [ebx]
	push	edx
	call	edi
	push	272					; 00000110H
	push	0
	push	ebx
	call	_memset

; 127  : 		delete t_Sock;

	mov	ebx, DWORD PTR ?t_Sock@@3PAVTCPSocket@@A ; t_Sock
	add	esp, 12					; 0000000cH
	test	ebx, ebx
	je	SHORT $LN7@Unload
	mov	eax, DWORD PTR [ebx]
	push	2
	push	eax
	call	esi
	mov	ecx, DWORD PTR [ebx]
	push	ecx
	call	edi
	push	272					; 00000110H
	push	0
	push	ebx
	call	_memset
	push	ebx
	call	DWORD PTR ?RenDelete@@3P6AXPAX@ZA	; RenDelete
	add	esp, 16					; 00000010H
$LN7@Unload:

; 128  : 		t_Sock = 0;

	mov	DWORD PTR ?t_Sock@@3PAVTCPSocket@@A, 0	; t_Sock
$LN1@Unload:
	pop	edi
	pop	esi
	pop	ebx

; 129  : 	}
; 130  : }

	ret	0
?Unload@SEye_Server@@SAXXZ ENDP				; SEye_Server::Unload
_TEXT	ENDS
PUBLIC	?GetModulePath@@YAKPAUHINSTANCE__@@PADK@Z	; GetModulePath
; Function compile flags: /Ogtpy
;	COMDAT ?GetModulePath@@YAKPAUHINSTANCE__@@PADK@Z
_TEXT	SEGMENT
?GetModulePath@@YAKPAUHINSTANCE__@@PADK@Z PROC		; GetModulePath, COMDAT
; _pszBuffer$ = ecx
; _dwLength$ = eax

; 74   : {

$LL3@GetModuleP:

; 75   : 	DWORD dwLength = GetModuleFileName( hInst, pszBuffer, dwSize );
; 76   : 	if( dwLength )
; 77   : 	{
; 78   : 		while( dwLength && pszBuffer[ dwLength ] != '\\')

	cmp	BYTE PTR [eax+ecx], 92			; 0000005cH
	je	SHORT $LN2@GetModuleP

; 79   : 		{
; 80   : 			dwLength--;

	sub	eax, 1

; 75   : 	DWORD dwLength = GetModuleFileName( hInst, pszBuffer, dwSize );
; 76   : 	if( dwLength )
; 77   : 	{
; 78   : 		while( dwLength && pszBuffer[ dwLength ] != '\\')

	jne	SHORT $LL3@GetModuleP

; 85   : 	}
; 86   : 	return dwLength;
; 87   : }

	ret	0
$LN2@GetModuleP:

; 81   : 		}
; 82   : 
; 83   : 		if( dwLength )

	test	eax, eax
	je	SHORT $LN1@GetModuleP

; 84   : 			pszBuffer[ dwLength] = '\000';

	mov	BYTE PTR [eax+ecx], 0
$LN1@GetModuleP:

; 85   : 	}
; 86   : 	return dwLength;
; 87   : }

	ret	0
?GetModulePath@@YAKPAUHINSTANCE__@@PADK@Z ENDP		; GetModulePath
_TEXT	ENDS
PUBLIC	?wcsTombs@@YAXPADPB_W@Z				; wcsTombs
; Function compile flags: /Ogtpy
;	COMDAT ?wcsTombs@@YAXPADPB_W@Z
_TEXT	SEGMENT
?wcsTombs@@YAXPADPB_W@Z PROC				; wcsTombs, COMDAT
; _cstr$ = ecx
; _wcts_buf$ = eax

; 13   : 	for(; *wcts_buf != 0; wcts_buf++)

	cmp	WORD PTR [eax], 0
	je	SHORT $LN8@wcsTombs
$LL3@wcsTombs:

; 14   : 	{
; 15   : 		*cstr = (char)*wcts_buf;

	mov	dl, BYTE PTR [eax]
	mov	BYTE PTR [ecx], dl
	add	eax, 2

; 16   : 		cstr++;

	inc	ecx
	cmp	WORD PTR [eax], 0
	jne	SHORT $LL3@wcsTombs
$LN8@wcsTombs:

; 17   : 	}
; 18   : 	*cstr = 0;

	mov	BYTE PTR [ecx], 0

; 19   : }

	ret	0
?wcsTombs@@YAXPADPB_W@Z ENDP				; wcsTombs
; Function compile flags: /Ogtpy
; File c:\users\admin\desktop\projects\seye_server\seye_server.h
_TEXT	ENDS
;	COMDAT ??0SEyePacket@SEye@@QAE@XZ
_TEXT	SEGMENT
??0SEyePacket@SEye@@QAE@XZ PROC				; SEye::SEyePacket::SEyePacket, COMDAT
; _this$ = esi

; 60   : 		{
; 61   : 			memset(this, 0, sizeof(SEyePacket));

	push	514					; 00000202H
	push	0
	push	esi
	call	_memset
	add	esp, 12					; 0000000cH

; 62   : 		}

	mov	eax, esi
	ret	0
??0SEyePacket@SEye@@QAE@XZ ENDP				; SEye::SEyePacket::SEyePacket
; Function compile flags: /Ogtpy
; File c:\users\admin\desktop\projects\seye_server\engine_string.h
_TEXT	ENDS
;	COMDAT ??BWideStringClass@@QAEPB_WXZ
_TEXT	SEGMENT
??BWideStringClass@@QAEPB_WXZ PROC			; WideStringClass::operator wchar_t const *, COMDAT
; _this$ = eax

; 180  : 		return m_Buffer;

	mov	eax, DWORD PTR [eax]

; 181  : 	}

	ret	0
??BWideStringClass@@QAEPB_WXZ ENDP			; WideStringClass::operator wchar_t const *
; Function compile flags: /Ogtpy
; File c:\users\admin\desktop\projects\seye_server\scripts.h
_TEXT	ENDS
;	COMDAT ?SetFactory@ScriptImpClass@@QAEXPAVScriptFactory@@@Z
_TEXT	SEGMENT
?SetFactory@ScriptImpClass@@QAEXPAVScriptFactory@@@Z PROC ; ScriptImpClass::SetFactory, COMDAT
; _this$ = eax
; _ptr$ = ecx

; 141  : 		Factory = ptr;

	mov	DWORD PTR [eax+20], ecx

; 142  : 	}

	ret	0
?SetFactory@ScriptImpClass@@QAEXPAVScriptFactory@@@Z ENDP ; ScriptImpClass::SetFactory
; Function compile flags: /Ogtpy
; File c:\program files\microsoft visual studio 9.0\vc\include\string.h
_TEXT	ENDS
;	COMDAT ?strchr@@YAPADPADH@Z
_TEXT	SEGMENT
?strchr@@YAPADPADH@Z PROC				; strchr, COMDAT
; __Str$ = eax

; 184  : 	{ return (char*)strchr((const char*)_Str, _Ch); }

	push	10					; 0000000aH
	push	eax
	call	_strchr
	add	esp, 8
	ret	0
?strchr@@YAPADPADH@Z ENDP				; strchr
; Function compile flags: /Ogtpy
;	COMDAT ??1SEye_SOCKET@@UAE@XZ
_TEXT	SEGMENT
??1SEye_SOCKET@@UAE@XZ PROC				; SEye_SOCKET::~SEye_SOCKET, COMDAT
; _this$ = esi
	jmp	??1ScriptImpClass@@UAE@XZ		; ScriptImpClass::~ScriptImpClass
??1SEye_SOCKET@@UAE@XZ ENDP				; SEye_SOCKET::~SEye_SOCKET
; Function compile flags: /Ogtpy
_TEXT	ENDS
;	COMDAT ??1SEye_Vehicle_Update@@UAE@XZ
_TEXT	SEGMENT
??1SEye_Vehicle_Update@@UAE@XZ PROC			; SEye_Vehicle_Update::~SEye_Vehicle_Update, COMDAT
; _this$ = esi
	jmp	??1ScriptImpClass@@UAE@XZ		; ScriptImpClass::~ScriptImpClass
??1SEye_Vehicle_Update@@UAE@XZ ENDP			; SEye_Vehicle_Update::~SEye_Vehicle_Update
; Function compile flags: /Ogtpy
_TEXT	ENDS
;	COMDAT ??1SEye_Player_Update@@UAE@XZ
_TEXT	SEGMENT
??1SEye_Player_Update@@UAE@XZ PROC			; SEye_Player_Update::~SEye_Player_Update, COMDAT
; _this$ = esi
	jmp	??1ScriptImpClass@@UAE@XZ		; ScriptImpClass::~ScriptImpClass
??1SEye_Player_Update@@UAE@XZ ENDP			; SEye_Player_Update::~SEye_Player_Update
; Function compile flags: /Ogtpy
_TEXT	ENDS
;	COMDAT ??1SEye_C4_Update@@UAE@XZ
_TEXT	SEGMENT
??1SEye_C4_Update@@UAE@XZ PROC				; SEye_C4_Update::~SEye_C4_Update, COMDAT
; _this$ = esi
	jmp	??1ScriptImpClass@@UAE@XZ		; ScriptImpClass::~ScriptImpClass
??1SEye_C4_Update@@UAE@XZ ENDP				; SEye_C4_Update::~SEye_C4_Update
; Function compile flags: /Ogtpy
_TEXT	ENDS
;	COMDAT ??1SEye_Building_Update@@UAE@XZ
_TEXT	SEGMENT
??1SEye_Building_Update@@UAE@XZ PROC			; SEye_Building_Update::~SEye_Building_Update, COMDAT
; _this$ = esi
	jmp	??1ScriptImpClass@@UAE@XZ		; ScriptImpClass::~ScriptImpClass
??1SEye_Building_Update@@UAE@XZ ENDP			; SEye_Building_Update::~SEye_Building_Update
; Function compile flags: /Ogtpy
_TEXT	ENDS
;	COMDAT ??_GSEye_SOCKET@@UAEPAXI@Z
_TEXT	SEGMENT
___flags$ = 8						; size = 4
??_GSEye_SOCKET@@UAEPAXI@Z PROC				; SEye_SOCKET::`scalar deleting destructor', COMDAT
; _this$ = ecx
	push	esi
	mov	esi, ecx
	call	??1ScriptImpClass@@UAE@XZ		; ScriptImpClass::~ScriptImpClass
	test	BYTE PTR ___flags$[esp], 1
	je	SHORT $LN8@scalar@6
	push	esi
	call	DWORD PTR ?RenDelete@@3P6AXPAX@ZA	; RenDelete
	add	esp, 4
$LN8@scalar@6:
	mov	eax, esi
	pop	esi
	ret	4
??_GSEye_SOCKET@@UAEPAXI@Z ENDP				; SEye_SOCKET::`scalar deleting destructor'
; Function compile flags: /Ogtpy
_TEXT	ENDS
;	COMDAT ??_GSEye_Vehicle_Update@@UAEPAXI@Z
_TEXT	SEGMENT
___flags$ = 8						; size = 4
??_GSEye_Vehicle_Update@@UAEPAXI@Z PROC			; SEye_Vehicle_Update::`scalar deleting destructor', COMDAT
; _this$ = ecx
	push	esi
	mov	esi, ecx
	call	??1ScriptImpClass@@UAE@XZ		; ScriptImpClass::~ScriptImpClass
	test	BYTE PTR ___flags$[esp], 1
	je	SHORT $LN8@scalar@7
	push	esi
	call	DWORD PTR ?RenDelete@@3P6AXPAX@ZA	; RenDelete
	add	esp, 4
$LN8@scalar@7:
	mov	eax, esi
	pop	esi
	ret	4
??_GSEye_Vehicle_Update@@UAEPAXI@Z ENDP			; SEye_Vehicle_Update::`scalar deleting destructor'
; Function compile flags: /Ogtpy
_TEXT	ENDS
;	COMDAT ??_GSEye_Player_Update@@UAEPAXI@Z
_TEXT	SEGMENT
___flags$ = 8						; size = 4
??_GSEye_Player_Update@@UAEPAXI@Z PROC			; SEye_Player_Update::`scalar deleting destructor', COMDAT
; _this$ = ecx
	push	esi
	mov	esi, ecx
	call	??1ScriptImpClass@@UAE@XZ		; ScriptImpClass::~ScriptImpClass
	test	BYTE PTR ___flags$[esp], 1
	je	SHORT $LN8@scalar@8
	push	esi
	call	DWORD PTR ?RenDelete@@3P6AXPAX@ZA	; RenDelete
	add	esp, 4
$LN8@scalar@8:
	mov	eax, esi
	pop	esi
	ret	4
??_GSEye_Player_Update@@UAEPAXI@Z ENDP			; SEye_Player_Update::`scalar deleting destructor'
; Function compile flags: /Ogtpy
_TEXT	ENDS
;	COMDAT ??_GSEye_C4_Update@@UAEPAXI@Z
_TEXT	SEGMENT
___flags$ = 8						; size = 4
??_GSEye_C4_Update@@UAEPAXI@Z PROC			; SEye_C4_Update::`scalar deleting destructor', COMDAT
; _this$ = ecx
	push	esi
	mov	esi, ecx
	call	??1ScriptImpClass@@UAE@XZ		; ScriptImpClass::~ScriptImpClass
	test	BYTE PTR ___flags$[esp], 1
	je	SHORT $LN8@scalar@9
	push	esi
	call	DWORD PTR ?RenDelete@@3P6AXPAX@ZA	; RenDelete
	add	esp, 4
$LN8@scalar@9:
	mov	eax, esi
	pop	esi
	ret	4
??_GSEye_C4_Update@@UAEPAXI@Z ENDP			; SEye_C4_Update::`scalar deleting destructor'
; Function compile flags: /Ogtpy
_TEXT	ENDS
;	COMDAT ??_GSEye_Building_Update@@UAEPAXI@Z
_TEXT	SEGMENT
___flags$ = 8						; size = 4
??_GSEye_Building_Update@@UAEPAXI@Z PROC		; SEye_Building_Update::`scalar deleting destructor', COMDAT
; _this$ = ecx
	push	esi
	mov	esi, ecx
	call	??1ScriptImpClass@@UAE@XZ		; ScriptImpClass::~ScriptImpClass
	test	BYTE PTR ___flags$[esp], 1
	je	SHORT $LN8@scalar@10
	push	esi
	call	DWORD PTR ?RenDelete@@3P6AXPAX@ZA	; RenDelete
	add	esp, 4
$LN8@scalar@10:
	mov	eax, esi
	pop	esi
	ret	4
??_GSEye_Building_Update@@UAEPAXI@Z ENDP		; SEye_Building_Update::`scalar deleting destructor'
; Function compile flags: /Ogtpy
_TEXT	ENDS
;	COMDAT ??0SEye_SOCKET@@QAE@XZ
_TEXT	SEGMENT
??0SEye_SOCKET@@QAE@XZ PROC				; SEye_SOCKET::SEye_SOCKET, COMDAT
; _this$ = eax
	xor	ecx, ecx
	mov	DWORD PTR [eax+4], ecx
	mov	DWORD PTR [eax+8], ecx
	mov	DWORD PTR [eax+12], ecx
	mov	DWORD PTR [eax+16], ecx
	mov	DWORD PTR [eax+24], ecx
	mov	DWORD PTR [eax], OFFSET ??_7SEye_SOCKET@@6B@
	ret	0
??0SEye_SOCKET@@QAE@XZ ENDP				; SEye_SOCKET::SEye_SOCKET
; Function compile flags: /Ogtpy
_TEXT	ENDS
;	COMDAT ??0SEye_Vehicle_Update@@QAE@XZ
_TEXT	SEGMENT
??0SEye_Vehicle_Update@@QAE@XZ PROC			; SEye_Vehicle_Update::SEye_Vehicle_Update, COMDAT
; _this$ = eax
	xor	ecx, ecx
	mov	DWORD PTR [eax+4], ecx
	mov	DWORD PTR [eax+8], ecx
	mov	DWORD PTR [eax+12], ecx
	mov	DWORD PTR [eax+16], ecx
	mov	DWORD PTR [eax+24], ecx
	mov	DWORD PTR [eax], OFFSET ??_7SEye_Vehicle_Update@@6B@
	ret	0
??0SEye_Vehicle_Update@@QAE@XZ ENDP			; SEye_Vehicle_Update::SEye_Vehicle_Update
; Function compile flags: /Ogtpy
_TEXT	ENDS
;	COMDAT ??0SEye_Player_Update@@QAE@XZ
_TEXT	SEGMENT
??0SEye_Player_Update@@QAE@XZ PROC			; SEye_Player_Update::SEye_Player_Update, COMDAT
; _this$ = eax
	xor	ecx, ecx
	mov	DWORD PTR [eax+4], ecx
	mov	DWORD PTR [eax+8], ecx
	mov	DWORD PTR [eax+12], ecx
	mov	DWORD PTR [eax+16], ecx
	mov	DWORD PTR [eax+24], ecx
	mov	DWORD PTR [eax], OFFSET ??_7SEye_Player_Update@@6B@
	ret	0
??0SEye_Player_Update@@QAE@XZ ENDP			; SEye_Player_Update::SEye_Player_Update
; Function compile flags: /Ogtpy
_TEXT	ENDS
;	COMDAT ??0SEye_C4_Update@@QAE@XZ
_TEXT	SEGMENT
??0SEye_C4_Update@@QAE@XZ PROC				; SEye_C4_Update::SEye_C4_Update, COMDAT
; _this$ = eax
	xor	ecx, ecx
	mov	DWORD PTR [eax+4], ecx
	mov	DWORD PTR [eax+8], ecx
	mov	DWORD PTR [eax+12], ecx
	mov	DWORD PTR [eax+16], ecx
	mov	DWORD PTR [eax+24], ecx
	mov	DWORD PTR [eax], OFFSET ??_7SEye_C4_Update@@6B@
	ret	0
??0SEye_C4_Update@@QAE@XZ ENDP				; SEye_C4_Update::SEye_C4_Update
; Function compile flags: /Ogtpy
_TEXT	ENDS
;	COMDAT ??0SEye_Building_Update@@QAE@XZ
_TEXT	SEGMENT
??0SEye_Building_Update@@QAE@XZ PROC			; SEye_Building_Update::SEye_Building_Update, COMDAT
; _this$ = eax
	xor	ecx, ecx
	mov	DWORD PTR [eax+4], ecx
	mov	DWORD PTR [eax+8], ecx
	mov	DWORD PTR [eax+12], ecx
	mov	DWORD PTR [eax+16], ecx
	mov	DWORD PTR [eax+24], ecx
	mov	DWORD PTR [eax], OFFSET ??_7SEye_Building_Update@@6B@
	ret	0
??0SEye_Building_Update@@QAE@XZ ENDP			; SEye_Building_Update::SEye_Building_Update
; Function compile flags: /Ogtpy
; File c:\users\admin\desktop\projects\seye_server\scripts.h
_TEXT	ENDS
;	COMDAT ?Create@?$ScriptRegistrant@VSEye_SOCKET@@@@UAEPAVScriptImpClass@@XZ
_TEXT	SEGMENT
?Create@?$ScriptRegistrant@VSEye_SOCKET@@@@UAEPAVScriptImpClass@@XZ PROC ; ScriptRegistrant<SEye_SOCKET>::Create, COMDAT
; _this$ = ecx

; 483  : {

	push	esi

; 484  : 	ScriptImpClass *scr = new T;

	xor	esi, esi
	push	edi
	mov	edi, ecx
	cmp	DWORD PTR ?RenNew@@3P6APAXK@ZA, esi	; RenNew
	jne	SHORT $LN6@Create
	call	?InitEngine@@YAXXZ			; InitEngine
$LN6@Create:
	push	28					; 0000001cH
	call	DWORD PTR ?RenNew@@3P6APAXK@ZA		; RenNew
	add	esp, 4
	cmp	eax, esi
	je	SHORT $LN3@Create
	mov	DWORD PTR [eax+4], esi
	mov	DWORD PTR [eax+8], esi
	mov	DWORD PTR [eax+12], esi
	mov	DWORD PTR [eax+16], esi
	mov	DWORD PTR [eax+24], esi
	mov	DWORD PTR [eax], OFFSET ??_7SEye_SOCKET@@6B@
	mov	esi, eax
$LN3@Create:

; 485  : 	scr->SetFactory(this);
; 486  : 	scr->Register_Auto_Save_Variables();

	mov	eax, DWORD PTR [esi]
	mov	edx, DWORD PTR [eax+100]
	mov	ecx, esi
	mov	DWORD PTR [esi+20], edi
	call	edx
	pop	edi

; 487  : 	return scr;

	mov	eax, esi
	pop	esi

; 488  : };

	ret	0
?Create@?$ScriptRegistrant@VSEye_SOCKET@@@@UAEPAVScriptImpClass@@XZ ENDP ; ScriptRegistrant<SEye_SOCKET>::Create
; Function compile flags: /Ogtpy
_TEXT	ENDS
;	COMDAT ?Create@?$ScriptRegistrant@VSEye_Vehicle_Update@@@@UAEPAVScriptImpClass@@XZ
_TEXT	SEGMENT
?Create@?$ScriptRegistrant@VSEye_Vehicle_Update@@@@UAEPAVScriptImpClass@@XZ PROC ; ScriptRegistrant<SEye_Vehicle_Update>::Create, COMDAT
; _this$ = ecx

; 483  : {

	push	esi

; 484  : 	ScriptImpClass *scr = new T;

	xor	esi, esi
	push	edi
	mov	edi, ecx
	cmp	DWORD PTR ?RenNew@@3P6APAXK@ZA, esi	; RenNew
	jne	SHORT $LN6@Create@2
	call	?InitEngine@@YAXXZ			; InitEngine
$LN6@Create@2:
	push	32					; 00000020H
	call	DWORD PTR ?RenNew@@3P6APAXK@ZA		; RenNew
	add	esp, 4
	cmp	eax, esi
	je	SHORT $LN3@Create@2
	mov	DWORD PTR [eax+4], esi
	mov	DWORD PTR [eax+8], esi
	mov	DWORD PTR [eax+12], esi
	mov	DWORD PTR [eax+16], esi
	mov	DWORD PTR [eax+24], esi
	mov	DWORD PTR [eax], OFFSET ??_7SEye_Vehicle_Update@@6B@
	mov	esi, eax
$LN3@Create@2:

; 485  : 	scr->SetFactory(this);
; 486  : 	scr->Register_Auto_Save_Variables();

	mov	eax, DWORD PTR [esi]
	mov	edx, DWORD PTR [eax+100]
	mov	ecx, esi
	mov	DWORD PTR [esi+20], edi
	call	edx
	pop	edi

; 487  : 	return scr;

	mov	eax, esi
	pop	esi

; 488  : };

	ret	0
?Create@?$ScriptRegistrant@VSEye_Vehicle_Update@@@@UAEPAVScriptImpClass@@XZ ENDP ; ScriptRegistrant<SEye_Vehicle_Update>::Create
; Function compile flags: /Ogtpy
_TEXT	ENDS
;	COMDAT ?Create@?$ScriptRegistrant@VSEye_Player_Update@@@@UAEPAVScriptImpClass@@XZ
_TEXT	SEGMENT
?Create@?$ScriptRegistrant@VSEye_Player_Update@@@@UAEPAVScriptImpClass@@XZ PROC ; ScriptRegistrant<SEye_Player_Update>::Create, COMDAT
; _this$ = ecx

; 483  : {

	push	esi

; 484  : 	ScriptImpClass *scr = new T;

	xor	esi, esi
	push	edi
	mov	edi, ecx
	cmp	DWORD PTR ?RenNew@@3P6APAXK@ZA, esi	; RenNew
	jne	SHORT $LN6@Create@3
	call	?InitEngine@@YAXXZ			; InitEngine
$LN6@Create@3:
	push	32					; 00000020H
	call	DWORD PTR ?RenNew@@3P6APAXK@ZA		; RenNew
	add	esp, 4
	cmp	eax, esi
	je	SHORT $LN3@Create@3
	mov	DWORD PTR [eax+4], esi
	mov	DWORD PTR [eax+8], esi
	mov	DWORD PTR [eax+12], esi
	mov	DWORD PTR [eax+16], esi
	mov	DWORD PTR [eax+24], esi
	mov	DWORD PTR [eax], OFFSET ??_7SEye_Player_Update@@6B@
	mov	esi, eax
$LN3@Create@3:

; 485  : 	scr->SetFactory(this);
; 486  : 	scr->Register_Auto_Save_Variables();

	mov	eax, DWORD PTR [esi]
	mov	edx, DWORD PTR [eax+100]
	mov	ecx, esi
	mov	DWORD PTR [esi+20], edi
	call	edx
	pop	edi

; 487  : 	return scr;

	mov	eax, esi
	pop	esi

; 488  : };

	ret	0
?Create@?$ScriptRegistrant@VSEye_Player_Update@@@@UAEPAVScriptImpClass@@XZ ENDP ; ScriptRegistrant<SEye_Player_Update>::Create
; Function compile flags: /Ogtpy
_TEXT	ENDS
;	COMDAT ?Create@?$ScriptRegistrant@VSEye_C4_Update@@@@UAEPAVScriptImpClass@@XZ
_TEXT	SEGMENT
?Create@?$ScriptRegistrant@VSEye_C4_Update@@@@UAEPAVScriptImpClass@@XZ PROC ; ScriptRegistrant<SEye_C4_Update>::Create, COMDAT
; _this$ = ecx

; 483  : {

	push	esi

; 484  : 	ScriptImpClass *scr = new T;

	xor	esi, esi
	push	edi
	mov	edi, ecx
	cmp	DWORD PTR ?RenNew@@3P6APAXK@ZA, esi	; RenNew
	jne	SHORT $LN6@Create@4
	call	?InitEngine@@YAXXZ			; InitEngine
$LN6@Create@4:
	push	36					; 00000024H
	call	DWORD PTR ?RenNew@@3P6APAXK@ZA		; RenNew
	add	esp, 4
	cmp	eax, esi
	je	SHORT $LN3@Create@4
	mov	DWORD PTR [eax+4], esi
	mov	DWORD PTR [eax+8], esi
	mov	DWORD PTR [eax+12], esi
	mov	DWORD PTR [eax+16], esi
	mov	DWORD PTR [eax+24], esi
	mov	DWORD PTR [eax], OFFSET ??_7SEye_C4_Update@@6B@
	mov	esi, eax
$LN3@Create@4:

; 485  : 	scr->SetFactory(this);
; 486  : 	scr->Register_Auto_Save_Variables();

	mov	eax, DWORD PTR [esi]
	mov	edx, DWORD PTR [eax+100]
	mov	ecx, esi
	mov	DWORD PTR [esi+20], edi
	call	edx
	pop	edi

; 487  : 	return scr;

	mov	eax, esi
	pop	esi

; 488  : };

	ret	0
?Create@?$ScriptRegistrant@VSEye_C4_Update@@@@UAEPAVScriptImpClass@@XZ ENDP ; ScriptRegistrant<SEye_C4_Update>::Create
; Function compile flags: /Ogtpy
_TEXT	ENDS
;	COMDAT ?Create@?$ScriptRegistrant@VSEye_Building_Update@@@@UAEPAVScriptImpClass@@XZ
_TEXT	SEGMENT
?Create@?$ScriptRegistrant@VSEye_Building_Update@@@@UAEPAVScriptImpClass@@XZ PROC ; ScriptRegistrant<SEye_Building_Update>::Create, COMDAT
; _this$ = ecx

; 483  : {

	push	esi

; 484  : 	ScriptImpClass *scr = new T;

	xor	esi, esi
	push	edi
	mov	edi, ecx
	cmp	DWORD PTR ?RenNew@@3P6APAXK@ZA, esi	; RenNew
	jne	SHORT $LN6@Create@5
	call	?InitEngine@@YAXXZ			; InitEngine
$LN6@Create@5:
	push	36					; 00000024H
	call	DWORD PTR ?RenNew@@3P6APAXK@ZA		; RenNew
	add	esp, 4
	cmp	eax, esi
	je	SHORT $LN3@Create@5
	mov	DWORD PTR [eax+4], esi
	mov	DWORD PTR [eax+8], esi
	mov	DWORD PTR [eax+12], esi
	mov	DWORD PTR [eax+16], esi
	mov	DWORD PTR [eax+24], esi
	mov	DWORD PTR [eax], OFFSET ??_7SEye_Building_Update@@6B@
	mov	esi, eax
$LN3@Create@5:

; 485  : 	scr->SetFactory(this);
; 486  : 	scr->Register_Auto_Save_Variables();

	mov	eax, DWORD PTR [esi]
	mov	edx, DWORD PTR [eax+100]
	mov	ecx, esi
	mov	DWORD PTR [esi+20], edi
	call	edx
	pop	edi

; 487  : 	return scr;

	mov	eax, esi
	pop	esi

; 488  : };

	ret	0
?Create@?$ScriptRegistrant@VSEye_Building_Update@@@@UAEPAVScriptImpClass@@XZ ENDP ; ScriptRegistrant<SEye_Building_Update>::Create
; Function compile flags: /Ogtpy
; File c:\users\admin\desktop\projects\seye_server\seye_server.cpp
_TEXT	ENDS
;	COMDAT ??$Pack@E@SEyePacket@SEye@@QAEXE@Z
_TEXT	SEGMENT
_Data$ = 8						; size = 1
??$Pack@E@SEyePacket@SEye@@QAEXE@Z PROC			; SEye::SEyePacket::Pack<unsigned char>, COMDAT
; _this$ = eax

; 881  : 	this->Pack((char *)&Data, sizeof(_T));

	movzx	ecx, BYTE PTR [eax]
	mov	dl, BYTE PTR _Data$[esp-4]
	mov	BYTE PTR [ecx+eax+2], dl
	inc	BYTE PTR [eax]

; 882  : }

	ret	4
??$Pack@E@SEyePacket@SEye@@QAEXE@Z ENDP			; SEye::SEyePacket::Pack<unsigned char>
; Function compile flags: /Ogtpy
_TEXT	ENDS
;	COMDAT ??$Pack@D@SEyePacket@SEye@@QAEXD@Z
_TEXT	SEGMENT
_Data$ = 8						; size = 1
??$Pack@D@SEyePacket@SEye@@QAEXD@Z PROC			; SEye::SEyePacket::Pack<char>, COMDAT
; _this$ = eax

; 881  : 	this->Pack((char *)&Data, sizeof(_T));

	movzx	ecx, BYTE PTR [eax]
	mov	dl, BYTE PTR _Data$[esp-4]
	mov	BYTE PTR [ecx+eax+2], dl
	inc	BYTE PTR [eax]

; 882  : }

	ret	4
??$Pack@D@SEyePacket@SEye@@QAEXD@Z ENDP			; SEye::SEyePacket::Pack<char>
; Function compile flags: /Ogtpy
_TEXT	ENDS
;	COMDAT ??$Pack@M@SEyePacket@SEye@@QAEXM@Z
_TEXT	SEGMENT
_Data$ = 8						; size = 4
??$Pack@M@SEyePacket@SEye@@QAEXM@Z PROC			; SEye::SEyePacket::Pack<float>, COMDAT
; _this$ = eax

; 881  : 	this->Pack((char *)&Data, sizeof(_T));

	movzx	ecx, BYTE PTR [eax]
	mov	dl, BYTE PTR _Data$[esp-1]
	mov	BYTE PTR [ecx+eax+2], dl
	inc	BYTE PTR [eax]
	movzx	ecx, BYTE PTR [eax]
	mov	dl, BYTE PTR _Data$[esp-2]
	mov	BYTE PTR [ecx+eax+2], dl
	inc	BYTE PTR [eax]
	movzx	ecx, BYTE PTR [eax]
	mov	dl, BYTE PTR _Data$[esp-3]
	mov	BYTE PTR [ecx+eax+2], dl
	inc	BYTE PTR [eax]
	movzx	ecx, BYTE PTR [eax]
	mov	dl, BYTE PTR _Data$[esp-4]
	mov	BYTE PTR [ecx+eax+2], dl
	inc	BYTE PTR [eax]

; 882  : }

	ret	4
??$Pack@M@SEyePacket@SEye@@QAEXM@Z ENDP			; SEye::SEyePacket::Pack<float>
; Function compile flags: /Ogtpy
_TEXT	ENDS
;	COMDAT ??$Pack@_N@SEyePacket@SEye@@QAEX_N@Z
_TEXT	SEGMENT
_Data$ = 8						; size = 1
??$Pack@_N@SEyePacket@SEye@@QAEX_N@Z PROC		; SEye::SEyePacket::Pack<bool>, COMDAT
; _this$ = eax

; 881  : 	this->Pack((char *)&Data, sizeof(_T));

	movzx	ecx, BYTE PTR [eax]
	mov	dl, BYTE PTR _Data$[esp-4]
	mov	BYTE PTR [ecx+eax+2], dl
	inc	BYTE PTR [eax]

; 882  : }

	ret	4
??$Pack@_N@SEyePacket@SEye@@QAEX_N@Z ENDP		; SEye::SEyePacket::Pack<bool>
; Function compile flags: /Ogtpy
_TEXT	ENDS
;	COMDAT ??$Pack@I@SEyePacket@SEye@@QAEXI@Z
_TEXT	SEGMENT
_Data$ = 8						; size = 4
??$Pack@I@SEyePacket@SEye@@QAEXI@Z PROC			; SEye::SEyePacket::Pack<unsigned int>, COMDAT
; _this$ = eax

; 881  : 	this->Pack((char *)&Data, sizeof(_T));

	movzx	edx, BYTE PTR [eax]
	mov	ecx, DWORD PTR _Data$[esp-4]
	push	ebx
	mov	bl, BYTE PTR _Data$[esp+3]
	mov	BYTE PTR [edx+eax+2], bl
	inc	BYTE PTR [eax]
	movzx	edx, BYTE PTR [eax]
	mov	bl, BYTE PTR _Data$[esp+2]
	mov	BYTE PTR [edx+eax+2], bl
	inc	BYTE PTR [eax]
	movzx	edx, BYTE PTR [eax]
	mov	BYTE PTR [edx+eax+2], ch
	inc	BYTE PTR [eax]
	movzx	edx, BYTE PTR [eax]
	mov	BYTE PTR [edx+eax+2], cl
	inc	BYTE PTR [eax]
	pop	ebx

; 882  : }

	ret	4
??$Pack@I@SEyePacket@SEye@@QAEXI@Z ENDP			; SEye::SEyePacket::Pack<unsigned int>
; Function compile flags: /Ogtpy
_TEXT	ENDS
;	COMDAT ??$Unpack@I@SEyePacket@SEye@@QAEXAAI@Z
_TEXT	SEGMENT
??$Unpack@I@SEyePacket@SEye@@QAEXAAI@Z PROC		; SEye::SEyePacket::Unpack<unsigned int>, COMDAT
; _Data$ = ecx

; 891  : 	this->Unpack((char *)&Data, sizeof(_T));

	mov	al, BYTE PTR ?sp_tempPacket@SEye_SOCKET@@0VSEyePacket@SEye@@A
	movzx	edx, al
	movzx	edx, BYTE PTR ?sp_tempPacket@SEye_SOCKET@@0VSEyePacket@SEye@@A[edx+1]
	mov	BYTE PTR [ecx], dl
	dec	al
	mov	BYTE PTR ?sp_tempPacket@SEye_SOCKET@@0VSEyePacket@SEye@@A, al
	movzx	edx, al
	movzx	edx, BYTE PTR ?sp_tempPacket@SEye_SOCKET@@0VSEyePacket@SEye@@A[edx+1]
	dec	al
	mov	BYTE PTR [ecx+1], dl
	movzx	edx, al
	mov	BYTE PTR ?sp_tempPacket@SEye_SOCKET@@0VSEyePacket@SEye@@A, al
	movzx	edx, BYTE PTR ?sp_tempPacket@SEye_SOCKET@@0VSEyePacket@SEye@@A[edx+1]
	dec	al
	mov	BYTE PTR [ecx+2], dl
	movzx	edx, al
	mov	BYTE PTR ?sp_tempPacket@SEye_SOCKET@@0VSEyePacket@SEye@@A, al
	movzx	edx, BYTE PTR ?sp_tempPacket@SEye_SOCKET@@0VSEyePacket@SEye@@A[edx+1]
	dec	al
	mov	BYTE PTR [ecx+3], dl
	mov	BYTE PTR ?sp_tempPacket@SEye_SOCKET@@0VSEyePacket@SEye@@A, al

; 892  : }

	ret	0
??$Unpack@I@SEyePacket@SEye@@QAEXAAI@Z ENDP		; SEye::SEyePacket::Unpack<unsigned int>
; Function compile flags: /Ogtpy
_TEXT	ENDS
;	COMDAT ??$Unpack@_N@SEyePacket@SEye@@QAEXAA_N@Z
_TEXT	SEGMENT
_Data$ = 8						; size = 4
??$Unpack@_N@SEyePacket@SEye@@QAEXAA_N@Z PROC		; SEye::SEyePacket::Unpack<bool>, COMDAT

; 891  : 	this->Unpack((char *)&Data, sizeof(_T));

	mov	al, BYTE PTR ?sp_tempPacket@SEye_SOCKET@@0VSEyePacket@SEye@@A
	movzx	ecx, al
	mov	dl, BYTE PTR ?sp_tempPacket@SEye_SOCKET@@0VSEyePacket@SEye@@A[ecx+1]
	mov	ecx, DWORD PTR _Data$[esp-4]
	dec	al
	mov	BYTE PTR [ecx], dl
	mov	BYTE PTR ?sp_tempPacket@SEye_SOCKET@@0VSEyePacket@SEye@@A, al

; 892  : }

	ret	4
??$Unpack@_N@SEyePacket@SEye@@QAEXAA_N@Z ENDP		; SEye::SEyePacket::Unpack<bool>
; Function compile flags: /Ogtpy
_TEXT	ENDS
;	COMDAT ??$Pack@H@SEyePacket@SEye@@QAEXH@Z
_TEXT	SEGMENT
_Data$ = 8						; size = 4
??$Pack@H@SEyePacket@SEye@@QAEXH@Z PROC			; SEye::SEyePacket::Pack<int>, COMDAT
; _this$ = eax

; 881  : 	this->Pack((char *)&Data, sizeof(_T));

	movzx	edx, BYTE PTR [eax]
	mov	ecx, DWORD PTR _Data$[esp-4]
	push	ebx
	mov	bl, BYTE PTR _Data$[esp+3]
	mov	BYTE PTR [edx+eax+2], bl
	inc	BYTE PTR [eax]
	movzx	edx, BYTE PTR [eax]
	mov	bl, BYTE PTR _Data$[esp+2]
	mov	BYTE PTR [edx+eax+2], bl
	inc	BYTE PTR [eax]
	movzx	edx, BYTE PTR [eax]
	mov	BYTE PTR [edx+eax+2], ch
	inc	BYTE PTR [eax]
	movzx	edx, BYTE PTR [eax]
	mov	BYTE PTR [edx+eax+2], cl
	inc	BYTE PTR [eax]
	pop	ebx

; 882  : }

	ret	4
??$Pack@H@SEyePacket@SEye@@QAEXH@Z ENDP			; SEye::SEyePacket::Pack<int>
; Function compile flags: /Ogtpy
; File c:\users\admin\desktop\projects\seye_server\scripts.h
_TEXT	ENDS
;	COMDAT ??0?$ScriptRegistrant@VSEye_SOCKET@@@@QAE@PAD0@Z
_TEXT	SEGMENT
??0?$ScriptRegistrant@VSEye_SOCKET@@@@QAE@PAD0@Z PROC	; ScriptRegistrant<SEye_SOCKET>::ScriptRegistrant<SEye_SOCKET>, COMDAT

; 477  : 	{

	mov	eax, DWORD PTR ?mScriptFactories@ScriptRegistrar@@0PAVScriptFactory@@A ; ScriptRegistrar::mScriptFactories
	mov	DWORD PTR ?SEye_SOCKET_Registrant@@3V?$ScriptRegistrant@VSEye_SOCKET@@@@A+4, eax
	mov	eax, OFFSET ?SEye_SOCKET_Registrant@@3V?$ScriptRegistrant@VSEye_SOCKET@@@@A ; SEye_SOCKET_Registrant
	mov	DWORD PTR ?SEye_SOCKET_Registrant@@3V?$ScriptRegistrant@VSEye_SOCKET@@@@A+8, OFFSET ??_C@_0M@OPINOOFP@SEye_SOCKET?$AA@
	mov	DWORD PTR ?SEye_SOCKET_Registrant@@3V?$ScriptRegistrant@VSEye_SOCKET@@@@A+12, OFFSET ??_C@_00CNPNBAHC@?$AA@
	mov	DWORD PTR ?mScriptFactories@ScriptRegistrar@@0PAVScriptFactory@@A, eax ; ScriptRegistrar::mScriptFactories
	mov	DWORD PTR ?SEye_SOCKET_Registrant@@3V?$ScriptRegistrant@VSEye_SOCKET@@@@A, OFFSET ??_7?$ScriptRegistrant@VSEye_SOCKET@@@@6B@

; 478  : 	}

	ret	0
??0?$ScriptRegistrant@VSEye_SOCKET@@@@QAE@PAD0@Z ENDP	; ScriptRegistrant<SEye_SOCKET>::ScriptRegistrant<SEye_SOCKET>
; Function compile flags: /Ogtpy
_TEXT	ENDS
;	COMDAT ??0?$ScriptRegistrant@VSEye_Vehicle_Update@@@@QAE@PAD0@Z
_TEXT	SEGMENT
??0?$ScriptRegistrant@VSEye_Vehicle_Update@@@@QAE@PAD0@Z PROC ; ScriptRegistrant<SEye_Vehicle_Update>::ScriptRegistrant<SEye_Vehicle_Update>, COMDAT

; 477  : 	{

	mov	eax, DWORD PTR ?mScriptFactories@ScriptRegistrar@@0PAVScriptFactory@@A ; ScriptRegistrar::mScriptFactories
	mov	DWORD PTR ?SEye_Vehicle_Update_Registrant@@3V?$ScriptRegistrant@VSEye_Vehicle_Update@@@@A+4, eax
	mov	eax, OFFSET ?SEye_Vehicle_Update_Registrant@@3V?$ScriptRegistrant@VSEye_Vehicle_Update@@@@A ; SEye_Vehicle_Update_Registrant
	mov	DWORD PTR ?SEye_Vehicle_Update_Registrant@@3V?$ScriptRegistrant@VSEye_Vehicle_Update@@@@A+8, OFFSET ??_C@_0BE@KDALBFM@SEye_Vehicle_Update?$AA@
	mov	DWORD PTR ?SEye_Vehicle_Update_Registrant@@3V?$ScriptRegistrant@VSEye_Vehicle_Update@@@@A+12, OFFSET ??_C@_00CNPNBAHC@?$AA@
	mov	DWORD PTR ?mScriptFactories@ScriptRegistrar@@0PAVScriptFactory@@A, eax ; ScriptRegistrar::mScriptFactories
	mov	DWORD PTR ?SEye_Vehicle_Update_Registrant@@3V?$ScriptRegistrant@VSEye_Vehicle_Update@@@@A, OFFSET ??_7?$ScriptRegistrant@VSEye_Vehicle_Update@@@@6B@

; 478  : 	}

	ret	0
??0?$ScriptRegistrant@VSEye_Vehicle_Update@@@@QAE@PAD0@Z ENDP ; ScriptRegistrant<SEye_Vehicle_Update>::ScriptRegistrant<SEye_Vehicle_Update>
; Function compile flags: /Ogtpy
_TEXT	ENDS
;	COMDAT ??0?$ScriptRegistrant@VSEye_Player_Update@@@@QAE@PAD0@Z
_TEXT	SEGMENT
??0?$ScriptRegistrant@VSEye_Player_Update@@@@QAE@PAD0@Z PROC ; ScriptRegistrant<SEye_Player_Update>::ScriptRegistrant<SEye_Player_Update>, COMDAT

; 477  : 	{

	mov	eax, DWORD PTR ?mScriptFactories@ScriptRegistrar@@0PAVScriptFactory@@A ; ScriptRegistrar::mScriptFactories
	mov	DWORD PTR ?SEye_Player_Update_Registrant@@3V?$ScriptRegistrant@VSEye_Player_Update@@@@A+4, eax
	mov	eax, OFFSET ?SEye_Player_Update_Registrant@@3V?$ScriptRegistrant@VSEye_Player_Update@@@@A ; SEye_Player_Update_Registrant
	mov	DWORD PTR ?SEye_Player_Update_Registrant@@3V?$ScriptRegistrant@VSEye_Player_Update@@@@A+8, OFFSET ??_C@_0BD@CEEFLPHM@SEye_Player_Update?$AA@
	mov	DWORD PTR ?SEye_Player_Update_Registrant@@3V?$ScriptRegistrant@VSEye_Player_Update@@@@A+12, OFFSET ??_C@_00CNPNBAHC@?$AA@
	mov	DWORD PTR ?mScriptFactories@ScriptRegistrar@@0PAVScriptFactory@@A, eax ; ScriptRegistrar::mScriptFactories
	mov	DWORD PTR ?SEye_Player_Update_Registrant@@3V?$ScriptRegistrant@VSEye_Player_Update@@@@A, OFFSET ??_7?$ScriptRegistrant@VSEye_Player_Update@@@@6B@

; 478  : 	}

	ret	0
??0?$ScriptRegistrant@VSEye_Player_Update@@@@QAE@PAD0@Z ENDP ; ScriptRegistrant<SEye_Player_Update>::ScriptRegistrant<SEye_Player_Update>
; Function compile flags: /Ogtpy
_TEXT	ENDS
;	COMDAT ??0?$ScriptRegistrant@VSEye_C4_Update@@@@QAE@PAD0@Z
_TEXT	SEGMENT
??0?$ScriptRegistrant@VSEye_C4_Update@@@@QAE@PAD0@Z PROC ; ScriptRegistrant<SEye_C4_Update>::ScriptRegistrant<SEye_C4_Update>, COMDAT

; 477  : 	{

	mov	eax, DWORD PTR ?mScriptFactories@ScriptRegistrar@@0PAVScriptFactory@@A ; ScriptRegistrar::mScriptFactories
	mov	DWORD PTR ?SEye_C4_Update_Registrant@@3V?$ScriptRegistrant@VSEye_C4_Update@@@@A+4, eax
	mov	eax, OFFSET ?SEye_C4_Update_Registrant@@3V?$ScriptRegistrant@VSEye_C4_Update@@@@A ; SEye_C4_Update_Registrant
	mov	DWORD PTR ?SEye_C4_Update_Registrant@@3V?$ScriptRegistrant@VSEye_C4_Update@@@@A+8, OFFSET ??_C@_0P@EAMHLGBK@SEye_C4_Update?$AA@
	mov	DWORD PTR ?SEye_C4_Update_Registrant@@3V?$ScriptRegistrant@VSEye_C4_Update@@@@A+12, OFFSET ??_C@_00CNPNBAHC@?$AA@
	mov	DWORD PTR ?mScriptFactories@ScriptRegistrar@@0PAVScriptFactory@@A, eax ; ScriptRegistrar::mScriptFactories
	mov	DWORD PTR ?SEye_C4_Update_Registrant@@3V?$ScriptRegistrant@VSEye_C4_Update@@@@A, OFFSET ??_7?$ScriptRegistrant@VSEye_C4_Update@@@@6B@

; 478  : 	}

	ret	0
??0?$ScriptRegistrant@VSEye_C4_Update@@@@QAE@PAD0@Z ENDP ; ScriptRegistrant<SEye_C4_Update>::ScriptRegistrant<SEye_C4_Update>
; Function compile flags: /Ogtpy
_TEXT	ENDS
;	COMDAT ??0?$ScriptRegistrant@VSEye_Building_Update@@@@QAE@PAD0@Z
_TEXT	SEGMENT
??0?$ScriptRegistrant@VSEye_Building_Update@@@@QAE@PAD0@Z PROC ; ScriptRegistrant<SEye_Building_Update>::ScriptRegistrant<SEye_Building_Update>, COMDAT

; 477  : 	{

	mov	eax, DWORD PTR ?mScriptFactories@ScriptRegistrar@@0PAVScriptFactory@@A ; ScriptRegistrar::mScriptFactories
	mov	DWORD PTR ?SEye_Building_Update_Registrant@@3V?$ScriptRegistrant@VSEye_Building_Update@@@@A+4, eax
	mov	eax, OFFSET ?SEye_Building_Update_Registrant@@3V?$ScriptRegistrant@VSEye_Building_Update@@@@A ; SEye_Building_Update_Registrant
	mov	DWORD PTR ?SEye_Building_Update_Registrant@@3V?$ScriptRegistrant@VSEye_Building_Update@@@@A+8, OFFSET ??_C@_0BF@MCAOHKKL@SEye_Building_Update?$AA@
	mov	DWORD PTR ?SEye_Building_Update_Registrant@@3V?$ScriptRegistrant@VSEye_Building_Update@@@@A+12, OFFSET ??_C@_00CNPNBAHC@?$AA@
	mov	DWORD PTR ?mScriptFactories@ScriptRegistrar@@0PAVScriptFactory@@A, eax ; ScriptRegistrar::mScriptFactories
	mov	DWORD PTR ?SEye_Building_Update_Registrant@@3V?$ScriptRegistrant@VSEye_Building_Update@@@@A, OFFSET ??_7?$ScriptRegistrant@VSEye_Building_Update@@@@6B@

; 478  : 	}

	ret	0
??0?$ScriptRegistrant@VSEye_Building_Update@@@@QAE@PAD0@Z ENDP ; ScriptRegistrant<SEye_Building_Update>::ScriptRegistrant<SEye_Building_Update>
_TEXT	ENDS
PUBLIC	?Accept@TCPSocket@@QAE_NPAV1@@Z			; TCPSocket::Accept
; Function compile flags: /Ogtpy
; File c:\users\admin\desktop\projects\seye_server\seye_server.cpp
;	COMDAT ?Accept@TCPSocket@@QAE_NPAV1@@Z
_TEXT	SEGMENT
_s_sa$ = -24						; size = 4
_addr$ = -20						; size = 16
?Accept@TCPSocket@@QAE_NPAV1@@Z PROC			; TCPSocket::Accept, COMDAT

; 1146 : {

	sub	esp, 28					; 0000001cH
	push	esi
	mov	esi, DWORD PTR ?t_Client@@3PAVTCPSocket@@A ; t_Client
	push	edi
	mov	edi, DWORD PTR ?t_Sock@@3PAVTCPSocket@@A ; t_Sock

; 1147 : 	if(!this->Is_ConnectionWaiting())

	mov	eax, edi
	call	?Is_ConnectionWaiting@TCPSocket@@QAE_NXZ ; TCPSocket::Is_ConnectionWaiting
	test	al, al
	jne	SHORT $LN2@Accept
$LN7@Accept:

; 1148 : 	{
; 1149 : 		return 0;

	xor	al, al

; 1161 : 	return 1;
; 1162 : }

	pop	edi
	pop	esi
	add	esp, 28					; 0000001cH
	ret	0
$LN2@Accept:

; 1150 : 	}
; 1151 : 
; 1152 : 	sockaddr_in addr;
; 1153 : 	int s_sa = sizeof(sockaddr);
; 1154 : 	SOCKET client = accept(this->Socket, (sockaddr *)&addr, &s_sa);

	mov	edx, DWORD PTR [edi]
	lea	eax, DWORD PTR _s_sa$[esp+36]
	push	eax
	lea	ecx, DWORD PTR _addr$[esp+40]
	push	ecx
	push	edx
	mov	DWORD PTR _s_sa$[esp+48], 16		; 00000010H
	call	DWORD PTR __imp__accept@12
	mov	edi, eax

; 1155 : 	if(client == INVALID_SOCKET) 

	cmp	edi, -1

; 1156 : 	{
; 1157 : 		return 0;

	je	SHORT $LN7@Accept

; 1158 : 	}
; 1159 : 
; 1160 : 	NewConnection->TCPSocket::TCPSocket(client, 0);

	push	272					; 00000110H
	push	0
	push	esi
	call	_memset
	add	esp, 12					; 0000000cH
	mov	DWORD PTR [esi], edi
	mov	al, 1

; 1161 : 	return 1;
; 1162 : }

	pop	edi
	mov	DWORD PTR [esi+268], 0
	mov	BYTE PTR [esi+264], al
	pop	esi
	add	esp, 28					; 0000001cH
	ret	0
?Accept@TCPSocket@@QAE_NPAV1@@Z ENDP			; TCPSocket::Accept
_TEXT	ENDS
PUBLIC	?SendData@TCPSocket@@QAE_NPBDH@Z		; TCPSocket::SendData
; Function compile flags: /Ogtpy
;	COMDAT ?SendData@TCPSocket@@QAE_NPBDH@Z
_TEXT	SEGMENT
_Data$ = 8						; size = 4
_Length$ = 12						; size = 4
?SendData@TCPSocket@@QAE_NPBDH@Z PROC			; TCPSocket::SendData, COMDAT
; _this$ = ecx

; 1114 : {

	push	edi
	mov	edi, ecx

; 1115 : 	if(!this->Is_Connected())

	mov	eax, edi
	call	?Is_Connected@TCPSocket@@QAE_NXZ	; TCPSocket::Is_Connected
	test	al, al
	jne	SHORT $LN4@SendData
	pop	edi

; 1134 : }

	ret	8
$LN4@SendData:

; 1116 : 	{
; 1117 : 		return 0;
; 1118 : 	}
; 1119 : 
; 1120 : 	int Send_ = send(this->Socket, Data, Length, 0);

	mov	eax, DWORD PTR [edi]
	push	ebx
	mov	ebx, DWORD PTR _Data$[esp+4]
	push	esi
	mov	esi, DWORD PTR _Length$[esp+8]
	push	0
	push	esi
	push	ebx
	push	eax
	call	DWORD PTR __imp__send@16

; 1121 : 	if(Send_ != Length)

	cmp	eax, esi
	je	SHORT $LN1@SendData

; 1122 : 	{
; 1123 : 		if(Send_ == -1)

	cmp	eax, -1
	jne	SHORT $LN2@SendData
	pop	esi
	pop	ebx

; 1124 : 		{
; 1125 : 			return 0;

	xor	al, al
	pop	edi

; 1134 : }

	ret	8
$LN2@SendData:

; 1126 : 		}
; 1127 : 		else
; 1128 : 		{
; 1129 : 			this->SendData(Data+Send_, Length-Send_);

	sub	esi, eax
	push	esi
	add	eax, ebx
	push	eax
	mov	ecx, edi
	call	?SendData@TCPSocket@@QAE_NPBDH@Z	; TCPSocket::SendData
$LN1@SendData:
	pop	esi
	pop	ebx

; 1130 : 		}
; 1131 : 	}
; 1132 : 
; 1133 : 	return 1;

	mov	al, 1
	pop	edi

; 1134 : }

	ret	8
?SendData@TCPSocket@@QAE_NPBDH@Z ENDP			; TCPSocket::SendData
_TEXT	ENDS
PUBLIC	?Is_DataAvaliable@TCPSocket@@QAE_NXZ		; TCPSocket::Is_DataAvaliable
; Function compile flags: /Ogtpy
;	COMDAT ?Is_DataAvaliable@TCPSocket@@QAE_NXZ
_TEXT	SEGMENT
_tv$ = -276						; size = 8
_fd$ = -268						; size = 260
?Is_DataAvaliable@TCPSocket@@QAE_NXZ PROC		; TCPSocket::Is_DataAvaliable, COMDAT
; _this$ = eax

; 1032 : {

	sub	esp, 280				; 00000118H
	push	esi
	mov	esi, eax

; 1033 : 	if(!this->Is_Connected())

	call	?Is_Connected@TCPSocket@@QAE_NXZ	; TCPSocket::Is_Connected
	test	al, al

; 1034 : 	{
; 1035 : 		return 0;

	je	$LN8@Is_DataAva

; 1036 : 	}
; 1037 : 	if(this->Mode != 0)

	cmp	DWORD PTR [esi+268], 0

; 1038 : 	{
; 1039 : 		return 0;

	jne	$LN8@Is_DataAva

; 1040 : 	}
; 1041 : 	
; 1042 : 	fd_set fd;
; 1043 : 	TIMEVAL tv;
; 1044 : 
; 1045 : 	tv.tv_sec = 0;
; 1046 : 	tv.tv_usec = 1000;
; 1047 : 
; 1048 : 	FD_ZERO(&fd);
; 1049 : 	FD_SET(this->Socket, &fd);

	mov	eax, DWORD PTR [esi]

; 1050 : 
; 1051 : 	if(select((int)this->Socket, &fd, 0, 0, &tv) == -1)

	lea	ecx, DWORD PTR _tv$[esp+284]
	push	ecx
	push	0
	push	0
	lea	edx, DWORD PTR _fd$[esp+296]
	push	edx
	push	eax
	mov	DWORD PTR _tv$[esp+304], 0
	mov	DWORD PTR _tv$[esp+308], 1000		; 000003e8H
	mov	DWORD PTR _fd$[esp+308], eax
	mov	DWORD PTR _fd$[esp+304], 1
	call	DWORD PTR __imp__select@20
	cmp	eax, -1

; 1052 : 	{
; 1053 : 		return 0;

	je	$LN8@Is_DataAva

; 1054 : 	}
; 1055 : 
; 1056 : 	if(FD_ISSET(this->Socket, &fd))

	mov	ecx, DWORD PTR [esi]
	lea	eax, DWORD PTR _fd$[esp+284]
	push	eax
	push	ecx
	call	___WSAFDIsSet@8

; 1057 : 	{
; 1058 : 		FD_CLR(this->Socket, &fd);

	mov	ecx, DWORD PTR _fd$[esp+284]
	test	eax, eax
	je	SHORT $LN9@Is_DataAva
	xor	eax, eax
	test	ecx, ecx
	jbe	SHORT $LN17@Is_DataAva
	mov	esi, DWORD PTR [esi]
	npad	4
$LL15@Is_DataAva:
	cmp	DWORD PTR _fd$[esp+eax*4+288], esi
	je	SHORT $LN36@Is_DataAva
	inc	eax
	cmp	eax, ecx
	jb	SHORT $LL15@Is_DataAva

; 1059 : 		return 1;

	mov	al, 1

; 1063 : }

	pop	esi
	add	esp, 280				; 00000118H
	ret	0
$LN36@Is_DataAva:

; 1057 : 	{
; 1058 : 		FD_CLR(this->Socket, &fd);

	dec	ecx
	cmp	eax, ecx
	jae	SHORT $LN17@Is_DataAva
	npad	6
$LL11@Is_DataAva:
	mov	edx, DWORD PTR _fd$[esp+eax*4+292]
	mov	DWORD PTR _fd$[esp+eax*4+288], edx
	mov	ecx, DWORD PTR _fd$[esp+284]
	inc	eax
	dec	ecx
	cmp	eax, ecx
	jb	SHORT $LL11@Is_DataAva
$LN17@Is_DataAva:

; 1059 : 		return 1;

	mov	al, 1

; 1063 : }

	pop	esi
	add	esp, 280				; 00000118H
	ret	0
$LN9@Is_DataAva:

; 1060 : 	}
; 1061 : 	FD_CLR(this->Socket, &fd);

	xor	eax, eax
	test	ecx, ecx
	jbe	SHORT $LN8@Is_DataAva
	mov	esi, DWORD PTR [esi]
$LL6@Is_DataAva:
	cmp	DWORD PTR _fd$[esp+eax*4+288], esi
	je	SHORT $LN38@Is_DataAva
	inc	eax
	cmp	eax, ecx
	jb	SHORT $LL6@Is_DataAva

; 1062 : 	return 0;

	xor	al, al

; 1063 : }

	pop	esi
	add	esp, 280				; 00000118H
	ret	0
$LN38@Is_DataAva:

; 1060 : 	}
; 1061 : 	FD_CLR(this->Socket, &fd);

	dec	ecx
	cmp	eax, ecx
	jae	SHORT $LN8@Is_DataAva
	npad	2
$LL2@Is_DataAva:
	mov	edx, DWORD PTR _fd$[esp+eax*4+292]
	mov	DWORD PTR _fd$[esp+eax*4+288], edx
	mov	ecx, DWORD PTR _fd$[esp+284]
	inc	eax
	dec	ecx
	cmp	eax, ecx
	jb	SHORT $LL2@Is_DataAva
$LN8@Is_DataAva:

; 1062 : 	return 0;

	xor	al, al

; 1063 : }

	pop	esi
	add	esp, 280				; 00000118H
	ret	0
?Is_DataAvaliable@TCPSocket@@QAE_NXZ ENDP		; TCPSocket::Is_DataAvaliable
_TEXT	ENDS
PUBLIC	?Pack_String@SEyePacket@SEye@@QAEXPBD@Z		; SEye::SEyePacket::Pack_String
; Function compile flags: /Ogtpy
;	COMDAT ?Pack_String@SEyePacket@SEye@@QAEXPBD@Z
_TEXT	SEGMENT
?Pack_String@SEyePacket@SEye@@QAEXPBD@Z PROC		; SEye::SEyePacket::Pack_String, COMDAT
; _this$ = ecx
; _Data$ = esi

; 861  : 	this->Pack((const char *)Data, (int)strlen(Data)+1);

	mov	eax, esi
	push	edi
	lea	edi, DWORD PTR [eax+1]
$LL10@Pack_Strin:
	mov	dl, BYTE PTR [eax]
	inc	eax
	test	dl, dl
	jne	SHORT $LL10@Pack_Strin
	sub	eax, edi
	inc	eax
	pop	edi
	test	eax, eax
	jle	SHORT $LN3@Pack_Strin
	push	ebx
	npad	10
$LL5@Pack_Strin:
	movzx	edx, BYTE PTR [ecx]
	mov	bl, BYTE PTR [esi+eax-1]
	mov	BYTE PTR [edx+ecx+2], bl
	inc	BYTE PTR [ecx]
	dec	eax
	test	eax, eax
	jg	SHORT $LL5@Pack_Strin
	pop	ebx
$LN3@Pack_Strin:

; 862  : }

	ret	0
?Pack_String@SEyePacket@SEye@@QAEXPBD@Z ENDP		; SEye::SEyePacket::Pack_String
; Function compile flags: /Ogtpy
_TEXT	ENDS
;	COMDAT ??1?$ScriptRegistrant@VSEye_SOCKET@@@@UAE@XZ
_TEXT	SEGMENT
??1?$ScriptRegistrant@VSEye_SOCKET@@@@UAE@XZ PROC	; ScriptRegistrant<SEye_SOCKET>::~ScriptRegistrant<SEye_SOCKET>, COMDAT
; _this$ = ecx
	jmp	??1ScriptFactory@@UAE@XZ		; ScriptFactory::~ScriptFactory
??1?$ScriptRegistrant@VSEye_SOCKET@@@@UAE@XZ ENDP	; ScriptRegistrant<SEye_SOCKET>::~ScriptRegistrant<SEye_SOCKET>
; Function compile flags: /Ogtpy
_TEXT	ENDS
;	COMDAT ??1?$ScriptRegistrant@VSEye_Vehicle_Update@@@@UAE@XZ
_TEXT	SEGMENT
??1?$ScriptRegistrant@VSEye_Vehicle_Update@@@@UAE@XZ PROC ; ScriptRegistrant<SEye_Vehicle_Update>::~ScriptRegistrant<SEye_Vehicle_Update>, COMDAT
; _this$ = ecx
	jmp	??1ScriptFactory@@UAE@XZ		; ScriptFactory::~ScriptFactory
??1?$ScriptRegistrant@VSEye_Vehicle_Update@@@@UAE@XZ ENDP ; ScriptRegistrant<SEye_Vehicle_Update>::~ScriptRegistrant<SEye_Vehicle_Update>
; Function compile flags: /Ogtpy
_TEXT	ENDS
;	COMDAT ??1?$ScriptRegistrant@VSEye_Player_Update@@@@UAE@XZ
_TEXT	SEGMENT
??1?$ScriptRegistrant@VSEye_Player_Update@@@@UAE@XZ PROC ; ScriptRegistrant<SEye_Player_Update>::~ScriptRegistrant<SEye_Player_Update>, COMDAT
; _this$ = ecx
	jmp	??1ScriptFactory@@UAE@XZ		; ScriptFactory::~ScriptFactory
??1?$ScriptRegistrant@VSEye_Player_Update@@@@UAE@XZ ENDP ; ScriptRegistrant<SEye_Player_Update>::~ScriptRegistrant<SEye_Player_Update>
; Function compile flags: /Ogtpy
_TEXT	ENDS
;	COMDAT ??1?$ScriptRegistrant@VSEye_C4_Update@@@@UAE@XZ
_TEXT	SEGMENT
??1?$ScriptRegistrant@VSEye_C4_Update@@@@UAE@XZ PROC	; ScriptRegistrant<SEye_C4_Update>::~ScriptRegistrant<SEye_C4_Update>, COMDAT
; _this$ = ecx
	jmp	??1ScriptFactory@@UAE@XZ		; ScriptFactory::~ScriptFactory
??1?$ScriptRegistrant@VSEye_C4_Update@@@@UAE@XZ ENDP	; ScriptRegistrant<SEye_C4_Update>::~ScriptRegistrant<SEye_C4_Update>
; Function compile flags: /Ogtpy
_TEXT	ENDS
;	COMDAT ??1?$ScriptRegistrant@VSEye_Building_Update@@@@UAE@XZ
_TEXT	SEGMENT
??1?$ScriptRegistrant@VSEye_Building_Update@@@@UAE@XZ PROC ; ScriptRegistrant<SEye_Building_Update>::~ScriptRegistrant<SEye_Building_Update>, COMDAT
; _this$ = ecx
	jmp	??1ScriptFactory@@UAE@XZ		; ScriptFactory::~ScriptFactory
??1?$ScriptRegistrant@VSEye_Building_Update@@@@UAE@XZ ENDP ; ScriptRegistrant<SEye_Building_Update>::~ScriptRegistrant<SEye_Building_Update>
; Function compile flags: /Ogtpy
_TEXT	ENDS
;	COMDAT ?Killed@SEye_Building_Update@@EAEXPAE0@Z
_TEXT	SEGMENT
$T156796 = -520						; size = 4
_BuildingDestroyed$112105 = -516			; size = 514
_o$ = 8							; size = 4
___formal$ = 12						; size = 4
?Killed@SEye_Building_Update@@EAEXPAE0@Z PROC		; SEye_Building_Update::Killed, COMDAT
; _this$ = ecx

; 809  : 	{

	sub	esp, 520				; 00000208H

; 810  : 		if(t_Client)

	cmp	DWORD PTR ?t_Client@@3PAVTCPSocket@@A, 0 ; t_Client
	je	$LN17@Killed
	push	esi
	push	edi

; 811  : 		{
; 812  : 			SEye::SEyePacket BuildingDestroyed;

	push	514					; 00000202H
	lea	eax, DWORD PTR _BuildingDestroyed$112105[esp+532]
	push	0
	push	eax
	call	_memset

; 813  : 			BuildingDestroyed.SetType(9);
; 814  : 			BuildingDestroyed.Pack<unsigned int>(Commands->Get_ID(o));

	mov	ecx, DWORD PTR _o$[esp+536]
	mov	edx, DWORD PTR ?Commands@@3PAUScriptCommands@@A ; Commands
	mov	eax, DWORD PTR [edx+108]
	push	ecx
	mov	BYTE PTR _BuildingDestroyed$112105[esp+545], 9
	call	eax
	movzx	ecx, BYTE PTR _BuildingDestroyed$112105[esp+544]
	mov	DWORD PTR $T156796[esp+544], eax
	movzx	edx, BYTE PTR $T156796[esp+547]
	mov	BYTE PTR _BuildingDestroyed$112105[esp+ecx+546], dl
	mov	cl, BYTE PTR _BuildingDestroyed$112105[esp+544]
	movzx	edx, BYTE PTR $T156796[esp+546]
	inc	cl
	mov	BYTE PTR _BuildingDestroyed$112105[esp+544], cl
	movzx	ecx, cl
	mov	BYTE PTR _BuildingDestroyed$112105[esp+ecx+546], dl
	mov	cl, BYTE PTR _BuildingDestroyed$112105[esp+544]
	inc	cl
	mov	BYTE PTR _BuildingDestroyed$112105[esp+544], cl
	movzx	ecx, cl
	mov	BYTE PTR _BuildingDestroyed$112105[esp+ecx+546], ah
	mov	cl, BYTE PTR _BuildingDestroyed$112105[esp+544]
	inc	cl
	movzx	edx, cl
	mov	BYTE PTR _BuildingDestroyed$112105[esp+544], cl
	mov	BYTE PTR _BuildingDestroyed$112105[esp+edx+546], al
	mov	al, BYTE PTR _BuildingDestroyed$112105[esp+544]
	inc	al

; 815  : 			t_Client->SendData((const char *)&BuildingDestroyed, BuildingDestroyed.GetSize());

	movzx	esi, al
	mov	BYTE PTR _BuildingDestroyed$112105[esp+544], al
	mov	eax, DWORD PTR ?t_Client@@3PAVTCPSocket@@A ; t_Client
	add	esp, 16					; 00000010H
	add	esi, 8
	mov	edi, eax
	call	?Is_Connected@TCPSocket@@QAE_NXZ	; TCPSocket::Is_Connected
	test	al, al
	je	SHORT $LN29@Killed
	mov	ecx, DWORD PTR [edi]
	push	0
	push	esi
	lea	eax, DWORD PTR _BuildingDestroyed$112105[esp+536]
	push	eax
	push	ecx
	call	DWORD PTR __imp__send@16
	cmp	eax, esi
	je	SHORT $LN29@Killed
	cmp	eax, -1
	je	SHORT $LN29@Killed
	sub	esi, eax
	push	esi
	lea	edx, DWORD PTR _BuildingDestroyed$112105[esp+eax+532]
	push	edx
	mov	ecx, edi
	call	?SendData@TCPSocket@@QAE_NPBDH@Z	; TCPSocket::SendData
$LN29@Killed:
	pop	edi
	pop	esi
$LN17@Killed:

; 816  : 		}
; 817  : 	}

	add	esp, 520				; 00000208H
	ret	8
?Killed@SEye_Building_Update@@EAEXPAE0@Z ENDP		; SEye_Building_Update::Killed
; Function compile flags: /Ogtpy
_TEXT	ENDS
;	COMDAT ?Damaged@SEye_Building_Update@@EAEXPAE0M@Z
_TEXT	SEGMENT
_BuildingDamaged$112097 = -516				; size = 514
_o$ = 8							; size = 4
_Attacker$ = 12						; size = 4
_Damage$ = 16						; size = 4
?Damaged@SEye_Building_Update@@EAEXPAE0M@Z PROC		; SEye_Building_Update::Damaged, COMDAT
; _this$ = ecx

; 775  : 	{

	sub	esp, 516				; 00000204H
	push	edi

; 776  : 		if(!Attacker)

	mov	edi, DWORD PTR _Attacker$[esp+516]
	test	edi, edi
	je	$LN1@Damaged

; 777  : 		{
; 778  : 			return;
; 779  : 		}
; 780  : 		if(Damage == 0)

	fldz
	fcomp	DWORD PTR _Damage$[esp+516]
	fnstsw	ax
	test	ah, 68					; 00000044H
	jnp	$LN1@Damaged
	push	esi

; 781  : 		{
; 782  : 			return;
; 783  : 		}
; 784  : 
; 785  : 		if(Attacker == o)

	mov	esi, DWORD PTR _o$[esp+520]
	cmp	edi, esi
	je	$LN25@Damaged

; 786  : 		{
; 787  : 			return;
; 788  : 		}
; 789  : 
; 790  : 		if(!CanSendDamage)

	cmp	BYTE PTR [ecx+32], 0
	je	$LN25@Damaged

; 791  : 		{
; 792  : 			return;
; 793  : 		}
; 794  : 		CanSendDamage = 0;
; 795  : 		Commands->Start_Timer(o, this, 1.0, 2);

	fld1
	mov	eax, DWORD PTR ?Commands@@3PAUScriptCommands@@A ; Commands
	push	2
	push	ecx
	fstp	DWORD PTR [esp]
	push	ecx
	mov	BYTE PTR [ecx+32], 0
	mov	ecx, DWORD PTR [eax+128]
	push	esi
	call	ecx
	add	esp, 16					; 00000010H

; 796  : 
; 797  : 		if(t_Client)

	cmp	DWORD PTR ?t_Client@@3PAVTCPSocket@@A, 0 ; t_Client
	je	$LN25@Damaged

; 798  : 		{
; 799  : 			SEye::SEyePacket BuildingDamaged;

	push	514					; 00000202H
	lea	edx, DWORD PTR _BuildingDamaged$112097[esp+528]
	push	0
	push	edx
	call	_memset

; 800  : 			BuildingDamaged.SetType(9);
; 801  : 			BuildingDamaged.Pack<unsigned int> (Commands->Get_ID(o));

	mov	eax, DWORD PTR ?Commands@@3PAUScriptCommands@@A ; Commands
	mov	ecx, DWORD PTR [eax+108]
	push	esi
	mov	BYTE PTR _BuildingDamaged$112097[esp+541], 9
	call	ecx
	add	esp, 16					; 00000010H
	push	eax
	lea	eax, DWORD PTR _BuildingDamaged$112097[esp+528]
	call	??$Pack@I@SEyePacket@SEye@@QAEXI@Z	; SEye::SEyePacket::Pack<unsigned int>

; 802  : 			BuildingDamaged.Pack<unsigned int> (Commands->Get_ID(Attacker));

	mov	edx, DWORD PTR ?Commands@@3PAUScriptCommands@@A ; Commands
	mov	eax, DWORD PTR [edx+108]
	push	edi
	call	eax
	add	esp, 4
	push	eax
	lea	eax, DWORD PTR _BuildingDamaged$112097[esp+528]
	call	??$Pack@I@SEyePacket@SEye@@QAEXI@Z	; SEye::SEyePacket::Pack<unsigned int>

; 803  : 			BuildingDamaged.Pack<bool> (Damage > 0 ? 1 : 0);

	fldz
	fcomp	DWORD PTR _Damage$[esp+520]
	fnstsw	ax
	test	ah, 5
	jp	SHORT $LN8@Damaged
	mov	al, 1
	jmp	SHORT $LN9@Damaged
$LN8@Damaged:
	xor	al, al
$LN9@Damaged:
	movzx	ecx, BYTE PTR _BuildingDamaged$112097[esp+524]
	mov	BYTE PTR _BuildingDamaged$112097[esp+ecx+526], al
	mov	al, BYTE PTR _BuildingDamaged$112097[esp+524]

; 804  : 			t_Client->SendData((const char *)& BuildingDamaged, BuildingDamaged.GetSize());

	mov	ecx, DWORD PTR ?t_Client@@3PAVTCPSocket@@A ; t_Client
	inc	al
	movzx	edx, al
	add	edx, 8
	mov	BYTE PTR _BuildingDamaged$112097[esp+524], al
	push	edx
	lea	eax, DWORD PTR _BuildingDamaged$112097[esp+528]
	push	eax
	call	?SendData@TCPSocket@@QAE_NPBDH@Z	; TCPSocket::SendData
$LN25@Damaged:
	pop	esi
$LN1@Damaged:
	pop	edi

; 805  : 		}
; 806  : 	}

	add	esp, 516				; 00000204H
	ret	12					; 0000000cH
?Damaged@SEye_Building_Update@@EAEXPAE0M@Z ENDP		; SEye_Building_Update::Damaged
; Function compile flags: /Ogtpy
_TEXT	ENDS
;	COMDAT ?Timer_Expired@SEye_Building_Update@@EAEXPAEH@Z
_TEXT	SEGMENT
tv348 = -528						; size = 2
tv325 = -528						; size = 4
$T156891 = -528						; size = 4
_HP$112081 = -528					; size = 4
tv345 = -524						; size = 4
tv343 = -524						; size = 8
_BuildingUpdate$112084 = -516				; size = 514
_o$ = 8							; size = 4
_number$ = 12						; size = 4
?Timer_Expired@SEye_Building_Update@@EAEXPAEH@Z PROC	; SEye_Building_Update::Timer_Expired, COMDAT
; _this$ = ecx

; 748  : 		if(number == 1)

	mov	eax, DWORD PTR _number$[esp-4]
	sub	esp, 528				; 00000210H
	push	edi
	mov	edi, ecx
	cmp	eax, 1
	jne	$LN5@Timer_Expi

; 749  : 		{
; 750  : 			unsigned int HP = unsigned int(Commands->Get_Health(o)+Commands->Get_Shield_Strength(o));

	mov	eax, DWORD PTR ?Commands@@3PAUScriptCommands@@A ; Commands
	mov	ecx, DWORD PTR [eax+232]
	push	ebx
	push	esi
	mov	esi, DWORD PTR _o$[esp+536]
	push	esi
	call	ecx
	fstp	DWORD PTR tv325[esp+544]
	mov	edx, DWORD PTR ?Commands@@3PAUScriptCommands@@A ; Commands
	mov	eax, DWORD PTR [edx+220]
	push	esi
	call	eax
	fadd	DWORD PTR tv325[esp+548]
	fnstcw	WORD PTR tv348[esp+548]
	movzx	eax, WORD PTR tv348[esp+548]
	or	eax, 3072				; 00000c00H
	mov	DWORD PTR tv345[esp+548], eax
	add	esp, 8
	fldcw	WORD PTR tv345[esp+540]
	fistp	QWORD PTR tv343[esp+540]
	mov	ebx, DWORD PTR tv343[esp+540]
	fldcw	WORD PTR tv348[esp+540]
	mov	DWORD PTR _HP$112081[esp+540], ebx

; 751  : 			if(HP != Last_HP)

	cmp	ebx, DWORD PTR [edi+28]
	je	$LN3@Timer_Expi

; 752  : 			{
; 753  : 				Last_HP = HP;
; 754  : 				if(t_Client)

	cmp	DWORD PTR ?t_Client@@3PAVTCPSocket@@A, 0 ; t_Client
	mov	DWORD PTR [edi+28], ebx
	je	$LN3@Timer_Expi

; 755  : 				{
; 756  : 					SEye::SEyePacket BuildingUpdate;

	push	514					; 00000202H
	lea	ecx, DWORD PTR _BuildingUpdate$112084[esp+544]
	push	0
	push	ecx
	call	_memset

; 757  : 					BuildingUpdate.SetType(7);
; 758  : 
; 759  : 					BuildingUpdate.Pack<unsigned int>(HP);

	movzx	edx, BYTE PTR _BuildingUpdate$112084[esp+552]
	movzx	eax, BYTE PTR _HP$112081[esp+555]
	mov	BYTE PTR _BuildingUpdate$112084[esp+553], 7
	mov	BYTE PTR _BuildingUpdate$112084[esp+edx+554], al
	mov	al, BYTE PTR _BuildingUpdate$112084[esp+552]
	movzx	edx, BYTE PTR _HP$112081[esp+554]
	inc	al
	movzx	ecx, al
	mov	BYTE PTR _BuildingUpdate$112084[esp+552], al
	mov	BYTE PTR _BuildingUpdate$112084[esp+ecx+554], dl
	mov	al, BYTE PTR _BuildingUpdate$112084[esp+552]

; 760  : 					BuildingUpdate.Pack<unsigned int>(Commands->Get_ID(o));

	mov	edx, DWORD PTR ?Commands@@3PAUScriptCommands@@A ; Commands
	inc	al
	mov	BYTE PTR _BuildingUpdate$112084[esp+552], al
	movzx	eax, al
	mov	BYTE PTR _BuildingUpdate$112084[esp+eax+554], bh
	mov	al, BYTE PTR _BuildingUpdate$112084[esp+552]
	inc	al
	movzx	ecx, al
	mov	BYTE PTR _BuildingUpdate$112084[esp+552], al
	mov	eax, DWORD PTR [edx+108]
	mov	BYTE PTR _BuildingUpdate$112084[esp+ecx+554], bl
	inc	BYTE PTR _BuildingUpdate$112084[esp+552]
	push	esi
	call	eax
	movzx	ecx, BYTE PTR _BuildingUpdate$112084[esp+556]
	mov	DWORD PTR $T156891[esp+556], eax
	movzx	edx, BYTE PTR $T156891[esp+559]
	mov	BYTE PTR _BuildingUpdate$112084[esp+ecx+558], dl
	mov	cl, BYTE PTR _BuildingUpdate$112084[esp+556]
	movzx	edx, BYTE PTR $T156891[esp+558]
	inc	cl
	mov	BYTE PTR _BuildingUpdate$112084[esp+556], cl
	movzx	ecx, cl
	mov	BYTE PTR _BuildingUpdate$112084[esp+ecx+558], dl
	mov	cl, BYTE PTR _BuildingUpdate$112084[esp+556]
	inc	cl
	mov	BYTE PTR _BuildingUpdate$112084[esp+556], cl
	movzx	ecx, cl
	mov	BYTE PTR _BuildingUpdate$112084[esp+ecx+558], ah
	mov	cl, BYTE PTR _BuildingUpdate$112084[esp+556]
	inc	cl
	movzx	edx, cl
	mov	BYTE PTR _BuildingUpdate$112084[esp+556], cl
	mov	BYTE PTR _BuildingUpdate$112084[esp+edx+558], al
	mov	al, BYTE PTR _BuildingUpdate$112084[esp+556]
	inc	al
	mov	BYTE PTR _BuildingUpdate$112084[esp+556], al

; 761  : 
; 762  : 					t_Client->SendData((const char *)&BuildingUpdate, BuildingUpdate.GetSize());

	movzx	eax, al
	add	esp, 16					; 00000010H
	add	eax, 8
	push	eax
	lea	ecx, DWORD PTR _BuildingUpdate$112084[esp+544]
	push	ecx
	mov	ecx, DWORD PTR ?t_Client@@3PAVTCPSocket@@A ; t_Client
	call	?SendData@TCPSocket@@QAE_NPBDH@Z	; TCPSocket::SendData
$LN3@Timer_Expi:

; 763  : 
; 764  : 				}
; 765  : 			}
; 766  : 			Commands->Start_Timer(o, this, 1.0, 1);

	fld1
	mov	edx, DWORD PTR ?Commands@@3PAUScriptCommands@@A ; Commands
	mov	eax, DWORD PTR [edx+128]
	push	1
	push	ecx
	fstp	DWORD PTR [esp]
	push	edi
	push	esi
	call	eax
	add	esp, 16					; 00000010H
	pop	esi
	pop	ebx
	pop	edi

; 771  : 		}
; 772  : 	}

	add	esp, 528				; 00000210H
	ret	8
$LN5@Timer_Expi:

; 767  : 		}
; 768  : 		else if(number == 2)

	cmp	eax, 2
	jne	SHORT $LN1@Timer_Expi

; 769  : 		{
; 770  : 			CanSendDamage = 1;

	mov	BYTE PTR [edi+32], 1
$LN1@Timer_Expi:
	pop	edi

; 771  : 		}
; 772  : 	}

	add	esp, 528				; 00000210H
	ret	8
?Timer_Expired@SEye_Building_Update@@EAEXPAEH@Z ENDP	; SEye_Building_Update::Timer_Expired
; Function compile flags: /Ogtpy
_TEXT	ENDS
;	COMDAT ?Created@SEye_Building_Update@@EAEXPAE@Z
_TEXT	SEGMENT
tv664 = -544						; size = 2
$T156964 = -544						; size = 4
$T156948 = -544						; size = 4
tv661 = -540						; size = 4
tv659 = -540						; size = 8
tv574 = -540						; size = 4
$T157020 = -540						; size = 4
_nHP$112069 = -540					; size = 4
$T156910 = -540						; size = 12
_pos$112067 = -528					; size = 12
_BuildingUpdate$112070 = -516				; size = 514
_o$ = 8							; size = 4
?Created@SEye_Building_Update@@EAEXPAE@Z PROC		; SEye_Building_Update::Created, COMDAT
; _this$ = ecx

; 725  : 	{

	sub	esp, 544				; 00000220H

; 726  : 		CanSendDamage = 1;
; 727  : 		if(t_Client)

	cmp	DWORD PTR ?t_Client@@3PAVTCPSocket@@A, 0 ; t_Client
	push	ebp
	mov	ebp, ecx
	push	edi
	mov	edi, DWORD PTR _o$[esp+548]
	mov	BYTE PTR [ebp+32], 1
	je	$LN57@Created

; 728  : 		{
; 729  : 			Vector3 pos = Commands->Get_Position(o);

	mov	ecx, DWORD PTR ?Commands@@3PAUScriptCommands@@A ; Commands
	mov	edx, DWORD PTR [ecx+64]
	push	ebx
	push	esi
	lea	eax, DWORD PTR $T156910[esp+560]
	push	edi
	push	eax
	call	edx
	mov	ecx, DWORD PTR [eax]
	mov	edx, DWORD PTR [eax+4]
	mov	eax, DWORD PTR [eax+8]
	mov	DWORD PTR _pos$112067[esp+568], ecx

; 730  : 			unsigned int nHP = int(Commands->Get_Max_Health(o)+Commands->Get_Max_Shield_Strength(o));

	mov	ecx, DWORD PTR ?Commands@@3PAUScriptCommands@@A ; Commands
	mov	DWORD PTR _pos$112067[esp+572], edx
	mov	edx, DWORD PTR [ecx+236]
	push	edi
	mov	DWORD PTR _pos$112067[esp+580], eax
	call	edx
	mov	eax, DWORD PTR ?Commands@@3PAUScriptCommands@@A ; Commands
	mov	ecx, DWORD PTR [eax+224]
	fstp	DWORD PTR tv574[esp+572]
	push	edi
	call	ecx
	fadd	DWORD PTR tv574[esp+576]
	fnstcw	WORD PTR tv664[esp+576]
	movzx	eax, WORD PTR tv664[esp+576]
	or	eax, 3072				; 00000c00H
	mov	DWORD PTR tv661[esp+576], eax

; 731  : 			SEye::SEyePacket BuildingUpdate;

	push	514					; 00000202H
	fldcw	WORD PTR tv661[esp+580]
	lea	edx, DWORD PTR _BuildingUpdate$112070[esp+580]
	push	0
	push	edx
	fistp	QWORD PTR tv659[esp+588]
	mov	ebx, DWORD PTR tv659[esp+588]
	mov	DWORD PTR _nHP$112069[esp+588], ebx
	fldcw	WORD PTR tv664[esp+588]
	call	_memset

; 732  : 			BuildingUpdate.SetType(4);
; 733  : 			
; 734  : 			BuildingUpdate.Pack_String (Commands->Get_Preset_Name(o));

	mov	eax, DWORD PTR ?Commands@@3PAUScriptCommands@@A ; Commands
	mov	BYTE PTR _BuildingUpdate$112070[esp+589], 4
	mov	ecx, DWORD PTR [eax+116]
	push	edi
	call	ecx
	mov	esi, eax
	mov	ecx, esi
	add	esp, 32					; 00000020H
	lea	edx, DWORD PTR [ecx+1]
	npad	1
$LL91@Created:
	mov	al, BYTE PTR [ecx]
	inc	ecx
	test	al, al
	jne	SHORT $LL91@Created
	sub	ecx, edx
	inc	ecx
	test	ecx, ecx
	jle	SHORT $LN92@Created
	npad	2
$LL12@Created:
	movzx	edx, BYTE PTR _BuildingUpdate$112070[esp+560]
	mov	al, BYTE PTR [esi+ecx-1]
	mov	BYTE PTR _BuildingUpdate$112070[esp+edx+562], al
	inc	BYTE PTR _BuildingUpdate$112070[esp+560]
	dec	ecx
	test	ecx, ecx
	jg	SHORT $LL12@Created
$LN92@Created:

; 735  : 			BuildingUpdate.Pack<float>(pos.Y);

	movzx	ecx, BYTE PTR _BuildingUpdate$112070[esp+560]
	fld	DWORD PTR _pos$112067[esp+564]
	fstp	DWORD PTR $T156948[esp+560]
	movzx	edx, BYTE PTR $T156948[esp+563]

; 736  : 			BuildingUpdate.Pack<float>(pos.X);

	fld	DWORD PTR _pos$112067[esp+560]
	mov	BYTE PTR _BuildingUpdate$112070[esp+ecx+562], dl
	mov	al, BYTE PTR _BuildingUpdate$112070[esp+560]
	movzx	ecx, BYTE PTR $T156948[esp+562]
	inc	al
	mov	BYTE PTR _BuildingUpdate$112070[esp+560], al
	movzx	eax, al
	mov	BYTE PTR _BuildingUpdate$112070[esp+eax+562], cl
	mov	al, BYTE PTR _BuildingUpdate$112070[esp+560]
	inc	al
	mov	BYTE PTR _BuildingUpdate$112070[esp+560], al
	movzx	edx, al
	movzx	eax, BYTE PTR $T156948[esp+561]
	mov	BYTE PTR _BuildingUpdate$112070[esp+edx+562], al
	mov	al, BYTE PTR _BuildingUpdate$112070[esp+560]
	movzx	edx, BYTE PTR $T156948[esp+560]
	fstp	DWORD PTR $T156964[esp+560]
	inc	al
	mov	BYTE PTR _BuildingUpdate$112070[esp+560], al
	movzx	ecx, al
	mov	BYTE PTR _BuildingUpdate$112070[esp+ecx+562], dl
	mov	al, BYTE PTR _BuildingUpdate$112070[esp+560]
	movzx	ecx, BYTE PTR $T156964[esp+563]
	inc	al
	mov	BYTE PTR _BuildingUpdate$112070[esp+560], al
	movzx	eax, al
	mov	BYTE PTR _BuildingUpdate$112070[esp+eax+562], cl
	mov	al, BYTE PTR _BuildingUpdate$112070[esp+560]
	inc	al
	mov	BYTE PTR _BuildingUpdate$112070[esp+560], al
	movzx	edx, al
	movzx	eax, BYTE PTR $T156964[esp+562]
	mov	BYTE PTR _BuildingUpdate$112070[esp+edx+562], al
	mov	al, BYTE PTR _BuildingUpdate$112070[esp+560]
	movzx	edx, BYTE PTR $T156964[esp+561]
	inc	al
	mov	BYTE PTR _BuildingUpdate$112070[esp+560], al
	movzx	ecx, al
	mov	BYTE PTR _BuildingUpdate$112070[esp+ecx+562], dl
	mov	al, BYTE PTR _BuildingUpdate$112070[esp+560]
	movzx	ecx, BYTE PTR $T156964[esp+560]
	inc	al
	mov	BYTE PTR _BuildingUpdate$112070[esp+560], al
	movzx	eax, al
	mov	BYTE PTR _BuildingUpdate$112070[esp+eax+562], cl
	mov	al, BYTE PTR _BuildingUpdate$112070[esp+560]
	inc	al
	mov	BYTE PTR _BuildingUpdate$112070[esp+560], al

; 737  : 			BuildingUpdate.Pack<unsigned int> (nHP);

	movzx	edx, al
	movzx	eax, BYTE PTR _nHP$112069[esp+563]
	mov	BYTE PTR _BuildingUpdate$112070[esp+edx+562], al
	mov	al, BYTE PTR _BuildingUpdate$112070[esp+560]
	movzx	edx, BYTE PTR _nHP$112069[esp+562]
	inc	al
	movzx	ecx, al
	mov	BYTE PTR _BuildingUpdate$112070[esp+560], al
	mov	BYTE PTR _BuildingUpdate$112070[esp+ecx+562], dl
	mov	al, BYTE PTR _BuildingUpdate$112070[esp+560]

; 738  : 			BuildingUpdate.Pack<char> ((char)Get_Object_Type(o));

	mov	edx, DWORD PTR ?Commands@@3PAUScriptCommands@@A ; Commands
	inc	al
	mov	BYTE PTR _BuildingUpdate$112070[esp+560], al
	movzx	eax, al
	mov	BYTE PTR _BuildingUpdate$112070[esp+eax+562], bh
	mov	al, BYTE PTR _BuildingUpdate$112070[esp+560]
	inc	al
	movzx	ecx, al
	mov	BYTE PTR _BuildingUpdate$112070[esp+560], al
	mov	BYTE PTR _BuildingUpdate$112070[esp+ecx+562], bl
	inc	BYTE PTR _BuildingUpdate$112070[esp+560]
	mov	eax, DWORD PTR [edx+108]
	push	edi
	call	eax
	add	esp, 4
	test	eax, eax
	je	SHORT $LN93@Created
	test	edi, edi
	je	SHORT $LN93@Created
	mov	edx, DWORD PTR [edi]
	mov	eax, DWORD PTR [edx+60]
	mov	ecx, edi
	call	eax
	test	eax, eax
	je	SHORT $LN93@Created
	mov	eax, DWORD PTR [eax+1892]
	jmp	SHORT $LN39@Created
$LN93@Created:
	xor	eax, eax
$LN39@Created:
	movzx	ecx, BYTE PTR _BuildingUpdate$112070[esp+560]

; 739  : 			BuildingUpdate.Pack<unsigned int> (Commands->Get_ID(o));

	mov	edx, DWORD PTR ?Commands@@3PAUScriptCommands@@A ; Commands
	mov	BYTE PTR _BuildingUpdate$112070[esp+ecx+562], al
	inc	BYTE PTR _BuildingUpdate$112070[esp+560]
	mov	eax, DWORD PTR [edx+108]
	push	edi
	call	eax
	movzx	ecx, BYTE PTR _BuildingUpdate$112070[esp+564]
	mov	DWORD PTR $T157020[esp+564], eax
	movzx	edx, BYTE PTR $T157020[esp+567]
	mov	BYTE PTR _BuildingUpdate$112070[esp+ecx+566], dl
	mov	cl, BYTE PTR _BuildingUpdate$112070[esp+564]
	movzx	edx, BYTE PTR $T157020[esp+566]
	inc	cl
	mov	BYTE PTR _BuildingUpdate$112070[esp+564], cl
	movzx	ecx, cl
	mov	BYTE PTR _BuildingUpdate$112070[esp+ecx+566], dl
	mov	cl, BYTE PTR _BuildingUpdate$112070[esp+564]
	inc	cl
	mov	BYTE PTR _BuildingUpdate$112070[esp+564], cl
	movzx	ecx, cl
	mov	BYTE PTR _BuildingUpdate$112070[esp+ecx+566], ah
	mov	cl, BYTE PTR _BuildingUpdate$112070[esp+564]
	inc	cl
	movzx	edx, cl
	mov	BYTE PTR _BuildingUpdate$112070[esp+564], cl
	mov	BYTE PTR _BuildingUpdate$112070[esp+edx+566], al
	mov	al, BYTE PTR _BuildingUpdate$112070[esp+564]
	inc	al

; 740  : 			t_Client->SendData((const char *)&BuildingUpdate, BuildingUpdate.GetSize());

	movzx	esi, al
	mov	BYTE PTR _BuildingUpdate$112070[esp+564], al
	mov	eax, DWORD PTR ?t_Client@@3PAVTCPSocket@@A ; t_Client
	add	esp, 4
	add	esi, 8
	mov	ebx, eax
	call	?Is_Connected@TCPSocket@@QAE_NXZ	; TCPSocket::Is_Connected
	test	al, al
	je	SHORT $LN94@Created
	mov	ecx, DWORD PTR [ebx]
	push	0
	push	esi
	lea	eax, DWORD PTR _BuildingUpdate$112070[esp+568]
	push	eax
	push	ecx
	call	DWORD PTR __imp__send@16
	cmp	eax, esi
	je	SHORT $LN94@Created
	cmp	eax, -1
	je	SHORT $LN94@Created
	sub	esi, eax
	push	esi
	lea	edx, DWORD PTR _BuildingUpdate$112070[esp+eax+564]
	push	edx
	mov	ecx, ebx
	call	?SendData@TCPSocket@@QAE_NPBDH@Z	; TCPSocket::SendData
$LN94@Created:
	pop	esi
	pop	ebx
$LN57@Created:

; 741  : 		}
; 742  : 
; 743  : 		Commands->Start_Timer(o, this, 1.0, 1);

	fld1
	mov	eax, DWORD PTR ?Commands@@3PAUScriptCommands@@A ; Commands
	push	1
	push	ecx
	mov	ecx, DWORD PTR [eax+128]
	fstp	DWORD PTR [esp]
	push	ebp
	push	edi
	call	ecx
	add	esp, 16					; 00000010H
	pop	edi
	pop	ebp

; 744  : 	}

	add	esp, 544				; 00000220H
	ret	4
?Created@SEye_Building_Update@@EAEXPAE@Z ENDP		; SEye_Building_Update::Created
; Function compile flags: /Ogtpy
_TEXT	ENDS
;	COMDAT ?Destroyed@SEye_C4_Update@@EAEXPAE@Z
_TEXT	SEGMENT
$T157092 = -520						; size = 4
_MineKilled$112033 = -516				; size = 514
_o$ = 8							; size = 4
?Destroyed@SEye_C4_Update@@EAEXPAE@Z PROC		; SEye_C4_Update::Destroyed, COMDAT
; _this$ = ecx

; 708  : 	{

	sub	esp, 520				; 00000208H

; 709  : 		if(t_Client)

	cmp	DWORD PTR ?t_Client@@3PAVTCPSocket@@A, 0 ; t_Client
	push	esi
	mov	esi, ecx
	je	$LN17@Destroyed
	push	edi

; 710  : 		{
; 711  : 			SEye::SEyePacket MineKilled;

	push	514					; 00000202H
	lea	eax, DWORD PTR _MineKilled$112033[esp+532]
	push	0
	push	eax
	call	_memset

; 712  : 			MineKilled.SetType(Explode ? 8 : 13);

	movzx	ecx, BYTE PTR [esi+32]

; 713  : 			MineKilled.Pack<unsigned int>(Commands->Get_ID(o));

	mov	edx, DWORD PTR _o$[esp+536]
	mov	eax, DWORD PTR ?Commands@@3PAUScriptCommands@@A ; Commands
	neg	cl
	sbb	cl, cl
	and	cl, 251					; 000000fbH
	add	cl, 13					; 0000000dH
	mov	BYTE PTR _MineKilled$112033[esp+541], cl
	mov	ecx, DWORD PTR [eax+108]
	push	edx
	call	ecx
	movzx	edx, BYTE PTR _MineKilled$112033[esp+544]
	mov	DWORD PTR $T157092[esp+544], eax
	movzx	ecx, BYTE PTR $T157092[esp+547]
	mov	BYTE PTR _MineKilled$112033[esp+edx+546], cl
	mov	cl, BYTE PTR _MineKilled$112033[esp+544]
	inc	cl
	mov	BYTE PTR _MineKilled$112033[esp+544], cl
	movzx	edx, cl
	movzx	ecx, BYTE PTR $T157092[esp+546]
	mov	BYTE PTR _MineKilled$112033[esp+edx+546], cl
	mov	cl, BYTE PTR _MineKilled$112033[esp+544]
	inc	cl
	movzx	edx, cl
	mov	BYTE PTR _MineKilled$112033[esp+544], cl
	mov	BYTE PTR _MineKilled$112033[esp+edx+546], ah
	mov	cl, BYTE PTR _MineKilled$112033[esp+544]
	inc	cl
	mov	BYTE PTR _MineKilled$112033[esp+544], cl
	movzx	ecx, cl
	mov	BYTE PTR _MineKilled$112033[esp+ecx+546], al
	mov	al, BYTE PTR _MineKilled$112033[esp+544]
	inc	al

; 714  : 			t_Client->SendData((const char *)&MineKilled, MineKilled.GetSize());

	movzx	esi, al
	mov	BYTE PTR _MineKilled$112033[esp+544], al
	mov	eax, DWORD PTR ?t_Client@@3PAVTCPSocket@@A ; t_Client
	add	esp, 16					; 00000010H
	add	esi, 8
	mov	edi, eax
	call	?Is_Connected@TCPSocket@@QAE_NXZ	; TCPSocket::Is_Connected
	test	al, al
	je	SHORT $LN29@Destroyed
	mov	eax, DWORD PTR [edi]
	push	0
	push	esi
	lea	edx, DWORD PTR _MineKilled$112033[esp+536]
	push	edx
	push	eax
	call	DWORD PTR __imp__send@16
	cmp	eax, esi
	je	SHORT $LN29@Destroyed
	cmp	eax, -1
	je	SHORT $LN29@Destroyed
	sub	esi, eax
	lea	ecx, DWORD PTR _MineKilled$112033[esp+eax+528]
	push	esi
	push	ecx
	mov	ecx, edi
	call	?SendData@TCPSocket@@QAE_NPBDH@Z	; TCPSocket::SendData
$LN29@Destroyed:
	pop	edi
$LN17@Destroyed:
	pop	esi

; 715  : 		}
; 716  : 	}

	add	esp, 520				; 00000208H
	ret	4
?Destroyed@SEye_C4_Update@@EAEXPAE@Z ENDP		; SEye_C4_Update::Destroyed
_TEXT	ENDS
PUBLIC	__real@3f000000
;	COMDAT __real@3f000000
CONST	SEGMENT
__real@3f000000 DD 03f000000r			; 0.5
; Function compile flags: /Ogtpy
CONST	ENDS
;	COMDAT ?Timer_Expired@SEye_C4_Update@@EAEXPAEH@Z
_TEXT	SEGMENT
tv591 = -528						; size = 2
tv560 = -528						; size = 4
$T157205 = -528						; size = 4
$T157164 = -528						; size = 4
$T157148 = -528						; size = 4
_nHP$112021 = -528					; size = 4
tv588 = -524						; size = 4
tv586 = -524						; size = 8
_UpdateMine$112024 = -516				; size = 514
_UpdateMine$112016 = -516				; size = 514
_o$ = 8							; size = 4
_number$ = 12						; size = 4
?Timer_Expired@SEye_C4_Update@@EAEXPAEH@Z PROC		; SEye_C4_Update::Timer_Expired, COMDAT
; _this$ = ecx

; 666  : 		if(number == 1)

	mov	eax, DWORD PTR _number$[esp-4]
	sub	esp, 528				; 00000210H
	push	esi
	push	edi
	mov	edi, ecx
	cmp	eax, 1
	jne	$LN6@Timer_Expi@2

; 667  : 		{
; 668  : 			if(Get_C4_Attached(o))

	mov	eax, DWORD PTR ?Commands@@3PAUScriptCommands@@A ; Commands
	mov	esi, DWORD PTR _o$[esp+532]
	mov	ecx, DWORD PTR [eax+108]
	push	esi
	call	ecx
	add	esp, 4
	test	eax, eax
	je	$LN4@Timer_Expi@2
	test	esi, esi
	je	$LN4@Timer_Expi@2
	mov	edx, DWORD PTR [esi]
	mov	eax, DWORD PTR [edx+36]
	mov	ecx, esi
	call	eax
	test	eax, eax
	je	$LN4@Timer_Expi@2
	mov	edx, DWORD PTR [eax]
	mov	ecx, eax
	mov	eax, DWORD PTR [edx+140]
	call	eax
	test	eax, eax
	je	$LN4@Timer_Expi@2
	mov	eax, DWORD PTR [eax+2012]
	test	eax, eax
	je	$LN4@Timer_Expi@2
	cmp	DWORD PTR [eax+4], 0
	je	$LN4@Timer_Expi@2

; 669  : 			{
; 670  : 				if(t_Client)

	cmp	DWORD PTR ?t_Client@@3PAVTCPSocket@@A, 0 ; t_Client
	je	$LN4@Timer_Expi@2

; 671  : 				{
; 672  : 					SEye::SEyePacket UpdateMine;

	push	514					; 00000202H
	lea	ecx, DWORD PTR _UpdateMine$112016[esp+540]
	push	0
	push	ecx
	call	_memset

; 673  : 					UpdateMine.SetType(11);

	mov	BYTE PTR _UpdateMine$112016[esp+549], 11 ; 0000000bH

; 674  : 					UpdateMine.Pack<unsigned int> (Commands->Get_ID(Get_C4_Attached(o)));

	call	?Get_C4_Attached@@YAPAEPAE@Z		; Get_C4_Attached
	mov	edx, DWORD PTR ?Commands@@3PAUScriptCommands@@A ; Commands
	push	eax
	mov	eax, DWORD PTR [edx+108]
	call	eax
	movzx	ecx, BYTE PTR _UpdateMine$112016[esp+552]
	mov	DWORD PTR $T157148[esp+552], eax
	movzx	edx, BYTE PTR $T157148[esp+555]
	mov	BYTE PTR _UpdateMine$112016[esp+ecx+554], dl
	mov	cl, BYTE PTR _UpdateMine$112016[esp+552]
	movzx	edx, BYTE PTR $T157148[esp+554]
	inc	cl
	mov	BYTE PTR _UpdateMine$112016[esp+552], cl
	movzx	ecx, cl
	mov	BYTE PTR _UpdateMine$112016[esp+ecx+554], dl
	mov	cl, BYTE PTR _UpdateMine$112016[esp+552]
	inc	cl
	mov	BYTE PTR _UpdateMine$112016[esp+552], cl
	movzx	ecx, cl
	mov	BYTE PTR _UpdateMine$112016[esp+ecx+554], ah
	mov	cl, BYTE PTR _UpdateMine$112016[esp+552]
	inc	cl
	movzx	edx, cl
	mov	BYTE PTR _UpdateMine$112016[esp+552], cl
	mov	BYTE PTR _UpdateMine$112016[esp+edx+554], al

; 675  : 					UpdateMine.Pack<unsigned int> (Commands->Get_ID(o));

	mov	eax, DWORD PTR ?Commands@@3PAUScriptCommands@@A ; Commands
	inc	BYTE PTR _UpdateMine$112016[esp+552]
	mov	ecx, DWORD PTR [eax+108]
	push	esi
	call	ecx
	movzx	edx, BYTE PTR _UpdateMine$112016[esp+556]
	mov	DWORD PTR $T157164[esp+556], eax
	movzx	ecx, BYTE PTR $T157164[esp+559]
	mov	BYTE PTR _UpdateMine$112016[esp+edx+558], cl
	mov	cl, BYTE PTR _UpdateMine$112016[esp+556]
	inc	cl
	mov	BYTE PTR _UpdateMine$112016[esp+556], cl
	movzx	edx, cl
	movzx	ecx, BYTE PTR $T157164[esp+558]
	mov	BYTE PTR _UpdateMine$112016[esp+edx+558], cl
	mov	cl, BYTE PTR _UpdateMine$112016[esp+556]
	inc	cl
	movzx	edx, cl
	mov	BYTE PTR _UpdateMine$112016[esp+556], cl
	mov	BYTE PTR _UpdateMine$112016[esp+edx+558], ah
	mov	cl, BYTE PTR _UpdateMine$112016[esp+556]
	inc	cl
	mov	BYTE PTR _UpdateMine$112016[esp+556], cl
	movzx	ecx, cl
	mov	BYTE PTR _UpdateMine$112016[esp+ecx+558], al
	mov	al, BYTE PTR _UpdateMine$112016[esp+556]

; 676  : 					t_Client->SendData((const char *)&UpdateMine, UpdateMine.GetSize());

	mov	ecx, DWORD PTR ?t_Client@@3PAVTCPSocket@@A ; t_Client
	inc	al
	movzx	edx, al
	add	esp, 20					; 00000014H
	add	edx, 8
	mov	BYTE PTR _UpdateMine$112016[esp+536], al
	push	edx
	lea	eax, DWORD PTR _UpdateMine$112016[esp+540]
	push	eax
	call	?SendData@TCPSocket@@QAE_NPBDH@Z	; TCPSocket::SendData
$LN4@Timer_Expi@2:

; 677  : 				}
; 678  : 			}
; 679  : 			Commands->Start_Timer(o, this, 0.5, 1);

	fld	DWORD PTR __real@3f000000
	push	1
	push	ecx
	mov	ecx, DWORD PTR ?Commands@@3PAUScriptCommands@@A ; Commands
	fstp	DWORD PTR [esp]
	mov	edx, DWORD PTR [ecx+128]
	push	edi
	push	esi
	call	edx
	add	esp, 16					; 00000010H
	pop	edi
	pop	esi

; 699  : 		}
; 700  : 	}

	add	esp, 528				; 00000210H
	ret	8
$LN6@Timer_Expi@2:

; 680  : 		}
; 681  : 		if(number == 2)

	cmp	eax, 2
	jne	$LN3@Timer_Expi@2

; 682  : 		{
; 683  : 			unsigned int nHP = int(Commands->Get_Health(o)+Commands->Get_Shield_Strength(o));

	mov	eax, DWORD PTR ?Commands@@3PAUScriptCommands@@A ; Commands
	mov	esi, DWORD PTR _o$[esp+532]
	mov	ecx, DWORD PTR [eax+232]
	push	ebx
	push	esi
	call	ecx
	fstp	DWORD PTR tv560[esp+544]
	mov	edx, DWORD PTR ?Commands@@3PAUScriptCommands@@A ; Commands
	mov	eax, DWORD PTR [edx+220]
	push	esi
	call	eax
	fadd	DWORD PTR tv560[esp+548]
	fnstcw	WORD PTR tv591[esp+548]
	movzx	eax, WORD PTR tv591[esp+548]
	or	eax, 3072				; 00000c00H
	mov	DWORD PTR tv588[esp+548], eax
	add	esp, 8
	fldcw	WORD PTR tv588[esp+540]
	fistp	QWORD PTR tv586[esp+540]
	mov	ebx, DWORD PTR tv586[esp+540]
	fldcw	WORD PTR tv591[esp+540]
	mov	DWORD PTR _nHP$112021[esp+540], ebx

; 684  : 			if(HP != nHP)

	cmp	DWORD PTR [edi+28], ebx
	je	$LN2@Timer_Expi@2

; 685  : 			{
; 686  : 				if(t_Client)

	cmp	DWORD PTR ?t_Client@@3PAVTCPSocket@@A, 0 ; t_Client
	je	$LN1@Timer_Expi@2

; 687  : 				{
; 688  : 					SEye::SEyePacket UpdateMine;

	push	514					; 00000202H
	lea	ecx, DWORD PTR _UpdateMine$112024[esp+544]
	push	0
	push	ecx
	call	_memset

; 689  : 					UpdateMine.SetType(12);
; 690  : 					
; 691  : 					UpdateMine.Pack<unsigned int>(nHP);

	movzx	edx, BYTE PTR _UpdateMine$112024[esp+552]
	movzx	eax, BYTE PTR _nHP$112021[esp+555]
	mov	BYTE PTR _UpdateMine$112024[esp+553], 12 ; 0000000cH
	mov	BYTE PTR _UpdateMine$112024[esp+edx+554], al
	mov	al, BYTE PTR _UpdateMine$112024[esp+552]
	movzx	edx, BYTE PTR _nHP$112021[esp+554]
	inc	al
	movzx	ecx, al
	mov	BYTE PTR _UpdateMine$112024[esp+552], al
	mov	BYTE PTR _UpdateMine$112024[esp+ecx+554], dl
	mov	al, BYTE PTR _UpdateMine$112024[esp+552]

; 692  : 					UpdateMine.Pack<unsigned int>(Commands->Get_ID(o));

	mov	edx, DWORD PTR ?Commands@@3PAUScriptCommands@@A ; Commands
	inc	al
	mov	BYTE PTR _UpdateMine$112024[esp+552], al
	movzx	eax, al
	mov	BYTE PTR _UpdateMine$112024[esp+eax+554], bh
	mov	al, BYTE PTR _UpdateMine$112024[esp+552]
	inc	al
	movzx	ecx, al
	mov	BYTE PTR _UpdateMine$112024[esp+552], al
	mov	eax, DWORD PTR [edx+108]
	mov	BYTE PTR _UpdateMine$112024[esp+ecx+554], bl
	inc	BYTE PTR _UpdateMine$112024[esp+552]
	push	esi
	call	eax
	movzx	ecx, BYTE PTR _UpdateMine$112024[esp+556]
	mov	DWORD PTR $T157205[esp+556], eax
	movzx	edx, BYTE PTR $T157205[esp+559]
	mov	BYTE PTR _UpdateMine$112024[esp+ecx+558], dl
	mov	cl, BYTE PTR _UpdateMine$112024[esp+556]
	movzx	edx, BYTE PTR $T157205[esp+558]
	inc	cl
	mov	BYTE PTR _UpdateMine$112024[esp+556], cl
	movzx	ecx, cl
	mov	BYTE PTR _UpdateMine$112024[esp+ecx+558], dl
	mov	cl, BYTE PTR _UpdateMine$112024[esp+556]
	inc	cl
	mov	BYTE PTR _UpdateMine$112024[esp+556], cl
	movzx	ecx, cl
	mov	BYTE PTR _UpdateMine$112024[esp+ecx+558], ah
	mov	cl, BYTE PTR _UpdateMine$112024[esp+556]
	inc	cl
	movzx	edx, cl
	mov	BYTE PTR _UpdateMine$112024[esp+556], cl
	mov	BYTE PTR _UpdateMine$112024[esp+edx+558], al
	mov	al, BYTE PTR _UpdateMine$112024[esp+556]
	inc	al
	mov	BYTE PTR _UpdateMine$112024[esp+556], al

; 693  : 					t_Client->SendData((const char *)&UpdateMine, UpdateMine.GetSize());

	movzx	eax, al
	add	esp, 16					; 00000010H
	add	eax, 8
	push	eax
	lea	ecx, DWORD PTR _UpdateMine$112024[esp+544]
	push	ecx
	mov	ecx, DWORD PTR ?t_Client@@3PAVTCPSocket@@A ; t_Client
	call	?SendData@TCPSocket@@QAE_NPBDH@Z	; TCPSocket::SendData
$LN1@Timer_Expi@2:

; 694  : 				}
; 695  : 
; 696  : 				HP = nHP;

	mov	DWORD PTR [edi+28], ebx
$LN2@Timer_Expi@2:

; 697  : 			}
; 698  : 			Commands->Start_Timer(o, this, 1.0, 2);

	fld1
	mov	edx, DWORD PTR ?Commands@@3PAUScriptCommands@@A ; Commands
	mov	eax, DWORD PTR [edx+128]
	push	2
	push	ecx
	fstp	DWORD PTR [esp]
	push	edi
	push	esi
	call	eax
	add	esp, 16					; 00000010H
	pop	ebx
$LN3@Timer_Expi@2:
	pop	edi
	pop	esi

; 699  : 		}
; 700  : 	}

	add	esp, 528				; 00000210H
	ret	8
?Timer_Expired@SEye_C4_Update@@EAEXPAEH@Z ENDP		; SEye_C4_Update::Timer_Expired
; Function compile flags: /Ogtpy
_TEXT	ENDS
;	COMDAT ?Created@SEye_C4_Update@@EAEXPAE@Z
_TEXT	SEGMENT
tv718 = -544						; size = 2
tv663 = -544						; size = 4
$T157358 = -544						; size = 4
$T157318 = -544						; size = 4
$T157302 = -544						; size = 4
$T157286 = -544						; size = 4
tv715 = -540						; size = 4
tv713 = -540						; size = 8
$T157238 = -540						; size = 12
_pos$111996 = -528					; size = 12
_NewMine$111998 = -516					; size = 514
_o$ = 8							; size = 4
?Created@SEye_C4_Update@@EAEXPAE@Z PROC			; SEye_C4_Update::Created, COMDAT
; _this$ = ecx

; 640  : 	{

	sub	esp, 544				; 00000220H

; 641  : 		Explode = 0;
; 642  : 		if(t_Client)

	cmp	DWORD PTR ?t_Client@@3PAVTCPSocket@@A, 0 ; t_Client
	push	ebp
	mov	ebp, ecx
	push	esi
	mov	esi, DWORD PTR _o$[esp+548]
	mov	BYTE PTR [ebp+32], 0
	je	$LN63@Created@2

; 643  : 		{
; 644  : 			Vector3 pos = Commands->Get_Position(o);

	mov	ecx, DWORD PTR ?Commands@@3PAUScriptCommands@@A ; Commands
	mov	edx, DWORD PTR [ecx+64]
	lea	eax, DWORD PTR $T157238[esp+552]
	push	esi
	push	eax
	call	edx
	mov	ecx, DWORD PTR [eax]
	mov	edx, DWORD PTR [eax+4]
	mov	eax, DWORD PTR [eax+8]
	mov	DWORD PTR _pos$111996[esp+560], ecx

; 645  : 			HP = int(Commands->Get_Max_Health(o)+Commands->Get_Max_Shield_Strength(o));

	mov	ecx, DWORD PTR ?Commands@@3PAUScriptCommands@@A ; Commands
	mov	DWORD PTR _pos$111996[esp+564], edx
	mov	edx, DWORD PTR [ecx+236]
	push	esi
	mov	DWORD PTR _pos$111996[esp+572], eax
	call	edx
	fstp	DWORD PTR tv663[esp+564]
	mov	eax, DWORD PTR ?Commands@@3PAUScriptCommands@@A ; Commands
	mov	ecx, DWORD PTR [eax+224]
	push	esi
	call	ecx
	fadd	DWORD PTR tv663[esp+568]
	fnstcw	WORD PTR tv718[esp+568]
	movzx	eax, WORD PTR tv718[esp+568]
	or	eax, 3072				; 00000c00H
	mov	DWORD PTR tv715[esp+568], eax

; 646  : 			SEye::SEyePacket NewMine;

	push	514					; 00000202H
	fldcw	WORD PTR tv715[esp+572]
	lea	eax, DWORD PTR _NewMine$111998[esp+572]
	push	0
	push	eax
	fistp	QWORD PTR tv713[esp+580]
	mov	edx, DWORD PTR tv713[esp+580]
	mov	DWORD PTR [ebp+28], edx
	fldcw	WORD PTR tv718[esp+580]
	call	_memset

; 647  : 			NewMine.SetType(10);
; 648  : 
; 649  : 			NewMine.Pack<unsigned char> ((unsigned char)Get_C4_Mode(o));

	mov	ecx, DWORD PTR ?Commands@@3PAUScriptCommands@@A ; Commands
	mov	BYTE PTR _NewMine$111998[esp+581], 10	; 0000000aH
	mov	edx, DWORD PTR [ecx+108]
	push	esi
	call	edx
	add	esp, 32					; 00000020H
	test	eax, eax
	je	SHORT $LN10@Created@2
	test	esi, esi
	je	SHORT $LN10@Created@2
	mov	eax, DWORD PTR [esi]
	mov	edx, DWORD PTR [eax+36]
	mov	ecx, esi
	call	edx
	test	eax, eax
	je	SHORT $LN10@Created@2
	mov	edx, DWORD PTR [eax]
	mov	ecx, eax
	mov	eax, DWORD PTR [edx+140]
	call	eax
	test	eax, eax
	je	SHORT $LN10@Created@2
	mov	ecx, DWORD PTR [eax+1992]
	add	ecx, 140				; 0000008cH
	call	?Get@IntDataSafeClass@@QAEHXZ		; IntDataSafeClass::Get
	jmp	SHORT $LN12@Created@2
$LN10@Created@2:
	xor	eax, eax
$LN12@Created@2:
	movzx	ecx, BYTE PTR _NewMine$111998[esp+552]

; 650  : 			NewMine.Pack<float>(pos.Y);

	fld	DWORD PTR _pos$111996[esp+556]
	mov	BYTE PTR _NewMine$111998[esp+ecx+554], al
	fstp	DWORD PTR $T157286[esp+552]
	mov	al, BYTE PTR _NewMine$111998[esp+552]

; 651  : 			NewMine.Pack<float>(pos.X);

	fld	DWORD PTR _pos$111996[esp+552]
	inc	al
	mov	BYTE PTR _NewMine$111998[esp+552], al
	movzx	edx, al
	movzx	eax, BYTE PTR $T157286[esp+555]
	mov	BYTE PTR _NewMine$111998[esp+edx+554], al
	mov	al, BYTE PTR _NewMine$111998[esp+552]
	movzx	edx, BYTE PTR $T157286[esp+554]
	inc	al
	mov	BYTE PTR _NewMine$111998[esp+552], al
	movzx	ecx, al
	mov	BYTE PTR _NewMine$111998[esp+ecx+554], dl
	mov	al, BYTE PTR _NewMine$111998[esp+552]
	movzx	ecx, BYTE PTR $T157286[esp+553]
	inc	al
	mov	BYTE PTR _NewMine$111998[esp+552], al
	movzx	eax, al
	mov	BYTE PTR _NewMine$111998[esp+eax+554], cl
	mov	al, BYTE PTR _NewMine$111998[esp+552]
	inc	al
	mov	BYTE PTR _NewMine$111998[esp+552], al
	movzx	edx, al
	movzx	eax, BYTE PTR $T157286[esp+552]
	fstp	DWORD PTR $T157302[esp+552]
	mov	BYTE PTR _NewMine$111998[esp+edx+554], al
	mov	al, BYTE PTR _NewMine$111998[esp+552]
	movzx	edx, BYTE PTR $T157302[esp+555]
	inc	al
	mov	BYTE PTR _NewMine$111998[esp+552], al
	movzx	ecx, al
	mov	BYTE PTR _NewMine$111998[esp+ecx+554], dl
	mov	al, BYTE PTR _NewMine$111998[esp+552]
	movzx	ecx, BYTE PTR $T157302[esp+554]
	inc	al
	mov	BYTE PTR _NewMine$111998[esp+552], al
	movzx	eax, al
	mov	BYTE PTR _NewMine$111998[esp+eax+554], cl
	mov	al, BYTE PTR _NewMine$111998[esp+552]
	inc	al
	mov	BYTE PTR _NewMine$111998[esp+552], al
	movzx	edx, al
	movzx	eax, BYTE PTR $T157302[esp+553]
	mov	BYTE PTR _NewMine$111998[esp+edx+554], al
	mov	al, BYTE PTR _NewMine$111998[esp+552]
	movzx	edx, BYTE PTR $T157302[esp+552]
	inc	al
	mov	BYTE PTR _NewMine$111998[esp+552], al
	movzx	ecx, al

; 652  : 			NewMine.Pack<unsigned int>(HP);

	mov	eax, DWORD PTR [ebp+28]
	mov	BYTE PTR _NewMine$111998[esp+ecx+554], dl
	mov	cl, BYTE PTR _NewMine$111998[esp+552]
	inc	cl
	mov	BYTE PTR _NewMine$111998[esp+552], cl
	movzx	ecx, cl
	mov	DWORD PTR $T157318[esp+552], eax
	movzx	edx, BYTE PTR $T157318[esp+555]
	mov	BYTE PTR _NewMine$111998[esp+ecx+554], dl
	mov	cl, BYTE PTR _NewMine$111998[esp+552]
	movzx	edx, BYTE PTR $T157318[esp+554]
	inc	cl
	mov	BYTE PTR _NewMine$111998[esp+552], cl
	movzx	ecx, cl
	mov	BYTE PTR _NewMine$111998[esp+ecx+554], dl
	mov	cl, BYTE PTR _NewMine$111998[esp+552]
	inc	cl
	mov	BYTE PTR _NewMine$111998[esp+552], cl
	movzx	ecx, cl
	mov	BYTE PTR _NewMine$111998[esp+ecx+554], ah
	mov	cl, BYTE PTR _NewMine$111998[esp+552]
	inc	cl
	movzx	edx, cl
	mov	BYTE PTR _NewMine$111998[esp+552], cl
	mov	BYTE PTR _NewMine$111998[esp+edx+554], al
	inc	BYTE PTR _NewMine$111998[esp+552]

; 653  : 			
; 654  : 			NewMine.Pack<char>((char)Get_Object_Type(o));

	mov	eax, DWORD PTR ?Commands@@3PAUScriptCommands@@A ; Commands
	push	esi
	mov	ecx, DWORD PTR [eax+108]
	call	ecx
	add	esp, 4
	test	eax, eax
	je	SHORT $LN43@Created@2
	test	esi, esi
	je	SHORT $LN43@Created@2
	mov	edx, DWORD PTR [esi]
	mov	eax, DWORD PTR [edx+60]
	mov	ecx, esi
	call	eax
	test	eax, eax
	je	SHORT $LN43@Created@2
	mov	eax, DWORD PTR [eax+1892]
	jmp	SHORT $LN45@Created@2
$LN43@Created@2:
	xor	eax, eax
$LN45@Created@2:
	movzx	ecx, BYTE PTR _NewMine$111998[esp+552]

; 655  : 			NewMine.Pack<unsigned int>(Commands->Get_ID(o));

	mov	edx, DWORD PTR ?Commands@@3PAUScriptCommands@@A ; Commands
	push	ebx
	mov	BYTE PTR _NewMine$111998[esp+ecx+558], al
	inc	BYTE PTR _NewMine$111998[esp+556]
	mov	eax, DWORD PTR [edx+108]
	push	edi
	push	esi
	call	eax
	movzx	ecx, BYTE PTR _NewMine$111998[esp+564]
	mov	DWORD PTR $T157358[esp+564], eax
	movzx	edx, BYTE PTR $T157358[esp+567]
	mov	BYTE PTR _NewMine$111998[esp+ecx+566], dl
	mov	cl, BYTE PTR _NewMine$111998[esp+564]
	movzx	edx, BYTE PTR $T157358[esp+566]
	inc	cl
	mov	BYTE PTR _NewMine$111998[esp+564], cl
	movzx	ecx, cl
	mov	BYTE PTR _NewMine$111998[esp+ecx+566], dl
	mov	cl, BYTE PTR _NewMine$111998[esp+564]
	inc	cl
	mov	BYTE PTR _NewMine$111998[esp+564], cl
	movzx	ecx, cl
	mov	BYTE PTR _NewMine$111998[esp+ecx+566], ah
	mov	cl, BYTE PTR _NewMine$111998[esp+564]
	inc	cl
	movzx	edx, cl
	mov	BYTE PTR _NewMine$111998[esp+564], cl
	mov	BYTE PTR _NewMine$111998[esp+edx+566], al
	mov	al, BYTE PTR _NewMine$111998[esp+564]
	inc	al

; 656  : 
; 657  : 			t_Client->SendData((const char *)&NewMine, NewMine.GetSize());

	movzx	edi, al
	mov	BYTE PTR _NewMine$111998[esp+564], al
	mov	eax, DWORD PTR ?t_Client@@3PAVTCPSocket@@A ; t_Client
	add	esp, 4
	add	edi, 8
	mov	ebx, eax
	call	?Is_Connected@TCPSocket@@QAE_NXZ	; TCPSocket::Is_Connected
	test	al, al
	je	SHORT $LN97@Created@2
	mov	ecx, DWORD PTR [ebx]
	push	0
	push	edi
	lea	eax, DWORD PTR _NewMine$111998[esp+568]
	push	eax
	push	ecx
	call	DWORD PTR __imp__send@16
	cmp	eax, edi
	je	SHORT $LN97@Created@2
	cmp	eax, -1
	je	SHORT $LN97@Created@2
	sub	edi, eax
	push	edi
	lea	edx, DWORD PTR _NewMine$111998[esp+eax+564]
	push	edx
	mov	ecx, ebx
	call	?SendData@TCPSocket@@QAE_NPBDH@Z	; TCPSocket::SendData
$LN97@Created@2:
	pop	edi
	pop	ebx
$LN63@Created@2:

; 658  : 
; 659  : 		}
; 660  : 		Commands->Start_Timer(o, this, 0.5, 1);

	fld	DWORD PTR __real@3f000000
	mov	eax, DWORD PTR ?Commands@@3PAUScriptCommands@@A ; Commands
	push	1
	push	ecx
	mov	ecx, DWORD PTR [eax+128]
	fstp	DWORD PTR [esp]
	push	ebp
	push	esi
	call	ecx

; 661  : 		Commands->Start_Timer(o, this, 1.0, 2);

	fld1
	mov	edx, DWORD PTR ?Commands@@3PAUScriptCommands@@A ; Commands
	mov	eax, DWORD PTR [edx+128]
	add	esp, 16					; 00000010H
	push	2
	push	ecx
	fstp	DWORD PTR [esp]
	push	ebp
	push	esi
	call	eax
	add	esp, 16					; 00000010H
	pop	esi
	pop	ebp

; 662  : 	}

	add	esp, 544				; 00000220H
	ret	4
?Created@SEye_C4_Update@@EAEXPAE@Z ENDP			; SEye_C4_Update::Created
; Function compile flags: /Ogtpy
_TEXT	ENDS
;	COMDAT ?Custom@SEye_Vehicle_Update@@EAEXPAEHH0@Z
_TEXT	SEGMENT
$T157483 = -520						; size = 4
$T157442 = -520						; size = 4
$T157467 = -520						; size = 4
$T157426 = -520						; size = 4
_VehicleExit$111963 = -516				; size = 514
_VehicleEntered$111957 = -516				; size = 514
_o$ = 8							; size = 4
_message$ = 12						; size = 4
_param$ = 16						; size = 4
_sender$ = 20						; size = 4
?Custom@SEye_Vehicle_Update@@EAEXPAEHH0@Z PROC		; SEye_Vehicle_Update::Custom, COMDAT
; _this$ = ecx

; 616  : 		if(message == CUSTOM_EVENT_VEHICLE_ENTER && t_Client)

	mov	eax, DWORD PTR _message$[esp-4]
	sub	esp, 520				; 00000208H
	cmp	eax, 1000000028				; 3b9aca1cH
	jne	$LN3@Custom
	cmp	DWORD PTR ?t_Client@@3PAVTCPSocket@@A, 0 ; t_Client
	je	$LN1@Custom

; 617  : 		{
; 618  : 			SEye::SEyePacket VehicleEntered;

	push	514					; 00000202H
	lea	eax, DWORD PTR _VehicleEntered$111957[esp+524]
	push	0
	push	eax
	call	_memset

; 619  : 			VehicleEntered.SetType(14);
; 620  : 			VehicleEntered.Pack<unsigned int> (Commands->Get_ID(sender));

	mov	ecx, DWORD PTR _sender$[esp+528]
	mov	edx, DWORD PTR ?Commands@@3PAUScriptCommands@@A ; Commands
	mov	eax, DWORD PTR [edx+108]
	push	ecx
	mov	BYTE PTR _VehicleEntered$111957[esp+537], 14 ; 0000000eH
	call	eax
	movzx	ecx, BYTE PTR _VehicleEntered$111957[esp+536]
	mov	DWORD PTR $T157426[esp+536], eax
	movzx	edx, BYTE PTR $T157426[esp+539]
	mov	BYTE PTR _VehicleEntered$111957[esp+ecx+538], dl
	mov	cl, BYTE PTR _VehicleEntered$111957[esp+536]
	movzx	edx, BYTE PTR $T157426[esp+538]
	inc	cl
	mov	BYTE PTR _VehicleEntered$111957[esp+536], cl
	movzx	ecx, cl
	mov	BYTE PTR _VehicleEntered$111957[esp+ecx+538], dl
	mov	cl, BYTE PTR _VehicleEntered$111957[esp+536]
	inc	cl
	mov	BYTE PTR _VehicleEntered$111957[esp+536], cl
	movzx	ecx, cl
	mov	BYTE PTR _VehicleEntered$111957[esp+ecx+538], ah
	mov	cl, BYTE PTR _VehicleEntered$111957[esp+536]
	inc	cl
	movzx	edx, cl
	mov	BYTE PTR _VehicleEntered$111957[esp+536], cl

; 621  : 			VehicleEntered.Pack<unsigned int> (Commands->Get_ID(o));

	mov	ecx, DWORD PTR ?Commands@@3PAUScriptCommands@@A ; Commands
	mov	BYTE PTR _VehicleEntered$111957[esp+edx+538], al
	mov	eax, DWORD PTR _o$[esp+532]
	inc	BYTE PTR _VehicleEntered$111957[esp+536]
	mov	edx, DWORD PTR [ecx+108]
	push	eax
	call	edx
	movzx	ecx, BYTE PTR _VehicleEntered$111957[esp+540]
	mov	DWORD PTR $T157442[esp+540], eax
	movzx	edx, BYTE PTR $T157442[esp+543]
	mov	BYTE PTR _VehicleEntered$111957[esp+ecx+542], dl
	mov	cl, BYTE PTR _VehicleEntered$111957[esp+540]
	movzx	edx, BYTE PTR $T157442[esp+542]
	inc	cl
	mov	BYTE PTR _VehicleEntered$111957[esp+540], cl
	movzx	ecx, cl
	mov	BYTE PTR _VehicleEntered$111957[esp+ecx+542], dl
	mov	cl, BYTE PTR _VehicleEntered$111957[esp+540]
	inc	cl
	mov	BYTE PTR _VehicleEntered$111957[esp+540], cl
	movzx	ecx, cl
	mov	BYTE PTR _VehicleEntered$111957[esp+ecx+542], ah
	mov	cl, BYTE PTR _VehicleEntered$111957[esp+540]
	add	esp, 20					; 00000014H
	inc	cl
	movzx	edx, cl
	mov	BYTE PTR _VehicleEntered$111957[esp+520], cl
	mov	BYTE PTR _VehicleEntered$111957[esp+edx+522], al

; 622  : 			t_Client->SendData((const char *)&VehicleEntered, VehicleEntered.GetSize());

	jmp	$LN70@Custom
$LN3@Custom:

; 623  : 		}
; 624  : 		else if(message == CUSTOM_EVENT_VEHICLE_EXIT && t_Client)

	cmp	eax, 1000000029				; 3b9aca1dH
	jne	$LN1@Custom
	cmp	DWORD PTR ?t_Client@@3PAVTCPSocket@@A, 0 ; t_Client
	je	$LN1@Custom

; 625  : 		{
; 626  : 			SEye::SEyePacket VehicleExit;

	push	514					; 00000202H
	lea	edx, DWORD PTR _VehicleExit$111963[esp+524]
	push	0
	push	edx
	call	_memset

; 627  : 			VehicleExit.SetType(15);
; 628  : 			VehicleExit.Pack<unsigned int> (Commands->Get_ID(sender));

	mov	eax, DWORD PTR _sender$[esp+528]
	mov	ecx, DWORD PTR ?Commands@@3PAUScriptCommands@@A ; Commands
	mov	edx, DWORD PTR [ecx+108]
	push	eax
	mov	BYTE PTR _VehicleExit$111963[esp+537], 15 ; 0000000fH
	call	edx
	movzx	ecx, BYTE PTR _VehicleExit$111963[esp+536]
	mov	DWORD PTR $T157467[esp+536], eax
	movzx	edx, BYTE PTR $T157467[esp+539]
	mov	BYTE PTR _VehicleExit$111963[esp+ecx+538], dl
	mov	cl, BYTE PTR _VehicleExit$111963[esp+536]
	movzx	edx, BYTE PTR $T157467[esp+538]
	inc	cl
	mov	BYTE PTR _VehicleExit$111963[esp+536], cl
	movzx	ecx, cl
	mov	BYTE PTR _VehicleExit$111963[esp+ecx+538], dl
	mov	cl, BYTE PTR _VehicleExit$111963[esp+536]
	inc	cl
	mov	BYTE PTR _VehicleExit$111963[esp+536], cl
	movzx	ecx, cl
	mov	BYTE PTR _VehicleExit$111963[esp+ecx+538], ah
	mov	cl, BYTE PTR _VehicleExit$111963[esp+536]
	inc	cl
	movzx	edx, cl
	mov	BYTE PTR _VehicleExit$111963[esp+536], cl

; 629  : 			VehicleExit.Pack<unsigned int> (Commands->Get_ID(o));

	mov	ecx, DWORD PTR ?Commands@@3PAUScriptCommands@@A ; Commands
	mov	BYTE PTR _VehicleExit$111963[esp+edx+538], al
	mov	eax, DWORD PTR _o$[esp+532]
	inc	BYTE PTR _VehicleExit$111963[esp+536]
	mov	edx, DWORD PTR [ecx+108]
	push	eax
	call	edx
	movzx	ecx, BYTE PTR _VehicleExit$111963[esp+540]
	mov	DWORD PTR $T157483[esp+540], eax
	movzx	edx, BYTE PTR $T157483[esp+543]
	mov	BYTE PTR _VehicleExit$111963[esp+ecx+542], dl
	mov	cl, BYTE PTR _VehicleExit$111963[esp+540]
	movzx	edx, BYTE PTR $T157483[esp+542]
	inc	cl
	mov	BYTE PTR _VehicleExit$111963[esp+540], cl
	movzx	ecx, cl
	mov	BYTE PTR _VehicleExit$111963[esp+ecx+542], dl
	mov	cl, BYTE PTR _VehicleExit$111963[esp+540]
	inc	cl
	mov	BYTE PTR _VehicleExit$111963[esp+540], cl
	movzx	ecx, cl
	mov	BYTE PTR _VehicleExit$111963[esp+ecx+542], ah
	mov	cl, BYTE PTR _VehicleExit$111963[esp+540]
	add	esp, 20					; 00000014H
	inc	cl
	movzx	edx, cl
	mov	BYTE PTR _VehicleExit$111963[esp+520], cl
	mov	BYTE PTR _VehicleExit$111963[esp+edx+522], al
$LN70@Custom:
	mov	al, BYTE PTR _VehicleExit$111963[esp+520]
	inc	al
	mov	BYTE PTR _VehicleExit$111963[esp+520], al

; 630  : 			t_Client->SendData((const char *)&VehicleExit, VehicleExit.GetSize());

	movzx	eax, al
	add	eax, 8
	push	eax
	lea	ecx, DWORD PTR _VehicleExit$111963[esp+524]
	push	ecx
	mov	ecx, DWORD PTR ?t_Client@@3PAVTCPSocket@@A ; t_Client
	call	?SendData@TCPSocket@@QAE_NPBDH@Z	; TCPSocket::SendData
$LN1@Custom:

; 631  : 		}
; 632  : 	}

	add	esp, 520				; 00000208H
	ret	16					; 00000010H
?Custom@SEye_Vehicle_Update@@EAEXPAEHH0@Z ENDP		; SEye_Vehicle_Update::Custom
; Function compile flags: /Ogtpy
_TEXT	ENDS
;	COMDAT ?Damaged@SEye_Vehicle_Update@@EAEXPAE0M@Z
_TEXT	SEGMENT
_VehicleDamaged$111949 = -516				; size = 514
_o$ = 8							; size = 4
_Damager$ = 12						; size = 4
_damage$ = 16						; size = 4
?Damaged@SEye_Vehicle_Update@@EAEXPAE0M@Z PROC		; SEye_Vehicle_Update::Damaged, COMDAT
; _this$ = ecx

; 582  : 	{

	sub	esp, 516				; 00000204H
	push	edi

; 583  : 		if(!Damager)

	mov	edi, DWORD PTR _Damager$[esp+516]
	test	edi, edi
	je	$LN1@Damaged@2

; 584  : 		{
; 585  : 			return;
; 586  : 		}
; 587  : 		if(damage == 0)

	fldz
	fcomp	DWORD PTR _damage$[esp+516]
	fnstsw	ax
	test	ah, 68					; 00000044H
	jnp	$LN1@Damaged@2
	push	esi

; 588  : 		{
; 589  : 			return;
; 590  : 		}
; 591  : 
; 592  : 		if(Damager == o)

	mov	esi, DWORD PTR _o$[esp+520]
	cmp	edi, esi
	je	$LN25@Damaged@2

; 593  : 		{
; 594  : 			return;
; 595  : 		}
; 596  : 
; 597  : 		if(!CanSendDamage)

	cmp	BYTE PTR [ecx+28], 0
	je	$LN25@Damaged@2

; 598  : 		{
; 599  : 			return;
; 600  : 		}
; 601  : 		CanSendDamage = 0;
; 602  : 		Commands->Start_Timer(o, this, 1.0, 2);

	fld1
	mov	eax, DWORD PTR ?Commands@@3PAUScriptCommands@@A ; Commands
	push	2
	push	ecx
	fstp	DWORD PTR [esp]
	push	ecx
	mov	BYTE PTR [ecx+28], 0
	mov	ecx, DWORD PTR [eax+128]
	push	esi
	call	ecx
	add	esp, 16					; 00000010H

; 603  : 
; 604  : 		if(t_Client)

	cmp	DWORD PTR ?t_Client@@3PAVTCPSocket@@A, 0 ; t_Client
	je	$LN25@Damaged@2

; 605  : 		{
; 606  : 			SEye::SEyePacket VehicleDamaged;

	push	514					; 00000202H
	lea	edx, DWORD PTR _VehicleDamaged$111949[esp+528]
	push	0
	push	edx
	call	_memset

; 607  : 			VehicleDamaged.SetType(9);
; 608  : 			VehicleDamaged.Pack<unsigned int> (Commands->Get_ID(o));

	mov	eax, DWORD PTR ?Commands@@3PAUScriptCommands@@A ; Commands
	mov	ecx, DWORD PTR [eax+108]
	push	esi
	mov	BYTE PTR _VehicleDamaged$111949[esp+541], 9
	call	ecx
	add	esp, 16					; 00000010H
	push	eax
	lea	eax, DWORD PTR _VehicleDamaged$111949[esp+528]
	call	??$Pack@I@SEyePacket@SEye@@QAEXI@Z	; SEye::SEyePacket::Pack<unsigned int>

; 609  : 			VehicleDamaged.Pack<unsigned int> (Commands->Get_ID(Damager));

	mov	edx, DWORD PTR ?Commands@@3PAUScriptCommands@@A ; Commands
	mov	eax, DWORD PTR [edx+108]
	push	edi
	call	eax
	add	esp, 4
	push	eax
	lea	eax, DWORD PTR _VehicleDamaged$111949[esp+528]
	call	??$Pack@I@SEyePacket@SEye@@QAEXI@Z	; SEye::SEyePacket::Pack<unsigned int>

; 610  : 			VehicleDamaged.Pack<bool> (damage > 0 ? 1 : 0);

	fldz
	fcomp	DWORD PTR _damage$[esp+520]
	fnstsw	ax
	test	ah, 5
	jp	SHORT $LN8@Damaged@2
	mov	al, 1
	jmp	SHORT $LN9@Damaged@2
$LN8@Damaged@2:
	xor	al, al
$LN9@Damaged@2:
	movzx	ecx, BYTE PTR _VehicleDamaged$111949[esp+524]
	mov	BYTE PTR _VehicleDamaged$111949[esp+ecx+526], al
	mov	al, BYTE PTR _VehicleDamaged$111949[esp+524]

; 611  : 			t_Client->SendData((const char *)& VehicleDamaged, VehicleDamaged.GetSize());

	mov	ecx, DWORD PTR ?t_Client@@3PAVTCPSocket@@A ; t_Client
	inc	al
	movzx	edx, al
	add	edx, 8
	mov	BYTE PTR _VehicleDamaged$111949[esp+524], al
	push	edx
	lea	eax, DWORD PTR _VehicleDamaged$111949[esp+528]
	push	eax
	call	?SendData@TCPSocket@@QAE_NPBDH@Z	; TCPSocket::SendData
$LN25@Damaged@2:
	pop	esi
$LN1@Damaged@2:
	pop	edi

; 612  : 		}
; 613  : 	}

	add	esp, 516				; 00000204H
	ret	12					; 0000000cH
?Damaged@SEye_Vehicle_Update@@EAEXPAE0M@Z ENDP		; SEye_Vehicle_Update::Damaged
; Function compile flags: /Ogtpy
_TEXT	ENDS
;	COMDAT ?Destroyed@SEye_Vehicle_Update@@EAEXPAE@Z
_TEXT	SEGMENT
$T157569 = -520						; size = 4
_VehicleUpdate$111939 = -516				; size = 514
_o$ = 8							; size = 4
?Destroyed@SEye_Vehicle_Update@@EAEXPAE@Z PROC		; SEye_Vehicle_Update::Destroyed, COMDAT
; _this$ = ecx

; 571  : 	{

	sub	esp, 520				; 00000208H

; 572  : 		if(t_Client)

	cmp	DWORD PTR ?t_Client@@3PAVTCPSocket@@A, 0 ; t_Client
	je	$LN17@Destroyed@2
	push	esi
	push	edi

; 573  : 		{
; 574  : 			SEye::SEyePacket VehicleUpdate;

	push	514					; 00000202H
	lea	eax, DWORD PTR _VehicleUpdate$111939[esp+532]
	push	0
	push	eax
	call	_memset

; 575  : 			VehicleUpdate.SetType(8);
; 576  : 			VehicleUpdate.Pack<unsigned int>(Commands->Get_ID(o));

	mov	ecx, DWORD PTR _o$[esp+536]
	mov	edx, DWORD PTR ?Commands@@3PAUScriptCommands@@A ; Commands
	mov	eax, DWORD PTR [edx+108]
	push	ecx
	mov	BYTE PTR _VehicleUpdate$111939[esp+545], 8
	call	eax
	movzx	ecx, BYTE PTR _VehicleUpdate$111939[esp+544]
	mov	DWORD PTR $T157569[esp+544], eax
	movzx	edx, BYTE PTR $T157569[esp+547]
	mov	BYTE PTR _VehicleUpdate$111939[esp+ecx+546], dl
	mov	cl, BYTE PTR _VehicleUpdate$111939[esp+544]
	movzx	edx, BYTE PTR $T157569[esp+546]
	inc	cl
	mov	BYTE PTR _VehicleUpdate$111939[esp+544], cl
	movzx	ecx, cl
	mov	BYTE PTR _VehicleUpdate$111939[esp+ecx+546], dl
	mov	cl, BYTE PTR _VehicleUpdate$111939[esp+544]
	inc	cl
	mov	BYTE PTR _VehicleUpdate$111939[esp+544], cl
	movzx	ecx, cl
	mov	BYTE PTR _VehicleUpdate$111939[esp+ecx+546], ah
	mov	cl, BYTE PTR _VehicleUpdate$111939[esp+544]
	inc	cl
	movzx	edx, cl
	mov	BYTE PTR _VehicleUpdate$111939[esp+544], cl
	mov	BYTE PTR _VehicleUpdate$111939[esp+edx+546], al
	mov	al, BYTE PTR _VehicleUpdate$111939[esp+544]
	inc	al

; 577  : 			t_Client->SendData((const char *)&VehicleUpdate, VehicleUpdate.GetSize());

	movzx	esi, al
	mov	BYTE PTR _VehicleUpdate$111939[esp+544], al
	mov	eax, DWORD PTR ?t_Client@@3PAVTCPSocket@@A ; t_Client
	add	esp, 16					; 00000010H
	add	esi, 8
	mov	edi, eax
	call	?Is_Connected@TCPSocket@@QAE_NXZ	; TCPSocket::Is_Connected
	test	al, al
	je	SHORT $LN29@Destroyed@2
	mov	ecx, DWORD PTR [edi]
	push	0
	push	esi
	lea	eax, DWORD PTR _VehicleUpdate$111939[esp+536]
	push	eax
	push	ecx
	call	DWORD PTR __imp__send@16
	cmp	eax, esi
	je	SHORT $LN29@Destroyed@2
	cmp	eax, -1
	je	SHORT $LN29@Destroyed@2
	sub	esi, eax
	push	esi
	lea	edx, DWORD PTR _VehicleUpdate$111939[esp+eax+532]
	push	edx
	mov	ecx, edi
	call	?SendData@TCPSocket@@QAE_NPBDH@Z	; TCPSocket::SendData
$LN29@Destroyed@2:
	pop	edi
	pop	esi
$LN17@Destroyed@2:

; 578  : 		}
; 579  : 	}

	add	esp, 520				; 00000208H
	ret	4
?Destroyed@SEye_Vehicle_Update@@EAEXPAE@Z ENDP		; SEye_Vehicle_Update::Destroyed
_TEXT	ENDS
EXTRN	__ftol2_sse:PROC
; Function compile flags: /Ogtpy
;	COMDAT ?Timer_Expired@SEye_Vehicle_Update@@EAEXPAEH@Z
_TEXT	SEGMENT
_Y$111926 = -560					; size = 4
_X$111925 = -556					; size = 4
tv547 = -552						; size = 4
_HP$111927 = -552					; size = 4
$T157616 = -548						; size = 4
_ObjectID$111928 = -544					; size = 4
_pos$111923 = -540					; size = 12
_VehicleUpdate$111929 = -528				; size = 514
$T157594 = -12						; size = 12
_o$ = 8							; size = 4
_number$ = 12						; size = 4
?Timer_Expired@SEye_Vehicle_Update@@EAEXPAEH@Z PROC	; SEye_Vehicle_Update::Timer_Expired, COMDAT
; _this$ = ecx

; 543  : 	{

	sub	esp, 560				; 00000230H

; 544  : 		if(number == 2)

	cmp	DWORD PTR _number$[esp+556], 2
	push	edi
	mov	edi, ecx
	jne	SHORT $LN2@Timer_Expi@3

; 545  : 		{
; 546  : 			CanSendDamage = 1;

	mov	BYTE PTR [edi+28], 1
	pop	edi

; 569  : 	}

	add	esp, 560				; 00000230H
	ret	8
$LN2@Timer_Expi@3:

; 547  : 			return;
; 548  : 		}
; 549  : 		if(t_Client)

	cmp	DWORD PTR ?t_Client@@3PAVTCPSocket@@A, 0 ; t_Client
	push	esi
	mov	esi, DWORD PTR _o$[esp+564]
	je	$LN1@Timer_Expi@3

; 550  : 		{
; 551  : 			Vector3 pos = Commands->Get_Position(o);

	mov	ecx, DWORD PTR ?Commands@@3PAUScriptCommands@@A ; Commands
	mov	edx, DWORD PTR [ecx+64]
	push	ebx
	lea	eax, DWORD PTR $T157594[esp+572]
	push	esi
	push	eax
	call	edx
	mov	ecx, DWORD PTR [eax]
	mov	edx, DWORD PTR [eax+4]
	mov	eax, DWORD PTR [eax+8]
	mov	DWORD PTR _pos$111923[esp+580], ecx

; 552  : 			float X = pos.X;

	fld	DWORD PTR _pos$111923[esp+580]

; 553  : 			float Y = pos.Y;
; 554  : 			int HP = int(Commands->Get_Health(o)+Commands->Get_Shield_Strength(o));

	mov	ecx, DWORD PTR ?Commands@@3PAUScriptCommands@@A ; Commands
	fstp	DWORD PTR _X$111925[esp+580]
	mov	DWORD PTR _pos$111923[esp+584], edx
	fld	DWORD PTR _pos$111923[esp+584]
	mov	edx, DWORD PTR [ecx+232]
	fstp	DWORD PTR _Y$111926[esp+580]
	push	esi
	mov	DWORD PTR _pos$111923[esp+592], eax
	call	edx
	fstp	DWORD PTR tv547[esp+584]
	mov	eax, DWORD PTR ?Commands@@3PAUScriptCommands@@A ; Commands
	mov	ecx, DWORD PTR [eax+220]
	push	esi
	call	ecx
	fadd	DWORD PTR tv547[esp+588]
	call	__ftol2_sse

; 555  : 			int ObjectID = Commands->Get_ID(o);

	mov	edx, DWORD PTR ?Commands@@3PAUScriptCommands@@A ; Commands
	mov	ebx, eax
	mov	eax, DWORD PTR [edx+108]
	push	esi
	mov	DWORD PTR _HP$111927[esp+592], ebx
	call	eax

; 556  : 
; 557  : 			SEye::SEyePacket VehicleUpdate;

	push	514					; 00000202H
	lea	ecx, DWORD PTR _VehicleUpdate$111929[esp+596]
	push	0
	push	ecx
	mov	DWORD PTR _ObjectID$111928[esp+604], eax
	call	_memset

; 558  : 			VehicleUpdate.SetType(6);
; 559  : 
; 560  : 			VehicleUpdate.Pack<float>(Commands->Get_Facing(o));

	mov	edx, DWORD PTR ?Commands@@3PAUScriptCommands@@A ; Commands
	mov	BYTE PTR _VehicleUpdate$111929[esp+605], 6
	mov	eax, DWORD PTR [edx+72]
	push	esi
	call	eax
	fstp	DWORD PTR $T157616[esp+608]
	movzx	ecx, BYTE PTR _VehicleUpdate$111929[esp+608]
	movzx	edx, BYTE PTR $T157616[esp+611]
	mov	BYTE PTR _VehicleUpdate$111929[esp+ecx+610], dl
	mov	al, BYTE PTR _VehicleUpdate$111929[esp+608]
	movzx	ecx, BYTE PTR $T157616[esp+610]
	inc	al
	mov	BYTE PTR _VehicleUpdate$111929[esp+608], al
	movzx	eax, al
	mov	BYTE PTR _VehicleUpdate$111929[esp+eax+610], cl
	mov	al, BYTE PTR _VehicleUpdate$111929[esp+608]
	inc	al
	mov	BYTE PTR _VehicleUpdate$111929[esp+608], al
	movzx	edx, al
	movzx	eax, BYTE PTR $T157616[esp+609]
	mov	BYTE PTR _VehicleUpdate$111929[esp+edx+610], al
	mov	al, BYTE PTR _VehicleUpdate$111929[esp+608]
	movzx	edx, BYTE PTR $T157616[esp+608]
	inc	al
	movzx	ecx, al
	mov	BYTE PTR _VehicleUpdate$111929[esp+608], al
	mov	BYTE PTR _VehicleUpdate$111929[esp+ecx+610], dl
	mov	al, BYTE PTR _VehicleUpdate$111929[esp+608]

; 561  : 			VehicleUpdate.Pack((char *)&HP, 4);

	movzx	ecx, BYTE PTR _HP$111927[esp+611]
	inc	al
	mov	BYTE PTR _VehicleUpdate$111929[esp+608], al
	movzx	eax, al
	mov	BYTE PTR _VehicleUpdate$111929[esp+eax+610], cl
	mov	al, BYTE PTR _VehicleUpdate$111929[esp+608]
	add	esp, 36					; 00000024H
	inc	al
	mov	BYTE PTR _VehicleUpdate$111929[esp+572], al
	movzx	edx, al
	movzx	eax, BYTE PTR _HP$111927[esp+574]
	mov	BYTE PTR _VehicleUpdate$111929[esp+edx+574], al
	mov	al, BYTE PTR _VehicleUpdate$111929[esp+572]
	inc	al
	mov	BYTE PTR _VehicleUpdate$111929[esp+572], al
	movzx	ecx, al
	mov	BYTE PTR _VehicleUpdate$111929[esp+ecx+574], bh
	mov	al, BYTE PTR _VehicleUpdate$111929[esp+572]
	inc	al
	mov	BYTE PTR _VehicleUpdate$111929[esp+572], al
	movzx	edx, al

; 562  : 			VehicleUpdate.Pack((char *)&Y, 4);

	movzx	ecx, BYTE PTR _Y$111926[esp+575]
	mov	BYTE PTR _VehicleUpdate$111929[esp+edx+574], bl
	mov	al, BYTE PTR _VehicleUpdate$111929[esp+572]
	inc	al
	mov	BYTE PTR _VehicleUpdate$111929[esp+572], al
	movzx	eax, al
	mov	BYTE PTR _VehicleUpdate$111929[esp+eax+574], cl
	mov	al, BYTE PTR _VehicleUpdate$111929[esp+572]
	inc	al
	mov	BYTE PTR _VehicleUpdate$111929[esp+572], al
	movzx	edx, al
	movzx	eax, BYTE PTR _Y$111926[esp+574]
	mov	BYTE PTR _VehicleUpdate$111929[esp+edx+574], al
	mov	al, BYTE PTR _VehicleUpdate$111929[esp+572]
	movzx	edx, BYTE PTR _Y$111926[esp+573]
	inc	al
	mov	BYTE PTR _VehicleUpdate$111929[esp+572], al
	movzx	ecx, al
	mov	BYTE PTR _VehicleUpdate$111929[esp+ecx+574], dl
	mov	al, BYTE PTR _VehicleUpdate$111929[esp+572]
	movzx	ecx, BYTE PTR _Y$111926[esp+572]
	inc	al
	mov	BYTE PTR _VehicleUpdate$111929[esp+572], al
	movzx	eax, al
	mov	BYTE PTR _VehicleUpdate$111929[esp+eax+574], cl
	mov	al, BYTE PTR _VehicleUpdate$111929[esp+572]
	inc	al
	mov	BYTE PTR _VehicleUpdate$111929[esp+572], al

; 563  : 			VehicleUpdate.Pack((char *)&X, 4);

	movzx	edx, al
	movzx	eax, BYTE PTR _X$111925[esp+575]
	mov	BYTE PTR _VehicleUpdate$111929[esp+edx+574], al
	mov	al, BYTE PTR _VehicleUpdate$111929[esp+572]
	movzx	edx, BYTE PTR _X$111925[esp+574]
	inc	al
	mov	BYTE PTR _VehicleUpdate$111929[esp+572], al
	movzx	ecx, al
	mov	BYTE PTR _VehicleUpdate$111929[esp+ecx+574], dl
	mov	al, BYTE PTR _VehicleUpdate$111929[esp+572]
	movzx	ecx, BYTE PTR _X$111925[esp+573]
	inc	al
	mov	BYTE PTR _VehicleUpdate$111929[esp+572], al
	movzx	eax, al
	mov	BYTE PTR _VehicleUpdate$111929[esp+eax+574], cl
	mov	al, BYTE PTR _VehicleUpdate$111929[esp+572]
	inc	al
	mov	BYTE PTR _VehicleUpdate$111929[esp+572], al
	movzx	edx, al
	movzx	eax, BYTE PTR _X$111925[esp+572]
	mov	BYTE PTR _VehicleUpdate$111929[esp+edx+574], al
	mov	al, BYTE PTR _VehicleUpdate$111929[esp+572]

; 564  : 			VehicleUpdate.Pack((char *)&ObjectID, 4);

	movzx	edx, BYTE PTR _ObjectID$111928[esp+575]
	inc	al
	mov	BYTE PTR _VehicleUpdate$111929[esp+572], al
	movzx	ecx, al
	mov	BYTE PTR _VehicleUpdate$111929[esp+ecx+574], dl
	mov	al, BYTE PTR _VehicleUpdate$111929[esp+572]
	movzx	ecx, BYTE PTR _ObjectID$111928[esp+574]
	inc	al
	mov	BYTE PTR _VehicleUpdate$111929[esp+572], al
	movzx	eax, al
	mov	BYTE PTR _VehicleUpdate$111929[esp+eax+574], cl
	mov	al, BYTE PTR _VehicleUpdate$111929[esp+572]
	inc	al
	mov	BYTE PTR _VehicleUpdate$111929[esp+572], al
	movzx	edx, al
	mov	eax, DWORD PTR _ObjectID$111928[esp+572]
	mov	BYTE PTR _VehicleUpdate$111929[esp+edx+574], ah
	mov	cl, BYTE PTR _VehicleUpdate$111929[esp+572]
	inc	cl
	mov	BYTE PTR _VehicleUpdate$111929[esp+572], cl
	movzx	ecx, cl
	mov	BYTE PTR _VehicleUpdate$111929[esp+ecx+574], al
	mov	al, BYTE PTR _VehicleUpdate$111929[esp+572]

; 565  : 
; 566  : 			t_Client->SendData((const char *)&VehicleUpdate, VehicleUpdate.GetSize());

	mov	ecx, DWORD PTR ?t_Client@@3PAVTCPSocket@@A ; t_Client
	inc	al
	movzx	edx, al
	add	edx, 8
	mov	BYTE PTR _VehicleUpdate$111929[esp+572], al
	push	edx
	lea	eax, DWORD PTR _VehicleUpdate$111929[esp+576]
	push	eax
	call	?SendData@TCPSocket@@QAE_NPBDH@Z	; TCPSocket::SendData
	pop	ebx
$LN1@Timer_Expi@3:

; 567  : 		}
; 568  : 		Commands->Start_Timer(o, this, 1.0, 1);

	fld1
	push	1
	push	ecx
	fstp	DWORD PTR [esp]
	mov	ecx, DWORD PTR ?Commands@@3PAUScriptCommands@@A ; Commands
	mov	edx, DWORD PTR [ecx+128]
	push	edi
	push	esi
	call	edx
	add	esp, 16					; 00000010H
	pop	esi
	pop	edi

; 569  : 	}

	add	esp, 560				; 00000230H
	ret	8
?Timer_Expired@SEye_Vehicle_Update@@EAEXPAEH@Z ENDP	; SEye_Vehicle_Update::Timer_Expired
; Function compile flags: /Ogtpy
_TEXT	ENDS
;	COMDAT ?Created@SEye_Vehicle_Update@@EAEXPAE@Z
_TEXT	SEGMENT
tv604 = -544						; size = 2
tv566 = -544						; size = 4
$T157795 = -544						; size = 4
$T157755 = -544						; size = 4
$T157739 = -544						; size = 4
$T157723 = -544						; size = 4
tv601 = -540						; size = 4
tv599 = -540						; size = 8
_pos$111909 = -540					; size = 12
_VehicleUpdate$111911 = -528				; size = 514
$T157682 = -12						; size = 12
_o$ = 8							; size = 4
?Created@SEye_Vehicle_Update@@EAEXPAE@Z PROC		; SEye_Vehicle_Update::Created, COMDAT
; _this$ = ecx

; 517  : 		CanSendDamage = 1;
; 518  : 		if(Is_Simple(o))

	mov	eax, DWORD PTR ?Commands@@3PAUScriptCommands@@A ; Commands
	sub	esp, 544				; 00000220H
	push	ebx
	mov	ebx, ecx
	push	edi
	mov	edi, DWORD PTR _o$[esp+548]
	mov	BYTE PTR [ebx+28], 1
	mov	ecx, DWORD PTR [eax+108]
	push	edi
	call	ecx
	add	esp, 4
	test	eax, eax
	je	SHORT $LN2@Created@3
	test	edi, edi
	je	SHORT $LN2@Created@3
	mov	edx, DWORD PTR [edi]
	mov	eax, DWORD PTR [edx+36]
	mov	ecx, edi
	call	eax
	test	eax, eax
	je	SHORT $LN2@Created@3
	mov	edx, DWORD PTR [eax]
	mov	ecx, eax
	mov	eax, DWORD PTR [edx+156]
	call	eax
	test	eax, eax
	je	SHORT $LN2@Created@3

; 519  : 		{
; 520  : 			Remove_Script(o, "SEye_Vehicle_Update");

	call	?Remove_Script@@YAXPAEPBD@Z		; Remove_Script
	pop	edi
	pop	ebx

; 540  : 	}

	add	esp, 544				; 00000220H
	ret	4
$LN2@Created@3:

; 521  : 			return;
; 522  : 		}
; 523  : 		if(t_Client)

	cmp	DWORD PTR ?t_Client@@3PAVTCPSocket@@A, 0 ; t_Client
	je	$LN1@Created@3

; 524  : 		{
; 525  : 			Vector3 pos = Commands->Get_Position(o);

	mov	edx, DWORD PTR ?Commands@@3PAUScriptCommands@@A ; Commands
	mov	eax, DWORD PTR [edx+64]
	push	esi
	lea	ecx, DWORD PTR $T157682[esp+556]
	push	edi
	push	ecx
	call	eax
	mov	ecx, DWORD PTR [eax]
	mov	edx, DWORD PTR [eax+4]
	mov	eax, DWORD PTR [eax+8]

; 526  : 			SEye::SEyePacket VehicleUpdate;

	push	514					; 00000202H
	mov	DWORD PTR _pos$111909[esp+568], ecx
	lea	ecx, DWORD PTR _VehicleUpdate$111911[esp+568]
	push	0
	push	ecx
	mov	DWORD PTR _pos$111909[esp+580], edx
	mov	DWORD PTR _pos$111909[esp+584], eax
	call	_memset

; 527  : 			VehicleUpdate.SetType(3);
; 528  : 			
; 529  : 			VehicleUpdate.Pack_String(Commands->Get_Preset_Name(o));

	mov	edx, DWORD PTR ?Commands@@3PAUScriptCommands@@A ; Commands
	mov	BYTE PTR _VehicleUpdate$111911[esp+577], 3
	mov	eax, DWORD PTR [edx+116]
	push	edi
	call	eax
	add	esp, 24					; 00000018H
	mov	esi, eax
	lea	ecx, DWORD PTR _VehicleUpdate$111911[esp+556]
	call	?Pack_String@SEyePacket@SEye@@QAEXPBD@Z	; SEye::SEyePacket::Pack_String

; 530  : 			VehicleUpdate.Pack<float>(pos.Y);

	fld	DWORD PTR _pos$111909[esp+560]
	movzx	ecx, BYTE PTR _VehicleUpdate$111911[esp+556]
	fstp	DWORD PTR $T157723[esp+556]
	movzx	edx, BYTE PTR $T157723[esp+559]

; 531  : 			VehicleUpdate.Pack<float>(pos.X);

	fld	DWORD PTR _pos$111909[esp+556]
	mov	BYTE PTR _VehicleUpdate$111911[esp+ecx+558], dl
	mov	al, BYTE PTR _VehicleUpdate$111911[esp+556]
	movzx	ecx, BYTE PTR $T157723[esp+558]
	inc	al
	mov	BYTE PTR _VehicleUpdate$111911[esp+556], al
	movzx	eax, al
	mov	BYTE PTR _VehicleUpdate$111911[esp+eax+558], cl
	mov	al, BYTE PTR _VehicleUpdate$111911[esp+556]
	inc	al
	mov	BYTE PTR _VehicleUpdate$111911[esp+556], al
	movzx	edx, al
	movzx	eax, BYTE PTR $T157723[esp+557]
	mov	BYTE PTR _VehicleUpdate$111911[esp+edx+558], al
	mov	al, BYTE PTR _VehicleUpdate$111911[esp+556]
	movzx	edx, BYTE PTR $T157723[esp+556]
	fstp	DWORD PTR $T157739[esp+556]
	inc	al
	mov	BYTE PTR _VehicleUpdate$111911[esp+556], al
	movzx	ecx, al
	mov	BYTE PTR _VehicleUpdate$111911[esp+ecx+558], dl
	mov	al, BYTE PTR _VehicleUpdate$111911[esp+556]
	movzx	ecx, BYTE PTR $T157739[esp+559]
	inc	al
	mov	BYTE PTR _VehicleUpdate$111911[esp+556], al
	movzx	eax, al
	mov	BYTE PTR _VehicleUpdate$111911[esp+eax+558], cl
	mov	al, BYTE PTR _VehicleUpdate$111911[esp+556]
	inc	al
	mov	BYTE PTR _VehicleUpdate$111911[esp+556], al
	movzx	edx, al
	movzx	eax, BYTE PTR $T157739[esp+558]
	mov	BYTE PTR _VehicleUpdate$111911[esp+edx+558], al
	mov	al, BYTE PTR _VehicleUpdate$111911[esp+556]
	movzx	edx, BYTE PTR $T157739[esp+557]
	inc	al
	movzx	ecx, al
	mov	BYTE PTR _VehicleUpdate$111911[esp+556], al
	mov	BYTE PTR _VehicleUpdate$111911[esp+ecx+558], dl
	mov	al, BYTE PTR _VehicleUpdate$111911[esp+556]
	movzx	ecx, BYTE PTR $T157739[esp+556]

; 532  : 			VehicleUpdate.Pack<unsigned int>(int(Commands->Get_Max_Health(o)+Commands->Get_Max_Shield_Strength(o)));

	mov	edx, DWORD PTR ?Commands@@3PAUScriptCommands@@A ; Commands
	inc	al
	mov	BYTE PTR _VehicleUpdate$111911[esp+556], al
	movzx	eax, al
	mov	BYTE PTR _VehicleUpdate$111911[esp+eax+558], cl
	inc	BYTE PTR _VehicleUpdate$111911[esp+556]
	mov	eax, DWORD PTR [edx+236]
	push	edi
	call	eax
	mov	ecx, DWORD PTR ?Commands@@3PAUScriptCommands@@A ; Commands
	fstp	DWORD PTR tv566[esp+560]
	mov	edx, DWORD PTR [ecx+224]
	push	edi
	call	edx
	fadd	DWORD PTR tv566[esp+564]
	movzx	ecx, BYTE PTR _VehicleUpdate$111911[esp+564]
	fnstcw	WORD PTR tv604[esp+564]
	movzx	eax, WORD PTR tv604[esp+564]
	or	eax, 3072				; 00000c00H
	mov	DWORD PTR tv601[esp+564], eax

; 533  : 			VehicleUpdate.Pack<char>((char)Get_Object_Type(o));

	push	edi
	fldcw	WORD PTR tv601[esp+568]
	fistp	QWORD PTR tv599[esp+568]
	mov	eax, DWORD PTR tv599[esp+568]
	fldcw	WORD PTR tv604[esp+568]
	mov	DWORD PTR $T157755[esp+568], eax
	movzx	edx, BYTE PTR $T157755[esp+571]
	mov	BYTE PTR _VehicleUpdate$111911[esp+ecx+570], dl
	mov	cl, BYTE PTR _VehicleUpdate$111911[esp+568]
	movzx	edx, BYTE PTR $T157755[esp+570]
	inc	cl
	mov	BYTE PTR _VehicleUpdate$111911[esp+568], cl
	movzx	ecx, cl
	mov	BYTE PTR _VehicleUpdate$111911[esp+ecx+570], dl
	mov	cl, BYTE PTR _VehicleUpdate$111911[esp+568]
	inc	cl
	mov	BYTE PTR _VehicleUpdate$111911[esp+568], cl
	movzx	ecx, cl
	mov	BYTE PTR _VehicleUpdate$111911[esp+ecx+570], ah
	mov	cl, BYTE PTR _VehicleUpdate$111911[esp+568]
	inc	cl
	movzx	edx, cl
	mov	BYTE PTR _VehicleUpdate$111911[esp+568], cl
	mov	BYTE PTR _VehicleUpdate$111911[esp+edx+570], al
	mov	eax, DWORD PTR ?Commands@@3PAUScriptCommands@@A ; Commands
	inc	BYTE PTR _VehicleUpdate$111911[esp+568]
	mov	ecx, DWORD PTR [eax+108]
	call	ecx
	add	esp, 12					; 0000000cH
	pop	esi
	test	eax, eax
	je	SHORT $LN39@Created@3
	test	edi, edi
	je	SHORT $LN39@Created@3
	mov	edx, DWORD PTR [edi]
	mov	eax, DWORD PTR [edx+60]
	mov	ecx, edi
	call	eax
	test	eax, eax
	je	SHORT $LN39@Created@3
	mov	eax, DWORD PTR [eax+1892]
	jmp	SHORT $LN41@Created@3
$LN39@Created@3:
	xor	eax, eax
$LN41@Created@3:
	movzx	ecx, BYTE PTR _VehicleUpdate$111911[esp+552]

; 534  : 			VehicleUpdate.Pack<unsigned int>(Commands->Get_ID(o));

	mov	edx, DWORD PTR ?Commands@@3PAUScriptCommands@@A ; Commands
	mov	BYTE PTR _VehicleUpdate$111911[esp+ecx+554], al
	inc	BYTE PTR _VehicleUpdate$111911[esp+552]
	mov	eax, DWORD PTR [edx+108]
	push	edi
	call	eax
	movzx	ecx, BYTE PTR _VehicleUpdate$111911[esp+556]
	mov	DWORD PTR $T157795[esp+556], eax
	movzx	edx, BYTE PTR $T157795[esp+559]
	mov	BYTE PTR _VehicleUpdate$111911[esp+ecx+558], dl
	mov	cl, BYTE PTR _VehicleUpdate$111911[esp+556]
	movzx	edx, BYTE PTR $T157795[esp+558]
	inc	cl
	mov	BYTE PTR _VehicleUpdate$111911[esp+556], cl
	movzx	ecx, cl
	mov	BYTE PTR _VehicleUpdate$111911[esp+ecx+558], dl
	mov	cl, BYTE PTR _VehicleUpdate$111911[esp+556]
	inc	cl
	mov	BYTE PTR _VehicleUpdate$111911[esp+556], cl
	movzx	ecx, cl
	mov	BYTE PTR _VehicleUpdate$111911[esp+ecx+558], ah
	mov	cl, BYTE PTR _VehicleUpdate$111911[esp+556]
	inc	cl
	movzx	edx, cl
	mov	BYTE PTR _VehicleUpdate$111911[esp+556], cl
	mov	BYTE PTR _VehicleUpdate$111911[esp+edx+558], al
	mov	al, BYTE PTR _VehicleUpdate$111911[esp+556]
	inc	al
	mov	BYTE PTR _VehicleUpdate$111911[esp+556], al

; 535  : 
; 536  : 			t_Client->SendData((const char *)&VehicleUpdate, VehicleUpdate.GetSize());

	movzx	eax, al
	add	esp, 4
	add	eax, 8
	push	eax
	lea	ecx, DWORD PTR _VehicleUpdate$111911[esp+556]
	push	ecx
	mov	ecx, DWORD PTR ?t_Client@@3PAVTCPSocket@@A ; t_Client
	call	?SendData@TCPSocket@@QAE_NPBDH@Z	; TCPSocket::SendData
$LN1@Created@3:

; 537  : 		}
; 538  : 
; 539  : 		Commands->Start_Timer(o, this, 1.0, 1);

	fld1
	mov	edx, DWORD PTR ?Commands@@3PAUScriptCommands@@A ; Commands
	mov	eax, DWORD PTR [edx+128]
	push	1
	push	ecx
	fstp	DWORD PTR [esp]
	push	ebx
	push	edi
	call	eax
	add	esp, 16					; 00000010H
	pop	edi
	pop	ebx

; 540  : 	}

	add	esp, 544				; 00000220H
	ret	4
?Created@SEye_Vehicle_Update@@EAEXPAE@Z ENDP		; SEye_Vehicle_Update::Created
; Function compile flags: /Ogtpy
_TEXT	ENDS
;	COMDAT ?Damaged@SEye_Player_Update@@EAEXPAE0M@Z
_TEXT	SEGMENT
_PlayerDamaged$111869 = -516				; size = 514
_o$ = 8							; size = 4
_Damager$ = 12						; size = 4
_damage$ = 16						; size = 4
?Damaged@SEye_Player_Update@@EAEXPAE0M@Z PROC		; SEye_Player_Update::Damaged, COMDAT
; _this$ = ecx

; 477  : 	{

	sub	esp, 516				; 00000204H
	push	edi

; 478  : 		if(!Damager)

	mov	edi, DWORD PTR _Damager$[esp+516]
	test	edi, edi
	je	$LN1@Damaged@3

; 479  : 		{
; 480  : 			return;
; 481  : 		}
; 482  : 		if(damage == 0)

	fldz
	fcomp	DWORD PTR _damage$[esp+516]
	fnstsw	ax
	test	ah, 68					; 00000044H
	jnp	$LN1@Damaged@3
	push	esi

; 483  : 		{
; 484  : 			return;
; 485  : 		}
; 486  : 
; 487  : 		if(Damager == o)

	mov	esi, DWORD PTR _o$[esp+520]
	cmp	edi, esi
	je	$LN25@Damaged@3

; 488  : 		{
; 489  : 			return;
; 490  : 		}
; 491  : 
; 492  : 		if(!CanSendDamage)

	cmp	BYTE PTR [ecx+28], 0
	je	$LN25@Damaged@3

; 493  : 		{
; 494  : 			return;
; 495  : 		}
; 496  : 		CanSendDamage = 0;
; 497  : 		Commands->Start_Timer(o, this, 1.0, 2);

	fld1
	mov	eax, DWORD PTR ?Commands@@3PAUScriptCommands@@A ; Commands
	push	2
	push	ecx
	fstp	DWORD PTR [esp]
	push	ecx
	mov	BYTE PTR [ecx+28], 0
	mov	ecx, DWORD PTR [eax+128]
	push	esi
	call	ecx
	add	esp, 16					; 00000010H

; 498  : 
; 499  : 
; 500  : 		if(t_Client)

	cmp	DWORD PTR ?t_Client@@3PAVTCPSocket@@A, 0 ; t_Client
	je	$LN25@Damaged@3

; 501  : 		{
; 502  : 			SEye::SEyePacket PlayerDamaged;

	push	514					; 00000202H
	lea	edx, DWORD PTR _PlayerDamaged$111869[esp+528]
	push	0
	push	edx
	call	_memset

; 503  : 			PlayerDamaged.SetType(9);
; 504  : 			PlayerDamaged.Pack<unsigned int> (Commands->Get_ID(o));

	mov	eax, DWORD PTR ?Commands@@3PAUScriptCommands@@A ; Commands
	mov	ecx, DWORD PTR [eax+108]
	push	esi
	mov	BYTE PTR _PlayerDamaged$111869[esp+541], 9
	call	ecx
	add	esp, 16					; 00000010H
	push	eax
	lea	eax, DWORD PTR _PlayerDamaged$111869[esp+528]
	call	??$Pack@I@SEyePacket@SEye@@QAEXI@Z	; SEye::SEyePacket::Pack<unsigned int>

; 505  : 			PlayerDamaged.Pack<unsigned int> (Commands->Get_ID(Damager));

	mov	edx, DWORD PTR ?Commands@@3PAUScriptCommands@@A ; Commands
	mov	eax, DWORD PTR [edx+108]
	push	edi
	call	eax
	add	esp, 4
	push	eax
	lea	eax, DWORD PTR _PlayerDamaged$111869[esp+528]
	call	??$Pack@I@SEyePacket@SEye@@QAEXI@Z	; SEye::SEyePacket::Pack<unsigned int>

; 506  : 			PlayerDamaged.Pack<bool> (damage > 0 ? 1 : 0);

	fldz
	fcomp	DWORD PTR _damage$[esp+520]
	fnstsw	ax
	test	ah, 5
	jp	SHORT $LN8@Damaged@3
	mov	al, 1
	jmp	SHORT $LN9@Damaged@3
$LN8@Damaged@3:
	xor	al, al
$LN9@Damaged@3:
	movzx	ecx, BYTE PTR _PlayerDamaged$111869[esp+524]
	mov	BYTE PTR _PlayerDamaged$111869[esp+ecx+526], al
	mov	al, BYTE PTR _PlayerDamaged$111869[esp+524]

; 507  : 			t_Client->SendData((const char *)&PlayerDamaged, PlayerDamaged.GetSize());

	mov	ecx, DWORD PTR ?t_Client@@3PAVTCPSocket@@A ; t_Client
	inc	al
	movzx	edx, al
	add	edx, 8
	mov	BYTE PTR _PlayerDamaged$111869[esp+524], al
	push	edx
	lea	eax, DWORD PTR _PlayerDamaged$111869[esp+528]
	push	eax
	call	?SendData@TCPSocket@@QAE_NPBDH@Z	; TCPSocket::SendData
$LN25@Damaged@3:
	pop	esi
$LN1@Damaged@3:
	pop	edi

; 508  : 		}
; 509  : 	}

	add	esp, 516				; 00000204H
	ret	12					; 0000000cH
?Damaged@SEye_Player_Update@@EAEXPAE0M@Z ENDP		; SEye_Player_Update::Damaged
; Function compile flags: /Ogtpy
_TEXT	ENDS
;	COMDAT ?Killed@SEye_Player_Update@@EAEXPAE0@Z
_TEXT	SEGMENT
$T157883 = -520						; size = 4
_PlayerUpdate$111859 = -516				; size = 514
_o$ = 8							; size = 4
___formal$ = 12						; size = 4
?Killed@SEye_Player_Update@@EAEXPAE0@Z PROC		; SEye_Player_Update::Killed, COMDAT
; _this$ = ecx

; 466  : 	{

	sub	esp, 520				; 00000208H

; 467  : 		if(t_Client)

	cmp	DWORD PTR ?t_Client@@3PAVTCPSocket@@A, 0 ; t_Client
	je	$LN17@Killed@2
	push	esi
	push	edi

; 468  : 		{
; 469  : 			SEye::SEyePacket PlayerUpdate;

	push	514					; 00000202H
	lea	eax, DWORD PTR _PlayerUpdate$111859[esp+532]
	push	0
	push	eax
	call	_memset

; 470  : 			PlayerUpdate.SetType(8);
; 471  : 			PlayerUpdate.Pack<unsigned int>(Commands->Get_ID(o));

	mov	ecx, DWORD PTR _o$[esp+536]
	mov	edx, DWORD PTR ?Commands@@3PAUScriptCommands@@A ; Commands
	mov	eax, DWORD PTR [edx+108]
	push	ecx
	mov	BYTE PTR _PlayerUpdate$111859[esp+545], 8
	call	eax
	movzx	ecx, BYTE PTR _PlayerUpdate$111859[esp+544]
	mov	DWORD PTR $T157883[esp+544], eax
	movzx	edx, BYTE PTR $T157883[esp+547]
	mov	BYTE PTR _PlayerUpdate$111859[esp+ecx+546], dl
	mov	cl, BYTE PTR _PlayerUpdate$111859[esp+544]
	movzx	edx, BYTE PTR $T157883[esp+546]
	inc	cl
	mov	BYTE PTR _PlayerUpdate$111859[esp+544], cl
	movzx	ecx, cl
	mov	BYTE PTR _PlayerUpdate$111859[esp+ecx+546], dl
	mov	cl, BYTE PTR _PlayerUpdate$111859[esp+544]
	inc	cl
	mov	BYTE PTR _PlayerUpdate$111859[esp+544], cl
	movzx	ecx, cl
	mov	BYTE PTR _PlayerUpdate$111859[esp+ecx+546], ah
	mov	cl, BYTE PTR _PlayerUpdate$111859[esp+544]
	inc	cl
	movzx	edx, cl
	mov	BYTE PTR _PlayerUpdate$111859[esp+544], cl
	mov	BYTE PTR _PlayerUpdate$111859[esp+edx+546], al
	mov	al, BYTE PTR _PlayerUpdate$111859[esp+544]
	inc	al

; 472  : 			t_Client->SendData((const char *)&PlayerUpdate, PlayerUpdate.GetSize());

	movzx	esi, al
	mov	BYTE PTR _PlayerUpdate$111859[esp+544], al
	mov	eax, DWORD PTR ?t_Client@@3PAVTCPSocket@@A ; t_Client
	add	esp, 16					; 00000010H
	add	esi, 8
	mov	edi, eax
	call	?Is_Connected@TCPSocket@@QAE_NXZ	; TCPSocket::Is_Connected
	test	al, al
	je	SHORT $LN29@Killed@2
	mov	ecx, DWORD PTR [edi]
	push	0
	push	esi
	lea	eax, DWORD PTR _PlayerUpdate$111859[esp+536]
	push	eax
	push	ecx
	call	DWORD PTR __imp__send@16
	cmp	eax, esi
	je	SHORT $LN29@Killed@2
	cmp	eax, -1
	je	SHORT $LN29@Killed@2
	sub	esi, eax
	push	esi
	lea	edx, DWORD PTR _PlayerUpdate$111859[esp+eax+532]
	push	edx
	mov	ecx, edi
	call	?SendData@TCPSocket@@QAE_NPBDH@Z	; TCPSocket::SendData
$LN29@Killed@2:
	pop	edi
	pop	esi
$LN17@Killed@2:

; 473  : 		}
; 474  : 	}

	add	esp, 520				; 00000208H
	ret	8
?Killed@SEye_Player_Update@@EAEXPAE0@Z ENDP		; SEye_Player_Update::Killed
; Function compile flags: /Ogtpy
_TEXT	ENDS
;	COMDAT ?Destroyed@SEye_Player_Update@@EAEXPAE@Z
_TEXT	SEGMENT
$T157929 = -520						; size = 4
_PlayerUpdate$111853 = -516				; size = 514
_o$ = 8							; size = 4
?Destroyed@SEye_Player_Update@@EAEXPAE@Z PROC		; SEye_Player_Update::Destroyed, COMDAT
; _this$ = ecx

; 455  : 	{

	sub	esp, 520				; 00000208H

; 456  : 		if(t_Client)

	cmp	DWORD PTR ?t_Client@@3PAVTCPSocket@@A, 0 ; t_Client
	je	$LN17@Destroyed@3
	push	esi
	push	edi

; 457  : 		{
; 458  : 			SEye::SEyePacket PlayerUpdate;

	push	514					; 00000202H
	lea	eax, DWORD PTR _PlayerUpdate$111853[esp+532]
	push	0
	push	eax
	call	_memset

; 459  : 			PlayerUpdate.SetType(8);
; 460  : 			PlayerUpdate.Pack<unsigned int>(Commands->Get_ID(o));

	mov	ecx, DWORD PTR _o$[esp+536]
	mov	edx, DWORD PTR ?Commands@@3PAUScriptCommands@@A ; Commands
	mov	eax, DWORD PTR [edx+108]
	push	ecx
	mov	BYTE PTR _PlayerUpdate$111853[esp+545], 8
	call	eax
	movzx	ecx, BYTE PTR _PlayerUpdate$111853[esp+544]
	mov	DWORD PTR $T157929[esp+544], eax
	movzx	edx, BYTE PTR $T157929[esp+547]
	mov	BYTE PTR _PlayerUpdate$111853[esp+ecx+546], dl
	mov	cl, BYTE PTR _PlayerUpdate$111853[esp+544]
	movzx	edx, BYTE PTR $T157929[esp+546]
	inc	cl
	mov	BYTE PTR _PlayerUpdate$111853[esp+544], cl
	movzx	ecx, cl
	mov	BYTE PTR _PlayerUpdate$111853[esp+ecx+546], dl
	mov	cl, BYTE PTR _PlayerUpdate$111853[esp+544]
	inc	cl
	mov	BYTE PTR _PlayerUpdate$111853[esp+544], cl
	movzx	ecx, cl
	mov	BYTE PTR _PlayerUpdate$111853[esp+ecx+546], ah
	mov	cl, BYTE PTR _PlayerUpdate$111853[esp+544]
	inc	cl
	movzx	edx, cl
	mov	BYTE PTR _PlayerUpdate$111853[esp+544], cl
	mov	BYTE PTR _PlayerUpdate$111853[esp+edx+546], al
	mov	al, BYTE PTR _PlayerUpdate$111853[esp+544]
	inc	al

; 461  : 			t_Client->SendData((const char *)&PlayerUpdate, PlayerUpdate.GetSize());

	movzx	esi, al
	mov	BYTE PTR _PlayerUpdate$111853[esp+544], al
	mov	eax, DWORD PTR ?t_Client@@3PAVTCPSocket@@A ; t_Client
	add	esp, 16					; 00000010H
	add	esi, 8
	mov	edi, eax
	call	?Is_Connected@TCPSocket@@QAE_NXZ	; TCPSocket::Is_Connected
	test	al, al
	je	SHORT $LN29@Destroyed@3
	mov	ecx, DWORD PTR [edi]
	push	0
	push	esi
	lea	eax, DWORD PTR _PlayerUpdate$111853[esp+536]
	push	eax
	push	ecx
	call	DWORD PTR __imp__send@16
	cmp	eax, esi
	je	SHORT $LN29@Destroyed@3
	cmp	eax, -1
	je	SHORT $LN29@Destroyed@3
	sub	esi, eax
	push	esi
	lea	edx, DWORD PTR _PlayerUpdate$111853[esp+eax+532]
	push	edx
	mov	ecx, edi
	call	?SendData@TCPSocket@@QAE_NPBDH@Z	; TCPSocket::SendData
$LN29@Destroyed@3:
	pop	edi
	pop	esi
$LN17@Destroyed@3:

; 462  : 		}
; 463  : 	}

	add	esp, 520				; 00000208H
	ret	4
?Destroyed@SEye_Player_Update@@EAEXPAE@Z ENDP		; SEye_Player_Update::Destroyed
; Function compile flags: /Ogtpy
_TEXT	ENDS
;	COMDAT ?Timer_Expired@SEye_Player_Update@@EAEXPAEH@Z
_TEXT	SEGMENT
tv458 = -556						; size = 4
_HP$111842 = -556					; size = 4
_Y$111841 = -552					; size = 4
_X$111840 = -548					; size = 4
_ObjectID$111843 = -544					; size = 4
_pos$111838 = -540					; size = 12
_PlayerUpdate$111844 = -528				; size = 514
$T157954 = -12						; size = 12
_o$ = 8							; size = 4
_number$ = 12						; size = 4
?Timer_Expired@SEye_Player_Update@@EAEXPAEH@Z PROC	; SEye_Player_Update::Timer_Expired, COMDAT
; _this$ = ecx

; 428  : 	{

	sub	esp, 556				; 0000022cH

; 429  : 		if(number == 2)

	cmp	DWORD PTR _number$[esp+552], 2
	push	edi
	mov	edi, ecx
	jne	SHORT $LN2@Timer_Expi@4

; 430  : 		{
; 431  : 			CanSendDamage = 1;

	mov	BYTE PTR [edi+28], 1
	pop	edi

; 452  : 	}

	add	esp, 556				; 0000022cH
	ret	8
$LN2@Timer_Expi@4:

; 432  : 			return;
; 433  : 		}
; 434  : 		if(t_Client)

	cmp	DWORD PTR ?t_Client@@3PAVTCPSocket@@A, 0 ; t_Client
	push	esi
	mov	esi, DWORD PTR _o$[esp+560]
	je	$LN1@Timer_Expi@4

; 435  : 		{
; 436  : 			Vector3 pos = Commands->Get_Position(o);

	mov	ecx, DWORD PTR ?Commands@@3PAUScriptCommands@@A ; Commands
	mov	edx, DWORD PTR [ecx+64]
	push	ebx
	lea	eax, DWORD PTR $T157954[esp+568]
	push	esi
	push	eax
	call	edx
	mov	ecx, DWORD PTR [eax]
	mov	edx, DWORD PTR [eax+4]
	mov	eax, DWORD PTR [eax+8]
	mov	DWORD PTR _pos$111838[esp+576], ecx

; 437  : 			float X = pos.X;

	fld	DWORD PTR _pos$111838[esp+576]

; 438  : 			float Y = pos.Y;
; 439  : 			int HP = int(Commands->Get_Health(o)+Commands->Get_Shield_Strength(o));

	mov	ecx, DWORD PTR ?Commands@@3PAUScriptCommands@@A ; Commands
	fstp	DWORD PTR _X$111840[esp+576]
	mov	DWORD PTR _pos$111838[esp+580], edx
	fld	DWORD PTR _pos$111838[esp+580]
	mov	edx, DWORD PTR [ecx+232]
	fstp	DWORD PTR _Y$111841[esp+576]
	push	esi
	mov	DWORD PTR _pos$111838[esp+588], eax
	call	edx
	fstp	DWORD PTR tv458[esp+580]
	mov	eax, DWORD PTR ?Commands@@3PAUScriptCommands@@A ; Commands
	mov	ecx, DWORD PTR [eax+220]
	push	esi
	call	ecx
	fadd	DWORD PTR tv458[esp+584]
	call	__ftol2_sse

; 440  : 			int ObjectID = Commands->Get_ID(o);

	mov	edx, DWORD PTR ?Commands@@3PAUScriptCommands@@A ; Commands
	mov	ebx, eax
	mov	eax, DWORD PTR [edx+108]
	push	esi
	mov	DWORD PTR _HP$111842[esp+588], ebx
	call	eax

; 441  : 
; 442  : 			SEye::SEyePacket PlayerUpdate;

	push	514					; 00000202H
	lea	ecx, DWORD PTR _PlayerUpdate$111844[esp+592]
	push	0
	push	ecx
	mov	DWORD PTR _ObjectID$111843[esp+600], eax
	call	_memset

; 443  : 			PlayerUpdate.SetType(5);
; 444  : 			PlayerUpdate.Pack((char *)&HP, 4);

	movzx	edx, BYTE PTR _PlayerUpdate$111844[esp+600]
	movzx	eax, BYTE PTR _HP$111842[esp+603]
	mov	BYTE PTR _PlayerUpdate$111844[esp+601], 5
	mov	BYTE PTR _PlayerUpdate$111844[esp+edx+602], al
	mov	al, BYTE PTR _PlayerUpdate$111844[esp+600]
	movzx	edx, BYTE PTR _HP$111842[esp+602]
	inc	al
	mov	BYTE PTR _PlayerUpdate$111844[esp+600], al
	movzx	ecx, al
	mov	BYTE PTR _PlayerUpdate$111844[esp+ecx+602], dl
	mov	al, BYTE PTR _PlayerUpdate$111844[esp+600]
	inc	al
	mov	BYTE PTR _PlayerUpdate$111844[esp+600], al
	movzx	eax, al
	mov	BYTE PTR _PlayerUpdate$111844[esp+eax+602], bh
	mov	al, BYTE PTR _PlayerUpdate$111844[esp+600]
	inc	al
	mov	BYTE PTR _PlayerUpdate$111844[esp+600], al
	movzx	ecx, al
	mov	BYTE PTR _PlayerUpdate$111844[esp+ecx+602], bl
	mov	al, BYTE PTR _PlayerUpdate$111844[esp+600]
	inc	al
	mov	BYTE PTR _PlayerUpdate$111844[esp+600], al

; 445  : 			PlayerUpdate.Pack((char *)&Y, 4);

	movzx	edx, al
	movzx	eax, BYTE PTR _Y$111841[esp+603]
	mov	BYTE PTR _PlayerUpdate$111844[esp+edx+602], al
	mov	al, BYTE PTR _PlayerUpdate$111844[esp+600]
	movzx	edx, BYTE PTR _Y$111841[esp+602]
	inc	al
	movzx	ecx, al
	mov	BYTE PTR _PlayerUpdate$111844[esp+600], al
	mov	BYTE PTR _PlayerUpdate$111844[esp+ecx+602], dl
	mov	al, BYTE PTR _PlayerUpdate$111844[esp+600]
	movzx	ecx, BYTE PTR _Y$111841[esp+601]
	inc	al
	mov	BYTE PTR _PlayerUpdate$111844[esp+600], al
	movzx	eax, al
	mov	BYTE PTR _PlayerUpdate$111844[esp+eax+602], cl
	mov	al, BYTE PTR _PlayerUpdate$111844[esp+600]
	add	esp, 32					; 00000020H
	inc	al
	mov	BYTE PTR _PlayerUpdate$111844[esp+568], al
	movzx	edx, al
	movzx	eax, BYTE PTR _Y$111841[esp+568]
	mov	BYTE PTR _PlayerUpdate$111844[esp+edx+570], al
	mov	al, BYTE PTR _PlayerUpdate$111844[esp+568]

; 446  : 			PlayerUpdate.Pack((char *)&X, 4);

	movzx	edx, BYTE PTR _X$111840[esp+571]
	inc	al
	mov	BYTE PTR _PlayerUpdate$111844[esp+568], al
	movzx	ecx, al
	mov	BYTE PTR _PlayerUpdate$111844[esp+ecx+570], dl
	mov	al, BYTE PTR _PlayerUpdate$111844[esp+568]
	movzx	ecx, BYTE PTR _X$111840[esp+570]
	inc	al
	mov	BYTE PTR _PlayerUpdate$111844[esp+568], al
	movzx	eax, al
	mov	BYTE PTR _PlayerUpdate$111844[esp+eax+570], cl
	mov	al, BYTE PTR _PlayerUpdate$111844[esp+568]
	inc	al
	mov	BYTE PTR _PlayerUpdate$111844[esp+568], al
	movzx	edx, al
	movzx	eax, BYTE PTR _X$111840[esp+569]
	mov	BYTE PTR _PlayerUpdate$111844[esp+edx+570], al
	mov	al, BYTE PTR _PlayerUpdate$111844[esp+568]
	movzx	edx, BYTE PTR _X$111840[esp+568]
	inc	al
	mov	BYTE PTR _PlayerUpdate$111844[esp+568], al
	movzx	ecx, al
	mov	BYTE PTR _PlayerUpdate$111844[esp+ecx+570], dl
	mov	al, BYTE PTR _PlayerUpdate$111844[esp+568]

; 447  : 			PlayerUpdate.Pack((char *)&ObjectID, 4);

	movzx	ecx, BYTE PTR _ObjectID$111843[esp+571]
	inc	al
	mov	BYTE PTR _PlayerUpdate$111844[esp+568], al
	movzx	eax, al
	mov	BYTE PTR _PlayerUpdate$111844[esp+eax+570], cl
	mov	al, BYTE PTR _PlayerUpdate$111844[esp+568]
	inc	al
	mov	BYTE PTR _PlayerUpdate$111844[esp+568], al
	movzx	edx, al
	movzx	eax, BYTE PTR _ObjectID$111843[esp+570]
	mov	BYTE PTR _PlayerUpdate$111844[esp+edx+570], al
	mov	al, BYTE PTR _PlayerUpdate$111844[esp+568]
	inc	al
	mov	BYTE PTR _PlayerUpdate$111844[esp+568], al
	movzx	ecx, al
	mov	eax, DWORD PTR _ObjectID$111843[esp+568]
	mov	BYTE PTR _PlayerUpdate$111844[esp+ecx+570], ah
	mov	cl, BYTE PTR _PlayerUpdate$111844[esp+568]
	inc	cl
	movzx	edx, cl
	mov	BYTE PTR _PlayerUpdate$111844[esp+568], cl
	mov	BYTE PTR _PlayerUpdate$111844[esp+edx+570], al
	mov	al, BYTE PTR _PlayerUpdate$111844[esp+568]
	inc	al
	mov	BYTE PTR _PlayerUpdate$111844[esp+568], al

; 448  : 
; 449  : 			t_Client->SendData((const char *)&PlayerUpdate, PlayerUpdate.GetSize());

	movzx	eax, al
	add	eax, 8
	push	eax
	lea	ecx, DWORD PTR _PlayerUpdate$111844[esp+572]
	push	ecx
	mov	ecx, DWORD PTR ?t_Client@@3PAVTCPSocket@@A ; t_Client
	call	?SendData@TCPSocket@@QAE_NPBDH@Z	; TCPSocket::SendData
	pop	ebx
$LN1@Timer_Expi@4:

; 450  : 		}
; 451  : 		Commands->Start_Timer(o, this, 1.0, 1);

	fld1
	mov	edx, DWORD PTR ?Commands@@3PAUScriptCommands@@A ; Commands
	mov	eax, DWORD PTR [edx+128]
	push	1
	push	ecx
	fstp	DWORD PTR [esp]
	push	edi
	push	esi
	call	eax
	add	esp, 16					; 00000010H
	pop	esi
	pop	edi

; 452  : 	}

	add	esp, 556				; 0000022cH
	ret	8
?Timer_Expired@SEye_Player_Update@@EAEXPAEH@Z ENDP	; SEye_Player_Update::Timer_Expired
_TEXT	ENDS
PUBLIC	?PacketReceived@@YAXAAVSEyePacket@SEye@@@Z	; PacketReceived
; Function compile flags: /Ogtpy
;	COMDAT ?PacketReceived@@YAXAAVSEyePacket@SEye@@@Z
_TEXT	SEGMENT
_ObjectID$111513 = -528					; size = 4
_HintID$111514 = -524					; size = 4
_Bounce$111491 = -520					; size = 514
?PacketReceived@@YAXAAVSEyePacket@SEye@@@Z PROC		; PacketReceived, COMDAT

; 149  : {

	push	ebp
	mov	ebp, esp
	and	esp, -8					; fffffff8H
	sub	esp, 532				; 00000214H

; 150  : 	//PingPong = clock();
; 151  : 	if(Packet.GetType() == 0)

	cmp	BYTE PTR ?sp_tempPacket@SEye_SOCKET@@0VSEyePacket@SEye@@A+1, 0
	push	ebx
	push	esi
	push	edi
	jne	SHORT $LN4@PacketRece

; 152  : 	{
; 153  : 		bool From;
; 154  : 		unsigned int Data;
; 155  : 
; 156  : 		SEye::SEyePacket Bounce;
; 157  : 		memcpy((void *)&Bounce, (void *)&Packet, sizeof(SEye::SEyePacket));
; 158  : 		
; 159  : 		Packet.Unpack<bool>(From);

	mov	al, BYTE PTR ?sp_tempPacket@SEye_SOCKET@@0VSEyePacket@SEye@@A
	mov	ecx, 128				; 00000080H
	mov	esi, OFFSET ?sp_tempPacket@SEye_SOCKET@@0VSEyePacket@SEye@@A ; SEye_SOCKET::sp_tempPacket
	lea	edi, DWORD PTR _Bounce$111491[esp+544]
	rep movsd
	movzx	ecx, al
	dec	al

; 160  : 		Packet.Unpack<unsigned int>(Data);

	dec	al
	dec	al
	movsw
	mov	cl, BYTE PTR ?sp_tempPacket@SEye_SOCKET@@0VSEyePacket@SEye@@A[ecx+1]
	dec	al
	dec	al
	mov	BYTE PTR ?sp_tempPacket@SEye_SOCKET@@0VSEyePacket@SEye@@A, al

; 161  : 
; 162  : 		if(From) //server

	test	cl, cl
	je	SHORT $LN5@PacketRece

; 163  : 		{
; 164  : 			PingPong = clock();

	call	_clock
	mov	DWORD PTR ?PingPong@@3JA, eax		; PingPong

; 165  : 			PingData = 0;

	mov	DWORD PTR ?PingData@@3IA, 0		; PingData

; 166  : 		}
; 167  : 		else //client

	jmp	SHORT $LN4@PacketRece
$LN5@PacketRece:

; 168  : 		{
; 169  : 			t_Client->SendData((const char *)&Bounce, Bounce.GetSize());

	movzx	edx, BYTE PTR _Bounce$111491[esp+544]
	mov	ecx, DWORD PTR ?t_Client@@3PAVTCPSocket@@A ; t_Client
	add	edx, 8
	push	edx
	lea	eax, DWORD PTR _Bounce$111491[esp+548]
	push	eax
	call	?SendData@TCPSocket@@QAE_NPBDH@Z	; TCPSocket::SendData
$LN4@PacketRece:

; 170  : 		}
; 171  : 	}
; 172  : 
; 173  : 	if(Packet.GetType() == 17)

	cmp	BYTE PTR ?sp_tempPacket@SEye_SOCKET@@0VSEyePacket@SEye@@A+1, 17 ; 00000011H
	jne	$LN75@PacketRece

; 174  : 	{
; 175  : 		unsigned int ObjectID;
; 176  : 		unsigned int HintID;
; 177  : 		Packet.Unpack<unsigned int>(ObjectID);

	mov	al, BYTE PTR ?sp_tempPacket@SEye_SOCKET@@0VSEyePacket@SEye@@A
	movzx	ecx, al
	movzx	edx, BYTE PTR ?sp_tempPacket@SEye_SOCKET@@0VSEyePacket@SEye@@A[ecx+1]
	dec	al
	mov	BYTE PTR ?sp_tempPacket@SEye_SOCKET@@0VSEyePacket@SEye@@A, al
	movzx	ecx, al
	dec	al
	mov	BYTE PTR _ObjectID$111513[esp+544], dl
	movzx	edx, BYTE PTR ?sp_tempPacket@SEye_SOCKET@@0VSEyePacket@SEye@@A[ecx+1]
	mov	BYTE PTR ?sp_tempPacket@SEye_SOCKET@@0VSEyePacket@SEye@@A, al
	movzx	ecx, al
	dec	al
	mov	BYTE PTR _ObjectID$111513[esp+545], dl
	movzx	edx, BYTE PTR ?sp_tempPacket@SEye_SOCKET@@0VSEyePacket@SEye@@A[ecx+1]
	mov	BYTE PTR ?sp_tempPacket@SEye_SOCKET@@0VSEyePacket@SEye@@A, al
	movzx	ecx, al
	dec	al
	mov	BYTE PTR _ObjectID$111513[esp+546], dl
	movzx	edx, BYTE PTR ?sp_tempPacket@SEye_SOCKET@@0VSEyePacket@SEye@@A[ecx+1]
	mov	BYTE PTR ?sp_tempPacket@SEye_SOCKET@@0VSEyePacket@SEye@@A, al

; 178  : 		Packet.Unpack<unsigned int>(HintID);

	movzx	ecx, al
	mov	bl, BYTE PTR ?sp_tempPacket@SEye_SOCKET@@0VSEyePacket@SEye@@A[ecx+1]
	dec	al
	mov	BYTE PTR ?sp_tempPacket@SEye_SOCKET@@0VSEyePacket@SEye@@A, al
	mov	BYTE PTR _ObjectID$111513[esp+547], dl
	movzx	edx, al
	movzx	ecx, BYTE PTR ?sp_tempPacket@SEye_SOCKET@@0VSEyePacket@SEye@@A[edx+1]
	dec	al
	mov	BYTE PTR ?sp_tempPacket@SEye_SOCKET@@0VSEyePacket@SEye@@A, al
	movzx	edx, al
	dec	al
	mov	BYTE PTR _HintID$111514[esp+545], cl
	movzx	ecx, BYTE PTR ?sp_tempPacket@SEye_SOCKET@@0VSEyePacket@SEye@@A[edx+1]
	movzx	edx, al
	mov	BYTE PTR ?sp_tempPacket@SEye_SOCKET@@0VSEyePacket@SEye@@A, al
	mov	BYTE PTR _HintID$111514[esp+546], cl
	movzx	ecx, BYTE PTR ?sp_tempPacket@SEye_SOCKET@@0VSEyePacket@SEye@@A[edx+1]

; 179  : 
; 180  : 		if(!Commands->Find_Object(ObjectID))

	mov	edx, DWORD PTR _ObjectID$111513[esp+544]
	dec	al
	mov	BYTE PTR ?sp_tempPacket@SEye_SOCKET@@0VSEyePacket@SEye@@A, al
	mov	eax, DWORD PTR ?Commands@@3PAUScriptCommands@@A ; Commands
	mov	BYTE PTR _HintID$111514[esp+547], cl
	mov	ecx, DWORD PTR [eax+96]
	push	edx
	call	ecx
	add	esp, 4
	test	eax, eax
	jne	$LN2@PacketRece

; 181  : 		{
; 182  : 			Packet.Pack<unsigned int>(HintID);

	movzx	edx, BYTE PTR ?sp_tempPacket@SEye_SOCKET@@0VSEyePacket@SEye@@A
	movzx	eax, BYTE PTR _HintID$111514[esp+547]
	mov	BYTE PTR ?sp_tempPacket@SEye_SOCKET@@0VSEyePacket@SEye@@A[edx+2], al
	mov	al, BYTE PTR ?sp_tempPacket@SEye_SOCKET@@0VSEyePacket@SEye@@A
	mov	dl, BYTE PTR _HintID$111514[esp+546]
	inc	al
	mov	BYTE PTR ?sp_tempPacket@SEye_SOCKET@@0VSEyePacket@SEye@@A, al
	movzx	ecx, al
	mov	BYTE PTR ?sp_tempPacket@SEye_SOCKET@@0VSEyePacket@SEye@@A[ecx+2], dl
	mov	al, BYTE PTR ?sp_tempPacket@SEye_SOCKET@@0VSEyePacket@SEye@@A
	mov	cl, BYTE PTR _HintID$111514[esp+545]
	inc	al
	mov	BYTE PTR ?sp_tempPacket@SEye_SOCKET@@0VSEyePacket@SEye@@A, al
	movzx	eax, al
	mov	BYTE PTR ?sp_tempPacket@SEye_SOCKET@@0VSEyePacket@SEye@@A[eax+2], cl
	mov	al, BYTE PTR ?sp_tempPacket@SEye_SOCKET@@0VSEyePacket@SEye@@A
	inc	al
	mov	BYTE PTR ?sp_tempPacket@SEye_SOCKET@@0VSEyePacket@SEye@@A, al
	movzx	edx, al
	mov	BYTE PTR ?sp_tempPacket@SEye_SOCKET@@0VSEyePacket@SEye@@A[edx+2], bl
	mov	al, BYTE PTR ?sp_tempPacket@SEye_SOCKET@@0VSEyePacket@SEye@@A
	inc	al
	mov	BYTE PTR ?sp_tempPacket@SEye_SOCKET@@0VSEyePacket@SEye@@A, al

; 183  : 			Packet.Pack<unsigned int>(0);

	movzx	eax, al
	mov	BYTE PTR ?sp_tempPacket@SEye_SOCKET@@0VSEyePacket@SEye@@A[eax+2], 0
	mov	al, BYTE PTR ?sp_tempPacket@SEye_SOCKET@@0VSEyePacket@SEye@@A
	inc	al
	mov	BYTE PTR ?sp_tempPacket@SEye_SOCKET@@0VSEyePacket@SEye@@A, al
	movzx	ecx, al
	mov	BYTE PTR ?sp_tempPacket@SEye_SOCKET@@0VSEyePacket@SEye@@A[ecx+2], 0
	mov	al, BYTE PTR ?sp_tempPacket@SEye_SOCKET@@0VSEyePacket@SEye@@A
	inc	al
	movzx	edx, al
	mov	BYTE PTR ?sp_tempPacket@SEye_SOCKET@@0VSEyePacket@SEye@@A, al
	mov	BYTE PTR ?sp_tempPacket@SEye_SOCKET@@0VSEyePacket@SEye@@A[edx+2], 0
	mov	al, BYTE PTR ?sp_tempPacket@SEye_SOCKET@@0VSEyePacket@SEye@@A
	inc	al
	mov	BYTE PTR ?sp_tempPacket@SEye_SOCKET@@0VSEyePacket@SEye@@A, al
	movzx	eax, al
	mov	BYTE PTR ?sp_tempPacket@SEye_SOCKET@@0VSEyePacket@SEye@@A[eax+2], 0

; 184  : 		}
; 185  : 		else

	jmp	$LN126@PacketRece
$LN2@PacketRece:

; 186  : 		{
; 187  : 			Packet.Pack<unsigned int>(HintID);

	movzx	ecx, BYTE PTR ?sp_tempPacket@SEye_SOCKET@@0VSEyePacket@SEye@@A
	movzx	edx, BYTE PTR _HintID$111514[esp+547]
	mov	BYTE PTR ?sp_tempPacket@SEye_SOCKET@@0VSEyePacket@SEye@@A[ecx+2], dl
	mov	al, BYTE PTR ?sp_tempPacket@SEye_SOCKET@@0VSEyePacket@SEye@@A
	movzx	ecx, BYTE PTR _HintID$111514[esp+546]
	inc	al
	mov	BYTE PTR ?sp_tempPacket@SEye_SOCKET@@0VSEyePacket@SEye@@A, al
	movzx	eax, al
	mov	BYTE PTR ?sp_tempPacket@SEye_SOCKET@@0VSEyePacket@SEye@@A[eax+2], cl
	mov	al, BYTE PTR ?sp_tempPacket@SEye_SOCKET@@0VSEyePacket@SEye@@A
	inc	al
	mov	BYTE PTR ?sp_tempPacket@SEye_SOCKET@@0VSEyePacket@SEye@@A, al
	movzx	edx, al
	movzx	eax, BYTE PTR _HintID$111514[esp+545]
	mov	BYTE PTR ?sp_tempPacket@SEye_SOCKET@@0VSEyePacket@SEye@@A[edx+2], al
	mov	al, BYTE PTR ?sp_tempPacket@SEye_SOCKET@@0VSEyePacket@SEye@@A
	inc	al
	mov	BYTE PTR ?sp_tempPacket@SEye_SOCKET@@0VSEyePacket@SEye@@A, al
	movzx	ecx, al
	mov	BYTE PTR ?sp_tempPacket@SEye_SOCKET@@0VSEyePacket@SEye@@A[ecx+2], bl
	mov	al, BYTE PTR ?sp_tempPacket@SEye_SOCKET@@0VSEyePacket@SEye@@A
	inc	al
	mov	BYTE PTR ?sp_tempPacket@SEye_SOCKET@@0VSEyePacket@SEye@@A, al

; 188  : 			Packet.Pack<unsigned int>(ObjectID);

	movzx	edx, al
	movzx	eax, BYTE PTR _ObjectID$111513[esp+547]
	mov	BYTE PTR ?sp_tempPacket@SEye_SOCKET@@0VSEyePacket@SEye@@A[edx+2], al
	mov	al, BYTE PTR ?sp_tempPacket@SEye_SOCKET@@0VSEyePacket@SEye@@A
	movzx	edx, BYTE PTR _ObjectID$111513[esp+546]
	inc	al
	movzx	ecx, al
	mov	BYTE PTR ?sp_tempPacket@SEye_SOCKET@@0VSEyePacket@SEye@@A, al
	mov	BYTE PTR ?sp_tempPacket@SEye_SOCKET@@0VSEyePacket@SEye@@A[ecx+2], dl
	mov	al, BYTE PTR ?sp_tempPacket@SEye_SOCKET@@0VSEyePacket@SEye@@A
	movzx	ecx, BYTE PTR _ObjectID$111513[esp+545]
	inc	al
	mov	BYTE PTR ?sp_tempPacket@SEye_SOCKET@@0VSEyePacket@SEye@@A, al
	movzx	eax, al
	mov	BYTE PTR ?sp_tempPacket@SEye_SOCKET@@0VSEyePacket@SEye@@A[eax+2], cl
	mov	al, BYTE PTR ?sp_tempPacket@SEye_SOCKET@@0VSEyePacket@SEye@@A
	inc	al
	mov	BYTE PTR ?sp_tempPacket@SEye_SOCKET@@0VSEyePacket@SEye@@A, al
	movzx	edx, al
	movzx	eax, BYTE PTR _ObjectID$111513[esp+544]
	mov	BYTE PTR ?sp_tempPacket@SEye_SOCKET@@0VSEyePacket@SEye@@A[edx+2], al
$LN126@PacketRece:
	inc	BYTE PTR ?sp_tempPacket@SEye_SOCKET@@0VSEyePacket@SEye@@A

; 189  : 		}
; 190  : 		t_Client->SendData((const char *)&Packet, Packet.GetSize());

	movzx	esi, BYTE PTR ?sp_tempPacket@SEye_SOCKET@@0VSEyePacket@SEye@@A
	mov	eax, DWORD PTR ?t_Client@@3PAVTCPSocket@@A ; t_Client
	add	esi, 8
	mov	edi, eax
	call	?Is_Connected@TCPSocket@@QAE_NXZ	; TCPSocket::Is_Connected
	test	al, al
	je	SHORT $LN75@PacketRece
	mov	ecx, DWORD PTR [edi]
	push	0
	push	esi
	push	OFFSET ?sp_tempPacket@SEye_SOCKET@@0VSEyePacket@SEye@@A ; SEye_SOCKET::sp_tempPacket
	push	ecx
	call	DWORD PTR __imp__send@16
	cmp	eax, esi
	je	SHORT $LN75@PacketRece
	cmp	eax, -1
	je	SHORT $LN75@PacketRece
	sub	esi, eax
	push	esi
	lea	edx, DWORD PTR ?sp_tempPacket@SEye_SOCKET@@0VSEyePacket@SEye@@A[eax]
	push	edx
	mov	ecx, edi
	call	?SendData@TCPSocket@@QAE_NPBDH@Z	; TCPSocket::SendData
$LN75@PacketRece:

; 191  : 	}
; 192  : }

	pop	edi
	pop	esi
	pop	ebx
	mov	esp, ebp
	pop	ebp
	ret	0
?PacketReceived@@YAXAAVSEyePacket@SEye@@@Z ENDP		; PacketReceived
_TEXT	ENDS
PUBLIC	?Load@SEye_Server@@SAXXZ			; SEye_Server::Load
; Function compile flags: /Ogtpy
;	COMDAT ?Load@SEye_Server@@SAXXZ
_TEXT	SEGMENT
_Path$ = -524						; size = 260
_IP_ADDR$ = -260					; size = 256
?Load@SEye_Server@@SAXXZ PROC				; SEye_Server::Load, COMDAT

; 90   : {

	sub	esp, 528				; 00000210H
	push	esi

; 91   : 	char IP_ADDR[256];
; 92   : 	char Path[MAX_PATH];
; 93   : 	GetModulePath(NULL, Path, MAX_PATH);

	push	260					; 00000104H
	lea	eax, DWORD PTR _Path$[esp+536]
	push	eax
	push	0
	call	DWORD PTR __imp__GetModuleFileNameA@12
	test	eax, eax
	je	SHORT $LN9@Load@2
	mov	cl, 92					; 0000005cH
	npad	1
$LL11@Load@2:
	cmp	BYTE PTR _Path$[esp+eax+532], cl
	je	SHORT $LN10@Load@2
	sub	eax, 1
	jne	SHORT $LL11@Load@2
	jmp	SHORT $LN9@Load@2
$LN10@Load@2:
	test	eax, eax
	je	SHORT $LN9@Load@2
	mov	BYTE PTR _Path$[esp+eax+532], 0
$LN9@Load@2:

; 94   : 	sprintf(Path, "%s\\SEye.ini", Path);

	lea	ecx, DWORD PTR _Path$[esp+532]
	push	ecx
	mov	edx, ecx
	push	OFFSET ??_C@_0M@FJCGCEP@?$CFs?2SEye?4ini?$AA@
	push	edx
	call	_sprintf

; 95   : 
; 96   : 	INIClass *ini = Get_INI(Path);

	lea	eax, DWORD PTR _Path$[esp+544]
	add	esp, 12					; 0000000cH
	push	eax
	call	?Get_INI@@YAPAVINIClass@@PBD@Z		; Get_INI
	add	esp, 4

; 97   : 	if(!ini)

	test	eax, eax
	jne	SHORT $LN3@Load@2

; 98   : 	{
; 99   : 		printf("Failed to load SEye Server, ini file not found.\n");

	push	OFFSET ??_C@_0DB@HLGPIOGI@Failed?5to?5load?5SEye?5Server?0?5ini?5@
	call	_printf
	add	esp, 4

; 113  : 	}
; 114  : }

	pop	esi
	add	esp, 528				; 00000210H
	ret	0
$LN3@Load@2:

; 100  : 		return;
; 101  : 	}
; 102  : 
; 103  : 	ini->Get_String("SEye", "Bind_IP", "127.0.0.1", IP_ADDR, 256);

	push	256					; 00000100H
	lea	ecx, DWORD PTR _IP_ADDR$[esp+536]
	push	ecx
	push	OFFSET ??_C@_09PFCHIMEP@127?40?40?41?$AA@
	push	OFFSET ??_C@_07OHJJKHHI@Bind_IP?$AA@
	push	OFFSET ??_C@_04KJAONJML@SEye?$AA@
	mov	ecx, eax
	call	?Get_String@INIClass@@QAEXPBD00PADH@Z	; INIClass::Get_String

; 104  : 
; 105  : 	t_Sock = new TCPSocket();

	cmp	DWORD PTR ?RenNew@@3P6APAXK@ZA, 0	; RenNew
	jne	SHORT $LN15@Load@2
	call	?InitEngine@@YAXXZ			; InitEngine
$LN15@Load@2:
	push	272					; 00000110H
	call	DWORD PTR ?RenNew@@3P6APAXK@ZA		; RenNew
	mov	esi, eax
	add	esp, 4
	test	esi, esi
	je	SHORT $LN6@Load@2
	push	272					; 00000110H
	push	0
	push	esi
	call	_memset
	add	esp, 12					; 0000000cH
	jmp	SHORT $LN7@Load@2
$LN6@Load@2:
	xor	esi, esi
$LN7@Load@2:

; 106  : 	if(!t_Sock->Server(IP_ADDR, 322, 3))

	lea	edx, DWORD PTR _IP_ADDR$[esp+532]
	push	edx
	mov	DWORD PTR ?t_Sock@@3PAVTCPSocket@@A, esi ; t_Sock
	call	?Server@TCPSocket@@QAE_NPBDHH@Z		; TCPSocket::Server
	test	al, al
	jne	SHORT $LN2@Load@2

; 107  : 	{
; 108  : 		printf("Failed to bind to IP: %s\n", IP_ADDR);

	lea	eax, DWORD PTR _IP_ADDR$[esp+532]
	push	eax
	push	OFFSET ??_C@_0BK@PIFHHBJL@Failed?5to?5bind?5to?5IP?3?5?$CFs?6?$AA@

; 109  : 	}
; 110  : 	else
; 111  : 	{
; 112  : 		printf("SEye started successfuly on IP: %s\n", IP_ADDR);

	call	_printf
	add	esp, 8

; 113  : 	}
; 114  : }

	pop	esi
	add	esp, 528				; 00000210H
	ret	0
$LN2@Load@2:

; 109  : 	}
; 110  : 	else
; 111  : 	{
; 112  : 		printf("SEye started successfuly on IP: %s\n", IP_ADDR);

	lea	ecx, DWORD PTR _IP_ADDR$[esp+532]
	push	ecx
	push	OFFSET ??_C@_0CE@HIAMLLPN@SEye?5started?5successfuly?5on?5IP?3?5@
	call	_printf
	add	esp, 8

; 113  : 	}
; 114  : }

	pop	esi
	add	esp, 528				; 00000210H
	ret	0
?Load@SEye_Server@@SAXXZ ENDP				; SEye_Server::Load
; Function compile flags: /Ogtpy
;	COMDAT ??_G?$ScriptRegistrant@VSEye_SOCKET@@@@UAEPAXI@Z
_TEXT	SEGMENT
___flags$ = 8						; size = 4
??_G?$ScriptRegistrant@VSEye_SOCKET@@@@UAEPAXI@Z PROC	; ScriptRegistrant<SEye_SOCKET>::`scalar deleting destructor', COMDAT
; _this$ = ecx
	push	esi
	mov	esi, ecx
	call	??1ScriptFactory@@UAE@XZ		; ScriptFactory::~ScriptFactory
	test	BYTE PTR ___flags$[esp], 1
	je	SHORT $LN8@scalar@18
	push	esi
	call	DWORD PTR ?RenDelete@@3P6AXPAX@ZA	; RenDelete
	add	esp, 4
$LN8@scalar@18:
	mov	eax, esi
	pop	esi
	ret	4
??_G?$ScriptRegistrant@VSEye_SOCKET@@@@UAEPAXI@Z ENDP	; ScriptRegistrant<SEye_SOCKET>::`scalar deleting destructor'
; Function compile flags: /Ogtpy
_TEXT	ENDS
;	COMDAT ??_G?$ScriptRegistrant@VSEye_Vehicle_Update@@@@UAEPAXI@Z
_TEXT	SEGMENT
___flags$ = 8						; size = 4
??_G?$ScriptRegistrant@VSEye_Vehicle_Update@@@@UAEPAXI@Z PROC ; ScriptRegistrant<SEye_Vehicle_Update>::`scalar deleting destructor', COMDAT
; _this$ = ecx
	push	esi
	mov	esi, ecx
	call	??1ScriptFactory@@UAE@XZ		; ScriptFactory::~ScriptFactory
	test	BYTE PTR ___flags$[esp], 1
	je	SHORT $LN8@scalar@19
	push	esi
	call	DWORD PTR ?RenDelete@@3P6AXPAX@ZA	; RenDelete
	add	esp, 4
$LN8@scalar@19:
	mov	eax, esi
	pop	esi
	ret	4
??_G?$ScriptRegistrant@VSEye_Vehicle_Update@@@@UAEPAXI@Z ENDP ; ScriptRegistrant<SEye_Vehicle_Update>::`scalar deleting destructor'
; Function compile flags: /Ogtpy
_TEXT	ENDS
;	COMDAT ??_G?$ScriptRegistrant@VSEye_Player_Update@@@@UAEPAXI@Z
_TEXT	SEGMENT
___flags$ = 8						; size = 4
??_G?$ScriptRegistrant@VSEye_Player_Update@@@@UAEPAXI@Z PROC ; ScriptRegistrant<SEye_Player_Update>::`scalar deleting destructor', COMDAT
; _this$ = ecx
	push	esi
	mov	esi, ecx
	call	??1ScriptFactory@@UAE@XZ		; ScriptFactory::~ScriptFactory
	test	BYTE PTR ___flags$[esp], 1
	je	SHORT $LN8@scalar@20
	push	esi
	call	DWORD PTR ?RenDelete@@3P6AXPAX@ZA	; RenDelete
	add	esp, 4
$LN8@scalar@20:
	mov	eax, esi
	pop	esi
	ret	4
??_G?$ScriptRegistrant@VSEye_Player_Update@@@@UAEPAXI@Z ENDP ; ScriptRegistrant<SEye_Player_Update>::`scalar deleting destructor'
; Function compile flags: /Ogtpy
_TEXT	ENDS
;	COMDAT ??_G?$ScriptRegistrant@VSEye_C4_Update@@@@UAEPAXI@Z
_TEXT	SEGMENT
___flags$ = 8						; size = 4
??_G?$ScriptRegistrant@VSEye_C4_Update@@@@UAEPAXI@Z PROC ; ScriptRegistrant<SEye_C4_Update>::`scalar deleting destructor', COMDAT
; _this$ = ecx
	push	esi
	mov	esi, ecx
	call	??1ScriptFactory@@UAE@XZ		; ScriptFactory::~ScriptFactory
	test	BYTE PTR ___flags$[esp], 1
	je	SHORT $LN8@scalar@21
	push	esi
	call	DWORD PTR ?RenDelete@@3P6AXPAX@ZA	; RenDelete
	add	esp, 4
$LN8@scalar@21:
	mov	eax, esi
	pop	esi
	ret	4
??_G?$ScriptRegistrant@VSEye_C4_Update@@@@UAEPAXI@Z ENDP ; ScriptRegistrant<SEye_C4_Update>::`scalar deleting destructor'
; Function compile flags: /Ogtpy
_TEXT	ENDS
;	COMDAT ??_G?$ScriptRegistrant@VSEye_Building_Update@@@@UAEPAXI@Z
_TEXT	SEGMENT
___flags$ = 8						; size = 4
??_G?$ScriptRegistrant@VSEye_Building_Update@@@@UAEPAXI@Z PROC ; ScriptRegistrant<SEye_Building_Update>::`scalar deleting destructor', COMDAT
; _this$ = ecx
	push	esi
	mov	esi, ecx
	call	??1ScriptFactory@@UAE@XZ		; ScriptFactory::~ScriptFactory
	test	BYTE PTR ___flags$[esp], 1
	je	SHORT $LN8@scalar@22
	push	esi
	call	DWORD PTR ?RenDelete@@3P6AXPAX@ZA	; RenDelete
	add	esp, 4
$LN8@scalar@22:
	mov	eax, esi
	pop	esi
	ret	4
??_G?$ScriptRegistrant@VSEye_Building_Update@@@@UAEPAXI@Z ENDP ; ScriptRegistrant<SEye_Building_Update>::`scalar deleting destructor'
_TEXT	ENDS
PUBLIC	?RecviveData@TCPSocket@@QAE_NPADH@Z		; TCPSocket::RecviveData
; Function compile flags: /Ogtpy
;	COMDAT ?RecviveData@TCPSocket@@QAE_NPADH@Z
_TEXT	SEGMENT
_Data$ = 8						; size = 4
?RecviveData@TCPSocket@@QAE_NPADH@Z PROC		; TCPSocket::RecviveData, COMDAT

; 1096 : {

	push	ecx
	push	esi
	mov	esi, DWORD PTR ?t_Client@@3PAVTCPSocket@@A ; t_Client

; 1097 : 	if(this->Is_DataAvaliable())

	mov	eax, esi
	call	?Is_DataAvaliable@TCPSocket@@QAE_NXZ	; TCPSocket::Is_DataAvaliable
	test	al, al
	je	SHORT $LN3@RecviveDat

; 1098 : 	{
; 1099 : 		int ret = recv(this->Socket, Data, Length, 0);

	mov	eax, DWORD PTR _Data$[esp+4]
	mov	ecx, DWORD PTR [esi]
	push	0
	push	1
	push	eax
	push	ecx
	call	DWORD PTR __imp__recv@16

; 1100 : 		if(ret <= 0)

	test	eax, eax
	jg	SHORT $LN2@RecviveDat

; 1101 : 		{
; 1102 : 			this->Destroy();

	mov	edx, DWORD PTR [esi]
	push	2
	push	edx
	call	DWORD PTR __imp__shutdown@8
	mov	eax, DWORD PTR [esi]
	push	eax
	call	DWORD PTR __imp__closesocket@4
	push	272					; 00000110H
	push	0
	push	esi
	call	_memset
	add	esp, 12					; 0000000cH
$LN3@RecviveDat:

; 1103 : 			return 0;
; 1104 : 		}
; 1105 : 	}
; 1106 : 	else
; 1107 : 	{
; 1108 : 		return 0;

	xor	al, al

; 1111 : }

	pop	esi
	pop	ecx
	ret	4
$LN2@RecviveDat:

; 1109 : 	}
; 1110 : 	return 1;

	mov	al, 1

; 1111 : }

	pop	esi
	pop	ecx
	ret	4
?RecviveData@TCPSocket@@QAE_NPADH@Z ENDP		; TCPSocket::RecviveData
; Function compile flags: /Ogtpy
_TEXT	ENDS
;	COMDAT ?Created@SEye_Player_Update@@EAEXPAE@Z
_TEXT	SEGMENT
_X$111823 = -560					; size = 4
tv661 = -556						; size = 4
_ObjectID$111827 = -556					; size = 4
_Y$111824 = -552					; size = 4
$T161118 = -548						; size = 4
_HP$111825 = -544					; size = 4
_pos$111821 = -540					; size = 12
_PlayersUpdate$111820 = -528				; size = 514
$T161054 = -12						; size = 12
_o$ = 8							; size = 4
?Created@SEye_Player_Update@@EAEXPAE@Z PROC		; SEye_Player_Update::Created, COMDAT
; _this$ = ecx

; 400  : 	{

	sub	esp, 560				; 00000230H

; 401  : 		CanSendDamage = 1;
; 402  : 		if(t_Client)

	cmp	DWORD PTR ?t_Client@@3PAVTCPSocket@@A, 0 ; t_Client
	push	ebp
	mov	ebp, ecx
	push	esi
	mov	esi, DWORD PTR _o$[esp+564]
	mov	BYTE PTR [ebp+28], 1
	je	$LN62@Created@4
	push	edi

; 403  : 		{
; 404  : 			SEye::SEyePacket PlayersUpdate;

	push	514					; 00000202H
	lea	eax, DWORD PTR _PlayersUpdate$111820[esp+576]
	push	0
	push	eax
	call	_memset
	add	esp, 12					; 0000000cH

; 405  : 			PlayersUpdate.SetType(2);

	mov	BYTE PTR _PlayersUpdate$111820[esp+573], 2

; 406  : 			PlayersUpdate.Pack_String(Get_Player_Name(o));

	call	?Get_Player_Name@@YAPBDPAE@Z		; Get_Player_Name
	mov	ecx, eax
	lea	edi, DWORD PTR [ecx+1]
$LL99@Created@4:
	mov	dl, BYTE PTR [ecx]
	inc	ecx
	test	dl, dl
	jne	SHORT $LL99@Created@4
	sub	ecx, edi
	inc	ecx
	push	ebx
	test	ecx, ecx
	jle	SHORT $LN10@Created@4
	npad	11
$LL12@Created@4:
	movzx	edx, BYTE PTR _PlayersUpdate$111820[esp+576]
	mov	bl, BYTE PTR [eax+ecx-1]
	mov	BYTE PTR _PlayersUpdate$111820[esp+edx+578], bl
	inc	BYTE PTR _PlayersUpdate$111820[esp+576]
	dec	ecx
	test	ecx, ecx
	jg	SHORT $LL12@Created@4
$LN10@Created@4:

; 407  : 			PlayersUpdate.Pack_String(Commands->Get_Preset_Name(o));

	mov	eax, DWORD PTR ?Commands@@3PAUScriptCommands@@A ; Commands
	mov	ecx, DWORD PTR [eax+116]
	push	esi
	call	ecx
	mov	ecx, eax
	add	esp, 4
	lea	edi, DWORD PTR [ecx+1]
	npad	7
$LL100@Created@4:
	mov	dl, BYTE PTR [ecx]
	inc	ecx
	test	dl, dl
	jne	SHORT $LL100@Created@4
	sub	ecx, edi
	inc	ecx
	test	ecx, ecx
	jle	SHORT $LN17@Created@4
	npad	2
$LL19@Created@4:
	movzx	edx, BYTE PTR _PlayersUpdate$111820[esp+576]
	mov	bl, BYTE PTR [eax+ecx-1]
	mov	BYTE PTR _PlayersUpdate$111820[esp+edx+578], bl
	inc	BYTE PTR _PlayersUpdate$111820[esp+576]
	dec	ecx
	test	ecx, ecx
	jg	SHORT $LL19@Created@4
$LN17@Created@4:

; 408  : 			Vector3 pos = Commands->Get_Position(o);

	mov	ecx, DWORD PTR ?Commands@@3PAUScriptCommands@@A ; Commands
	mov	edx, DWORD PTR [ecx+64]
	lea	eax, DWORD PTR $T161054[esp+576]
	push	esi
	push	eax
	call	edx
	mov	ecx, DWORD PTR [eax]
	mov	edx, DWORD PTR [eax+4]
	mov	eax, DWORD PTR [eax+8]
	mov	DWORD PTR _pos$111821[esp+584], ecx

; 409  : 			float X = pos.X;

	fld	DWORD PTR _pos$111821[esp+584]

; 410  : 			float Y = pos.Y;
; 411  : 			int HP = int(Commands->Get_Max_Health(o)+Commands->Get_Max_Shield_Strength(o));

	mov	ecx, DWORD PTR ?Commands@@3PAUScriptCommands@@A ; Commands
	fstp	DWORD PTR _X$111823[esp+584]
	mov	DWORD PTR _pos$111821[esp+588], edx
	fld	DWORD PTR _pos$111821[esp+588]
	mov	edx, DWORD PTR [ecx+236]
	fstp	DWORD PTR _Y$111824[esp+584]
	push	esi
	mov	DWORD PTR _pos$111821[esp+596], eax
	call	edx
	fstp	DWORD PTR tv661[esp+588]
	mov	eax, DWORD PTR ?Commands@@3PAUScriptCommands@@A ; Commands
	mov	ecx, DWORD PTR [eax+224]
	push	esi
	call	ecx
	fadd	DWORD PTR tv661[esp+592]
	call	__ftol2_sse

; 412  : 			int Team = Get_Team(Get_Player_ID(o));

	mov	edx, DWORD PTR ?Commands@@3PAUScriptCommands@@A ; Commands
	mov	ebx, eax
	mov	eax, DWORD PTR [edx+108]
	push	esi
	mov	DWORD PTR _HP$111825[esp+596], ebx
	call	eax
	add	esp, 20					; 00000014H
	test	eax, eax
	je	SHORT $LN101@Created@4
	test	esi, esi
	je	SHORT $LN101@Created@4
	mov	ecx, DWORD PTR ?Commands@@3PAUScriptCommands@@A ; Commands
	mov	edx, DWORD PTR [ecx+108]
	push	esi
	call	edx
	add	esp, 4
	test	eax, eax
	je	SHORT $LN101@Created@4
	mov	eax, DWORD PTR [esi]
	mov	edx, DWORD PTR [eax+68]
	mov	ecx, esi
	call	edx
	test	eax, eax
	je	SHORT $LN101@Created@4
	mov	eax, DWORD PTR [eax+2400]
	test	eax, eax
	je	SHORT $LN101@Created@4
	mov	eax, DWORD PTR [eax+1884]
	jmp	SHORT $LN26@Created@4
$LN101@Created@4:
	or	eax, -1
$LN26@Created@4:
	push	eax
	call	DWORD PTR ?FindPlayer@@3P6APAVcPlayer@@H@ZA ; FindPlayer
	add	esp, 4
	test	eax, eax
	jne	SHORT $LN32@Created@4
	mov	DWORD PTR $T161118[esp+576], eax
	jmp	SHORT $LN33@Created@4
$LN32@Created@4:
	lea	ecx, DWORD PTR [eax+1900]
	call	?Get@IntDataSafeClass@@QAEHXZ		; IntDataSafeClass::Get
	mov	DWORD PTR $T161118[esp+576], eax
$LN33@Created@4:

; 413  : 			int ObjectID = Commands->Get_ID(o);

	mov	eax, DWORD PTR ?Commands@@3PAUScriptCommands@@A ; Commands
	mov	ecx, DWORD PTR [eax+108]
	push	esi
	call	ecx

; 414  : 
; 415  : 			PlayersUpdate.Pack((char *)&Y, 4);

	movzx	edx, BYTE PTR _PlayersUpdate$111820[esp+580]
	movzx	ecx, BYTE PTR _Y$111824[esp+583]
	mov	BYTE PTR _PlayersUpdate$111820[esp+edx+582], cl
	mov	cl, BYTE PTR _PlayersUpdate$111820[esp+580]
	inc	cl
	mov	BYTE PTR _PlayersUpdate$111820[esp+580], cl
	movzx	edx, cl
	movzx	ecx, BYTE PTR _Y$111824[esp+582]
	mov	BYTE PTR _PlayersUpdate$111820[esp+edx+582], cl
	mov	cl, BYTE PTR _PlayersUpdate$111820[esp+580]
	inc	cl
	mov	BYTE PTR _PlayersUpdate$111820[esp+580], cl
	movzx	edx, cl
	movzx	ecx, BYTE PTR _Y$111824[esp+581]
	mov	BYTE PTR _PlayersUpdate$111820[esp+edx+582], cl
	mov	cl, BYTE PTR _PlayersUpdate$111820[esp+580]
	inc	cl
	mov	BYTE PTR _PlayersUpdate$111820[esp+580], cl
	movzx	edx, cl
	movzx	ecx, BYTE PTR _Y$111824[esp+580]
	mov	BYTE PTR _PlayersUpdate$111820[esp+edx+582], cl
	mov	cl, BYTE PTR _PlayersUpdate$111820[esp+580]
	inc	cl
	mov	BYTE PTR _PlayersUpdate$111820[esp+580], cl

; 416  : 			PlayersUpdate.Pack((char *)&X, 4);

	movzx	edx, cl
	movzx	ecx, BYTE PTR _X$111823[esp+583]
	mov	BYTE PTR _PlayersUpdate$111820[esp+edx+582], cl
	mov	cl, BYTE PTR _PlayersUpdate$111820[esp+580]
	inc	cl
	mov	BYTE PTR _PlayersUpdate$111820[esp+580], cl
	movzx	edx, cl
	movzx	ecx, BYTE PTR _X$111823[esp+582]
	mov	BYTE PTR _PlayersUpdate$111820[esp+edx+582], cl
	mov	cl, BYTE PTR _PlayersUpdate$111820[esp+580]
	inc	cl
	mov	BYTE PTR _PlayersUpdate$111820[esp+580], cl
	movzx	edx, cl
	movzx	ecx, BYTE PTR _X$111823[esp+581]
	mov	BYTE PTR _PlayersUpdate$111820[esp+edx+582], cl
	mov	cl, BYTE PTR _PlayersUpdate$111820[esp+580]
	inc	cl
	mov	BYTE PTR _PlayersUpdate$111820[esp+580], cl
	movzx	edx, cl
	movzx	ecx, BYTE PTR _X$111823[esp+580]
	mov	BYTE PTR _PlayersUpdate$111820[esp+edx+582], cl
	mov	cl, BYTE PTR _PlayersUpdate$111820[esp+580]
	inc	cl
	mov	BYTE PTR _PlayersUpdate$111820[esp+580], cl

; 417  : 			PlayersUpdate.Pack((char *)&HP, 4);

	movzx	edx, cl
	movzx	ecx, BYTE PTR _HP$111825[esp+583]
	mov	BYTE PTR _PlayersUpdate$111820[esp+edx+582], cl
	mov	cl, BYTE PTR _PlayersUpdate$111820[esp+580]
	inc	cl
	mov	BYTE PTR _PlayersUpdate$111820[esp+580], cl
	movzx	edx, cl
	movzx	ecx, BYTE PTR _HP$111825[esp+582]
	mov	BYTE PTR _PlayersUpdate$111820[esp+edx+582], cl
	mov	cl, BYTE PTR _PlayersUpdate$111820[esp+580]
	inc	cl
	movzx	edx, cl
	mov	BYTE PTR _PlayersUpdate$111820[esp+580], cl
	mov	BYTE PTR _PlayersUpdate$111820[esp+edx+582], bh
	mov	cl, BYTE PTR _PlayersUpdate$111820[esp+580]
	inc	cl
	mov	BYTE PTR _PlayersUpdate$111820[esp+580], cl
	movzx	ecx, cl
	mov	BYTE PTR _PlayersUpdate$111820[esp+ecx+582], bl
	mov	cl, BYTE PTR _PlayersUpdate$111820[esp+580]
	inc	cl
	mov	BYTE PTR _PlayersUpdate$111820[esp+580], cl

; 418  : 			PlayersUpdate.Pack((char *)&Team, 1);

	movzx	edx, cl
	movzx	ecx, BYTE PTR $T161118[esp+580]
	mov	BYTE PTR _PlayersUpdate$111820[esp+edx+582], cl
	mov	cl, BYTE PTR _PlayersUpdate$111820[esp+580]
	add	esp, 4
	mov	DWORD PTR _ObjectID$111827[esp+576], eax
	inc	cl
	mov	BYTE PTR _PlayersUpdate$111820[esp+576], cl

; 419  : 			PlayersUpdate.Pack((char *)&ObjectID, 4);

	movzx	edx, cl
	movzx	ecx, BYTE PTR _ObjectID$111827[esp+579]
	mov	BYTE PTR _PlayersUpdate$111820[esp+edx+578], cl
	mov	cl, BYTE PTR _PlayersUpdate$111820[esp+576]
	inc	cl
	mov	BYTE PTR _PlayersUpdate$111820[esp+576], cl
	movzx	edx, cl
	movzx	ecx, BYTE PTR _ObjectID$111827[esp+578]
	mov	BYTE PTR _PlayersUpdate$111820[esp+edx+578], cl
	mov	cl, BYTE PTR _PlayersUpdate$111820[esp+576]
	inc	cl
	movzx	edx, cl
	mov	BYTE PTR _PlayersUpdate$111820[esp+576], cl
	mov	BYTE PTR _PlayersUpdate$111820[esp+edx+578], ah
	mov	cl, BYTE PTR _PlayersUpdate$111820[esp+576]
	inc	cl
	mov	BYTE PTR _PlayersUpdate$111820[esp+576], cl
	movzx	ecx, cl
	mov	BYTE PTR _PlayersUpdate$111820[esp+ecx+578], al
	mov	al, BYTE PTR _PlayersUpdate$111820[esp+576]
	inc	al

; 420  : 
; 421  : 			t_Client->SendData((const char *)&PlayersUpdate, PlayersUpdate.GetSize());

	movzx	edi, al
	mov	BYTE PTR _PlayersUpdate$111820[esp+576], al
	mov	eax, DWORD PTR ?t_Client@@3PAVTCPSocket@@A ; t_Client
	add	edi, 8
	mov	ebx, eax
	call	?Is_Connected@TCPSocket@@QAE_NXZ	; TCPSocket::Is_Connected
	test	al, al
	je	SHORT $LN103@Created@4
	mov	eax, DWORD PTR [ebx]
	push	0
	push	edi
	lea	edx, DWORD PTR _PlayersUpdate$111820[esp+584]
	push	edx
	push	eax
	call	DWORD PTR __imp__send@16
	cmp	eax, edi
	je	SHORT $LN103@Created@4
	cmp	eax, -1
	je	SHORT $LN103@Created@4
	sub	edi, eax
	lea	ecx, DWORD PTR _PlayersUpdate$111820[esp+eax+576]
	push	edi
	push	ecx
	mov	ecx, ebx
	call	?SendData@TCPSocket@@QAE_NPBDH@Z	; TCPSocket::SendData
$LN103@Created@4:
	pop	ebx
	pop	edi
$LN62@Created@4:

; 422  : 		}
; 423  : 
; 424  : 		Commands->Start_Timer(o, this, 1.0, 1);

	fld1
	mov	edx, DWORD PTR ?Commands@@3PAUScriptCommands@@A ; Commands
	mov	eax, DWORD PTR [edx+128]
	push	1
	push	ecx
	fstp	DWORD PTR [esp]
	push	ebp
	push	esi
	call	eax
	add	esp, 16					; 00000010H
	pop	esi
	pop	ebp

; 425  : 	}

	add	esp, 560				; 00000230H
	ret	4
?Created@SEye_Player_Update@@EAEXPAE@Z ENDP		; SEye_Player_Update::Created
; Function compile flags: /Ogtpy
_TEXT	ENDS
;	COMDAT ?Timer_Expired@SEye_SOCKET@@EAEXPAEH@Z
_TEXT	SEGMENT
tv1896 = -3176						; size = 4
tv1894 = -3176						; size = 8
tv1835 = -3176						; size = 4
tv1833 = -3176						; size = 8
tv1745 = -3176						; size = 4
tv1740 = -3176						; size = 4
tv1738 = -3176						; size = 4
$T161696 = -3176					; size = 4
$T161656 = -3176					; size = 4
$T161640 = -3176					; size = 4
$T161624 = -3176					; size = 4
$T161573 = -3176					; size = 4
$T161557 = -3176					; size = 4
$T161474 = -3176					; size = 4
$T161434 = -3176					; size = 4
$T161418 = -3176					; size = 4
$T161402 = -3176					; size = 4
_Name$111647 = -3176					; size = 4
tv1899 = -3168						; size = 2
tv1838 = -3168						; size = 2
tv1752 = -3168						; size = 4
tv1750 = -3168						; size = 4
_y$111733 = -3168					; size = 4
tv1746 = -3164						; size = 4
tv1743 = -3164						; size = 4
tv1742 = -3164						; size = 4
tv1741 = -3164						; size = 4
tv1737 = -3164						; size = 4
tv1736 = -3164						; size = 4
_ObjectID$111655 = -3164				; size = 4
_x$111743 = -3160					; size = 4
_x$111663 = -3160					; size = 4
_x$111600 = -3160					; size = 4
_pos$111750 = -3156					; size = 12
_pos$111711 = -3156					; size = 12
_pos$111649 = -3156					; size = 12
tv1747 = -3144						; size = 4
_X$111651 = -3144					; size = 4
tv1748 = -3140						; size = 4
_Y$111652 = -3140					; size = 4
_HP$111653 = -3136					; size = 4
$T161229 = -3132					; size = 12
$T161228 = -3132					; size = 12
$T161226 = -3132					; size = 12
_BuildingUpdate$111753 = -3120				; size = 514
_PlayersUpdate$111648 = -2600				; size = 514
_VehicleUpdate$111713 = -2080				; size = 514
_sp_Header$111592 = -1560				; size = 514
__Packet$111564 = -1560					; size = 514
_VehicleEntered$111739 = -1040				; size = 514
_VehicleEntered$111729 = -520				; size = 514
_o$ = 8							; size = 4
_number$ = 12						; size = 4
?Timer_Expired@SEye_SOCKET@@EAEXPAEH@Z PROC		; SEye_SOCKET::Timer_Expired, COMDAT
; _this$ = ecx

; 206  : 	{

	push	ebp
	mov	ebp, esp
	and	esp, -8					; fffffff8H

; 207  : 		Commands->Start_Timer(o, this, 0.1, 1);

	fld	DWORD PTR __real@3dcccccd
	mov	eax, DWORD PTR _o$[ebp]
	sub	esp, 3180				; 00000c6cH
	push	ebx
	push	esi
	push	edi
	push	1
	push	ecx
	fstp	DWORD PTR [esp]
	push	ecx
	mov	ecx, DWORD PTR ?Commands@@3PAUScriptCommands@@A ; Commands
	mov	edx, DWORD PTR [ecx+128]
	push	eax
	call	edx

; 208  : 		if(t_Client)

	mov	eax, DWORD PTR ?t_Client@@3PAVTCPSocket@@A ; t_Client
	xor	edi, edi
	add	esp, 16					; 00000010H
	cmp	eax, edi
	je	$LN24@Timer_Expi@5

; 209  : 		{
; 210  : 			if(!t_Client->Is_Connected())

	call	?Is_Connected@TCPSocket@@QAE_NXZ	; TCPSocket::Is_Connected
	test	al, al
	jne	$LN29@Timer_Expi@5

; 211  : 			{
; 212  : 				t_Client->Destroy();

	mov	esi, DWORD PTR ?t_Client@@3PAVTCPSocket@@A ; t_Client
	mov	eax, DWORD PTR [esi]
	mov	edi, DWORD PTR __imp__shutdown@8
	push	2
	push	eax
	call	edi
	mov	ecx, DWORD PTR [esi]
	mov	ebx, DWORD PTR __imp__closesocket@4
	push	ecx
	call	ebx
	push	272					; 00000110H
	push	0
	push	esi
	call	_memset

; 213  : 				delete t_Client;

	mov	esi, DWORD PTR ?t_Client@@3PAVTCPSocket@@A ; t_Client
	add	esp, 12					; 0000000cH
	test	esi, esi
	je	SHORT $LN33@Timer_Expi@5
	mov	edx, DWORD PTR [esi]
	push	2
	push	edx
	call	edi
	mov	eax, DWORD PTR [esi]
	push	eax
	call	ebx
	push	272					; 00000110H
	push	0
	push	esi
	call	_memset
	add	esp, 12					; 0000000cH
	push	esi
	call	DWORD PTR ?RenDelete@@3P6AXPAX@ZA	; RenDelete
	add	esp, 4
$LN33@Timer_Expi@5:

; 214  : 				t_Client = 0;
; 215  : 				printf("SEye client disconnected!\n");

	push	OFFSET ??_C@_0BL@KGBFPHLL@SEye?5client?5disconnected?$CB?6?$AA@
	mov	DWORD PTR ?t_Client@@3PAVTCPSocket@@A, 0 ; t_Client
	call	_printf
	add	esp, 4
$LN346@Timer_Expi@5:

; 243  : 					{
; 244  : 						if(i_PacketBytes >= sp_tempPacket.GetSize()-1)

	xor	edi, edi
$LN24@Timer_Expi@5:

; 253  : 				}
; 254  : 			}
; 255  : 		}
; 256  : 
; 257  : 		if(t_Sock && (t_Sock->Is_ConnectionWaiting() && !t_Client))

	mov	eax, DWORD PTR ?t_Sock@@3PAVTCPSocket@@A ; t_Sock
	cmp	eax, edi
	je	$LN2@Timer_Expi@5
	call	?Is_ConnectionWaiting@TCPSocket@@QAE_NXZ ; TCPSocket::Is_ConnectionWaiting
	test	al, al
	je	$LN2@Timer_Expi@5
	cmp	DWORD PTR ?t_Client@@3PAVTCPSocket@@A, edi ; t_Client
	jne	$LN2@Timer_Expi@5

; 258  : 		{
; 259  : 			t_Client = new TCPSocket;

	cmp	DWORD PTR ?RenNew@@3P6APAXK@ZA, edi	; RenNew
	jne	SHORT $LN75@Timer_Expi@5
	call	?InitEngine@@YAXXZ			; InitEngine
$LN75@Timer_Expi@5:
	push	272					; 00000110H
	call	DWORD PTR ?RenNew@@3P6APAXK@ZA		; RenNew
	mov	esi, eax
	add	esp, 4
	cmp	esi, edi
	je	$LN37@Timer_Expi@5
	push	272					; 00000110H
	push	edi
	push	esi
	call	_memset
	add	esp, 12					; 0000000cH
	jmp	$LN38@Timer_Expi@5
$LN29@Timer_Expi@5:

; 216  : 			}
; 217  : 			else
; 218  : 			{
; 219  : 				if(clock() - PingPong > 30*1000 && PingData == 0)

	call	_clock
	sub	eax, DWORD PTR ?PingPong@@3JA		; PingPong
	cmp	eax, 30000				; 00007530H
	jle	SHORT $LN27@Timer_Expi@5
	cmp	DWORD PTR ?PingData@@3IA, edi		; PingData
	jne	SHORT $LN27@Timer_Expi@5

; 220  : 				{
; 221  : 					bool From = 1;
; 222  : 					unsigned int r = (unsigned int)rand();

	call	_rand

; 223  : 					SEye::SEyePacket _Packet;

	push	514					; 00000202H
	lea	ecx, DWORD PTR __Packet$111564[esp+3196]
	push	edi
	push	ecx
	mov	esi, eax
	call	_memset
	add	esp, 12					; 0000000cH

; 224  : 					_Packet.SetType(0);
; 225  : 					_Packet.Pack<unsigned int>(r);

	push	esi
	lea	eax, DWORD PTR __Packet$111564[esp+3196]
	mov	BYTE PTR __Packet$111564[esp+3197], 0
	call	??$Pack@I@SEyePacket@SEye@@QAEXI@Z	; SEye::SEyePacket::Pack<unsigned int>

; 226  : 					_Packet.Pack<bool>(From);

	movzx	edx, BYTE PTR __Packet$111564[esp+3192]
	mov	al, 1
	mov	BYTE PTR __Packet$111564[esp+edx+3194], al
	mov	al, BYTE PTR __Packet$111564[esp+3192]
	inc	al
	mov	BYTE PTR __Packet$111564[esp+3192], al

; 227  : 					t_Client->SendData((const char *)&_Packet, _Packet.GetSize());

	movzx	eax, al
	add	eax, 8
	push	eax
	lea	ecx, DWORD PTR __Packet$111564[esp+3196]
	push	ecx
	mov	ecx, DWORD PTR ?t_Client@@3PAVTCPSocket@@A ; t_Client
	call	?SendData@TCPSocket@@QAE_NPBDH@Z	; TCPSocket::SendData

; 228  : 					PingData = r;

	mov	DWORD PTR ?PingData@@3IA, esi		; PingData
$LN27@Timer_Expi@5:

; 229  : 				}
; 230  : 				if(clock() - PingPong > 60 * 1000 && PingData >= 0)

	call	_clock
	sub	eax, DWORD PTR ?PingPong@@3JA		; PingPong
	cmp	eax, 60000				; 0000ea60H
	jle	SHORT $LN291@Timer_Expi@5

; 231  : 				{
; 232  : 					t_Client->Destroy();

	mov	esi, DWORD PTR ?t_Client@@3PAVTCPSocket@@A ; t_Client
	call	?Destroy@TCPSocket@@QAE_NXZ		; TCPSocket::Destroy

; 233  : 					delete t_Client;

	mov	esi, DWORD PTR ?t_Client@@3PAVTCPSocket@@A ; t_Client
	cmp	esi, edi
	je	SHORT $LN35@Timer_Expi@5
	call	??_GTCPSocket@@QAEPAXI@Z
$LN35@Timer_Expi@5:

; 234  : 					t_Client = 0;
; 235  : 
; 236  : 					printf("SEye client disconnected (ping timeout).\n");

	push	OFFSET ??_C@_0CK@NFJNGOJO@SEye?5client?5disconnected?5?$CIping?5t@
	mov	DWORD PTR ?t_Client@@3PAVTCPSocket@@A, edi ; t_Client
	call	_printf
	add	esp, 4

; 387  : 			}
; 388  : 
; 389  : 			
; 390  : 		}
; 391  : 	}

	pop	edi
	pop	esi
	pop	ebx
	mov	esp, ebp
	pop	ebp
	ret	8
$LN291@Timer_Expi@5:

; 237  : 					return;
; 238  : 				}
; 239  : 				while(t_Client->Is_DataAvaliable())

	mov	eax, DWORD PTR ?t_Client@@3PAVTCPSocket@@A ; t_Client
	call	?Is_DataAvaliable@TCPSocket@@QAE_NXZ	; TCPSocket::Is_DataAvaliable
	test	al, al
	je	$LN24@Timer_Expi@5
	mov	ebx, DWORD PTR __imp__shutdown@8
$LL25@Timer_Expi@5:

; 240  : 				{
; 241  : 					t_Client->RecviveData(((char *)&sp_tempPacket)+(i_PacketBytes), 1);

	mov	edi, DWORD PTR ?i_PacketBytes@SEye_SOCKET@@0HA ; SEye_SOCKET::i_PacketBytes
	mov	eax, DWORD PTR ?t_Client@@3PAVTCPSocket@@A ; t_Client
	lea	edi, DWORD PTR ?sp_tempPacket@SEye_SOCKET@@0VSEyePacket@SEye@@A[edi]
	mov	esi, eax
	call	?Is_DataAvaliable@TCPSocket@@QAE_NXZ	; TCPSocket::Is_DataAvaliable
	test	al, al
	je	SHORT $LN67@Timer_Expi@5
	mov	edx, DWORD PTR [esi]
	push	0
	push	1
	push	edi
	push	edx
	call	DWORD PTR __imp__recv@16
	test	eax, eax
	jg	SHORT $LN67@Timer_Expi@5
	mov	eax, DWORD PTR [esi]
	push	2
	push	eax
	call	ebx
	mov	ecx, DWORD PTR [esi]
	push	ecx
	call	DWORD PTR __imp__closesocket@4
	push	272					; 00000110H
	push	0
	push	esi
	call	_memset
	add	esp, 12					; 0000000cH
$LN67@Timer_Expi@5:

; 242  : 					if(i_PacketBytes >= 3)

	mov	eax, DWORD PTR ?i_PacketBytes@SEye_SOCKET@@0HA ; SEye_SOCKET::i_PacketBytes
	cmp	eax, 3
	jl	SHORT $LN22@Timer_Expi@5

; 243  : 					{
; 244  : 						if(i_PacketBytes >= sp_tempPacket.GetSize()-1)

	movzx	edx, BYTE PTR ?sp_tempPacket@SEye_SOCKET@@0VSEyePacket@SEye@@A
	add	edx, 7
	cmp	eax, edx
	jge	SHORT $LN315@Timer_Expi@5
$LN22@Timer_Expi@5:

; 249  : 							return;
; 250  : 						}
; 251  : 					}
; 252  : 					i_PacketBytes++;

	inc	eax
	mov	DWORD PTR ?i_PacketBytes@SEye_SOCKET@@0HA, eax ; SEye_SOCKET::i_PacketBytes
	mov	eax, DWORD PTR ?t_Client@@3PAVTCPSocket@@A ; t_Client
	call	?Is_DataAvaliable@TCPSocket@@QAE_NXZ	; TCPSocket::Is_DataAvaliable
	test	al, al
	jne	SHORT $LL25@Timer_Expi@5

; 243  : 					{
; 244  : 						if(i_PacketBytes >= sp_tempPacket.GetSize()-1)

	jmp	$LN346@Timer_Expi@5
$LN315@Timer_Expi@5:

; 245  : 						{
; 246  : 							PacketReceived(sp_tempPacket);

	call	?PacketReceived@@YAXAAVSEyePacket@SEye@@@Z ; PacketReceived

; 247  : 							memset((void *)&sp_tempPacket, 0, sizeof(sp_tempPacket));

	push	514					; 00000202H
	push	0
	push	OFFSET ?sp_tempPacket@SEye_SOCKET@@0VSEyePacket@SEye@@A ; SEye_SOCKET::sp_tempPacket
	call	_memset
	add	esp, 12					; 0000000cH

; 248  : 							i_PacketBytes = 0;

	mov	DWORD PTR ?i_PacketBytes@SEye_SOCKET@@0HA, 0 ; SEye_SOCKET::i_PacketBytes

; 387  : 			}
; 388  : 
; 389  : 			
; 390  : 		}
; 391  : 	}

	pop	edi
	pop	esi
	pop	ebx
	mov	esp, ebp
	pop	ebp
	ret	8
$LN37@Timer_Expi@5:

; 258  : 		{
; 259  : 			t_Client = new TCPSocket;

	xor	esi, esi
$LN38@Timer_Expi@5:
	mov	DWORD PTR ?t_Client@@3PAVTCPSocket@@A, esi ; t_Client

; 260  : 			if(!t_Sock->Accept(t_Client))

	call	?Accept@TCPSocket@@QAE_NPAV1@@Z		; TCPSocket::Accept
	test	al, al
	jne	SHORT $LN20@Timer_Expi@5

; 261  : 			{
; 262  : 				printf("New client rejected\n");

	push	OFFSET ??_C@_0BF@GCBADCAG@New?5client?5rejected?6?$AA@
$LN347@Timer_Expi@5:
	call	_printf

; 263  : 				delete t_Client;

	mov	esi, DWORD PTR ?t_Client@@3PAVTCPSocket@@A ; t_Client
	add	esp, 4
	cmp	esi, edi
	je	SHORT $LN39@Timer_Expi@5
	call	??_GTCPSocket@@QAEPAXI@Z
$LN39@Timer_Expi@5:

; 264  : 				t_Client = 0;

	mov	DWORD PTR ?t_Client@@3PAVTCPSocket@@A, edi ; t_Client

; 387  : 			}
; 388  : 
; 389  : 			
; 390  : 		}
; 391  : 	}

	pop	edi
	pop	esi
	pop	ebx
	mov	esp, ebp
	pop	ebp
	ret	8
$LN20@Timer_Expi@5:

; 265  : 				return;
; 266  : 			}
; 267  : 
; 268  : 			printf("New client accepted\n");

	push	OFFSET ??_C@_0BF@EHJOBKHJ@New?5client?5accepted?6?$AA@
	call	_printf
	add	esp, 4

; 269  : 
; 270  : 			PingPong = clock();

	call	_clock

; 271  : 			PingData = 0;
; 272  : 			SEye::SEyePacket sp_Header;

	push	514					; 00000202H
	mov	DWORD PTR ?PingPong@@3JA, eax		; PingPong
	lea	eax, DWORD PTR _sp_Header$111592[esp+3196]
	push	edi
	push	eax
	mov	DWORD PTR ?PingData@@3IA, edi		; PingData
	call	_memset
	add	esp, 12					; 0000000cH

; 273  : 			sp_Header.SetType(1);

	mov	BYTE PTR _sp_Header$111592[esp+3193], 1

; 274  : 			sp_Header.Pack_String(The_Game()->MapName);

	call	?The_Game@@YAPAVcGameData@@XZ		; The_Game
	mov	esi, DWORD PTR [eax+40]
	lea	ecx, DWORD PTR _sp_Header$111592[esp+3192]
	call	?Pack_String@SEyePacket@SEye@@QAEXPBD@Z	; SEye::SEyePacket::Pack_String

; 275  : 			printf("\"%s\"\n", The_Game()->MapName);

	call	?The_Game@@YAPAVcGameData@@XZ		; The_Game
	mov	ecx, DWORD PTR [eax+40]
	push	ecx
	push	OFFSET ??_C@_05LFNECPGD@?$CC?$CFs?$CC?6?$AA@
	call	_printf
	add	esp, 8

; 276  : 			sp_Header.Pack((const char *)&The_Game()->TimeRemaining_Seconds, 4);

	mov	esi, 4
	call	?The_Game@@YAPAVcGameData@@XZ		; The_Game
	add	eax, 552				; 00000228H
	npad	5
$LL86@Timer_Expi@5:
	movzx	edx, BYTE PTR _sp_Header$111592[esp+3192]
	mov	cl, BYTE PTR [eax+esi-1]
	mov	BYTE PTR _sp_Header$111592[esp+edx+3194], cl
	inc	BYTE PTR _sp_Header$111592[esp+3192]
	dec	esi
	cmp	esi, edi
	jg	SHORT $LL86@Timer_Expi@5

; 277  : 			if(!t_Client->SendData((const char *)&sp_Header, sp_Header.GetSize()))

	movzx	eax, BYTE PTR _sp_Header$111592[esp+3192]
	mov	ecx, DWORD PTR ?t_Client@@3PAVTCPSocket@@A ; t_Client
	add	eax, 8
	push	eax
	lea	edx, DWORD PTR _sp_Header$111592[esp+3196]
	push	edx
	call	?SendData@TCPSocket@@QAE_NPBDH@Z	; TCPSocket::SendData
	test	al, al
	jne	SHORT $LN19@Timer_Expi@5

; 278  : 			{
; 279  : 				printf("Unable to send packet\n");

	push	OFFSET ??_C@_0BH@FPKMONJH@Unable?5to?5send?5packet?6?$AA@

; 280  : 				delete t_Client;
; 281  : 				t_Client = 0;
; 282  : 				return;

	jmp	$LN347@Timer_Expi@5
$LN19@Timer_Expi@5:

; 283  : 			}	
; 284  : 			
; 285  : 			for(GenericSLNode *x = PlayerList->HeadNode; x != 0; x = x->NodeNext)

	mov	eax, DWORD PTR ?PlayerList@@3PAV?$SList@PAVcPlayer@@@@A ; PlayerList
	mov	esi, DWORD PTR [eax+4]
	mov	DWORD PTR _x$111600[esp+3192], esi
	cmp	esi, edi
	je	$LN16@Timer_Expi@5
$LL18@Timer_Expi@5:

; 286  : 			{
; 287  : 				cPlayer *p = (cPlayer *)x->NodeData;

	mov	edi, DWORD PTR [esi+4]

; 288  : 				if(p && Commands->Get_ID(Get_GameObj(p->PlayerType.Get())) > 0)

	test	edi, edi
	je	$LN17@Timer_Expi@5
	lea	ecx, DWORD PTR [edi+1900]
	call	?Get@IntDataSafeClass@@QAEHXZ		; IntDataSafeClass::Get
	push	eax
	call	DWORD PTR ?FindPlayer@@3P6APAVcPlayer@@H@ZA ; FindPlayer
	add	esp, 4
	test	eax, eax
	je	SHORT $LN91@Timer_Expi@5
	mov	eax, DWORD PTR [eax+20]
	test	eax, eax
	je	SHORT $LN91@Timer_Expi@5
	mov	eax, DWORD PTR [eax+4]
	jmp	SHORT $LN92@Timer_Expi@5
$LN91@Timer_Expi@5:
	xor	eax, eax
$LN92@Timer_Expi@5:
	mov	ecx, DWORD PTR ?Commands@@3PAUScriptCommands@@A ; Commands
	mov	edx, DWORD PTR [ecx+108]
	push	eax
	call	edx
	add	esp, 4
	test	eax, eax
	jle	$LN17@Timer_Expi@5

; 289  : 				{
; 290  : 					const char *Name = WideCharToChar(p->PlayerName);

	mov	eax, DWORD PTR [edi+1880]
	push	eax
	call	?WideCharToChar@@YAPBDPB_W@Z		; WideCharToChar
	add	esp, 4
	mov	esi, eax

; 291  : 
; 292  : 					SEye::SEyePacket PlayersUpdate;

	push	514					; 00000202H
	lea	eax, DWORD PTR _PlayersUpdate$111648[esp+3196]
	push	0
	push	eax
	mov	DWORD PTR _Name$111647[esp+3204], esi
	call	_memset
	add	esp, 12					; 0000000cH

; 293  : 					PlayersUpdate.SetType(2);
; 294  : 					PlayersUpdate.Pack_String(Name);

	lea	ecx, DWORD PTR _PlayersUpdate$111648[esp+3192]
	mov	BYTE PTR _PlayersUpdate$111648[esp+3193], 2
	call	?Pack_String@SEyePacket@SEye@@QAEXPBD@Z	; SEye::SEyePacket::Pack_String

; 295  : 					PlayersUpdate.Pack_String(Commands->Get_Preset_Name(Get_GameObj(p->PlayerId)));

	mov	esi, DWORD PTR ?Commands@@3PAUScriptCommands@@A ; Commands
	mov	eax, DWORD PTR [edi+1884]
	add	esi, 116				; 00000074H
	call	?Get_GameObj@@YAPAEH@Z			; Get_GameObj
	mov	ecx, DWORD PTR [esi]
	push	eax
	call	ecx
	add	esp, 4
	mov	esi, eax
	lea	ecx, DWORD PTR _PlayersUpdate$111648[esp+3192]
	call	?Pack_String@SEyePacket@SEye@@QAEXPBD@Z	; SEye::SEyePacket::Pack_String

; 296  : 					Vector3 pos = Commands->Get_Position(Get_GameObj(p->PlayerId));

	mov	esi, DWORD PTR ?Commands@@3PAUScriptCommands@@A ; Commands
	mov	eax, DWORD PTR [edi+1884]
	add	esi, 64					; 00000040H
	call	?Get_GameObj@@YAPAEH@Z			; Get_GameObj
	push	eax
	mov	eax, DWORD PTR [esi]
	lea	edx, DWORD PTR $T161226[esp+3196]
	push	edx
	call	eax
	mov	ecx, DWORD PTR [eax]
	mov	edx, DWORD PTR [eax+4]
	mov	eax, DWORD PTR [eax+8]
	mov	DWORD PTR _pos$111649[esp+3200], ecx

; 297  : 					float X = pos.X;

	fld	DWORD PTR _pos$111649[esp+3200]
	mov	DWORD PTR _pos$111649[esp+3208], eax
	fstp	DWORD PTR _X$111651[esp+3200]

; 298  : 					float Y = pos.Y;
; 299  : 					int HP = int(Commands->Get_Max_Health(Get_GameObj(p->PlayerId))+Commands->Get_Max_Shield_Strength(Get_GameObj(p->PlayerId)));

	mov	eax, DWORD PTR ?Commands@@3PAUScriptCommands@@A ; Commands
	mov	DWORD PTR _pos$111649[esp+3204], edx
	fld	DWORD PTR _pos$111649[esp+3204]
	lea	esi, DWORD PTR [eax+236]
	fstp	DWORD PTR _Y$111652[esp+3200]
	lea	ebx, DWORD PTR [eax+224]
	mov	eax, DWORD PTR [edi+1884]
	call	?Get_GameObj@@YAPAEH@Z			; Get_GameObj
	mov	ecx, DWORD PTR [esi]
	push	eax
	call	ecx
	fstp	DWORD PTR tv1752[esp+3204]
	mov	eax, DWORD PTR [edi+1884]
	add	esp, 12					; 0000000cH
	call	?Get_GameObj@@YAPAEH@Z			; Get_GameObj
	mov	edx, DWORD PTR [ebx]
	push	eax
	call	edx
	fadd	DWORD PTR tv1752[esp+3196]
	add	esp, 4
	call	__ftol2_sse

; 300  : 					int Team = p->PlayerType.Get();

	lea	ecx, DWORD PTR [edi+1900]
	mov	DWORD PTR _HP$111653[esp+3192], eax
	call	?Get@IntDataSafeClass@@QAEHXZ		; IntDataSafeClass::Get

; 301  : 					int ObjectID = Commands->Get_ID(Get_GameObj(p->PlayerId));

	mov	esi, DWORD PTR ?Commands@@3PAUScriptCommands@@A ; Commands
	mov	ebx, eax
	mov	eax, DWORD PTR [edi+1884]
	add	esi, 108				; 0000006cH
	call	?Get_GameObj@@YAPAEH@Z			; Get_GameObj
	push	eax
	mov	eax, DWORD PTR [esi]
	call	eax
	mov	DWORD PTR _ObjectID$111655[esp+3196], eax

; 302  : 
; 303  : 					PlayersUpdate.Pack((char *)&Y, 4);

	mov	ecx, 4
	lea	eax, DWORD PTR _Y$111652[esp+3199]
	add	esp, 4
	sub	eax, ecx
	npad	11
$LL102@Timer_Expi@5:
	movzx	edx, BYTE PTR _PlayersUpdate$111648[esp+3192]
	mov	DWORD PTR tv1750[esp+3192], eax
	mov	al, BYTE PTR [eax+ecx]
	mov	BYTE PTR _PlayersUpdate$111648[esp+edx+3194], al
	inc	BYTE PTR _PlayersUpdate$111648[esp+3192]
	mov	eax, DWORD PTR tv1750[esp+3192]
	dec	ecx
	test	ecx, ecx
	jg	SHORT $LL102@Timer_Expi@5

; 304  : 					PlayersUpdate.Pack((char *)&X, 4);

	mov	eax, 4
	lea	ecx, DWORD PTR _X$111651[esp+3195]
	sub	ecx, eax
$LL107@Timer_Expi@5:
	movzx	edx, BYTE PTR _PlayersUpdate$111648[esp+3192]
	mov	DWORD PTR tv1748[esp+3192], ecx
	mov	cl, BYTE PTR [ecx+eax]
	mov	BYTE PTR _PlayersUpdate$111648[esp+edx+3194], cl
	inc	BYTE PTR _PlayersUpdate$111648[esp+3192]
	mov	ecx, DWORD PTR tv1748[esp+3192]
	dec	eax
	test	eax, eax
	jg	SHORT $LL107@Timer_Expi@5

; 305  : 					PlayersUpdate.Pack((char *)&HP, 4);

	mov	eax, 4
	lea	ecx, DWORD PTR _HP$111653[esp+3195]
	sub	ecx, eax
	npad	14
$LL112@Timer_Expi@5:
	movzx	edx, BYTE PTR _PlayersUpdate$111648[esp+3192]
	mov	DWORD PTR tv1747[esp+3192], ecx
	mov	cl, BYTE PTR [ecx+eax]
	mov	BYTE PTR _PlayersUpdate$111648[esp+edx+3194], cl
	inc	BYTE PTR _PlayersUpdate$111648[esp+3192]
	mov	ecx, DWORD PTR tv1747[esp+3192]
	dec	eax
	test	eax, eax
	jg	SHORT $LL112@Timer_Expi@5

; 306  : 					PlayersUpdate.Pack((char *)&Team, 1);

	movzx	eax, BYTE PTR _PlayersUpdate$111648[esp+3192]
	mov	BYTE PTR _PlayersUpdate$111648[esp+eax+3194], bl
	inc	BYTE PTR _PlayersUpdate$111648[esp+3192]

; 307  : 					PlayersUpdate.Pack((char *)&ObjectID, 4);

	mov	eax, 4
	lea	ecx, DWORD PTR _ObjectID$111655[esp+3195]
	sub	ecx, eax
	npad	9
$LL122@Timer_Expi@5:
	movzx	edx, BYTE PTR _PlayersUpdate$111648[esp+3192]
	mov	bl, BYTE PTR [ecx+eax]
	mov	BYTE PTR _PlayersUpdate$111648[esp+edx+3194], bl
	inc	BYTE PTR _PlayersUpdate$111648[esp+3192]
	dec	eax
	test	eax, eax
	jg	SHORT $LL122@Timer_Expi@5

; 308  : 
; 309  : 					delete []Name;

	mov	eax, DWORD PTR _Name$111647[esp+3192]
	push	eax
	call	DWORD PTR ?RenVecDelete@@3P6AXPAX@ZA	; RenVecDelete

; 310  : 					
; 311  : 					t_Client->SendData((const char *)&PlayersUpdate, PlayersUpdate.GetSize());

	movzx	ecx, BYTE PTR _PlayersUpdate$111648[esp+3196]
	add	esp, 4
	add	ecx, 8
	push	ecx
	mov	ecx, DWORD PTR ?t_Client@@3PAVTCPSocket@@A ; t_Client
	lea	edx, DWORD PTR _PlayersUpdate$111648[esp+3196]
	push	edx
	call	?SendData@TCPSocket@@QAE_NPBDH@Z	; TCPSocket::SendData
	mov	esi, DWORD PTR _x$111600[esp+3192]
$LN17@Timer_Expi@5:
	mov	esi, DWORD PTR [esi]
	mov	DWORD PTR _x$111600[esp+3192], esi
	test	esi, esi
	jne	$LL18@Timer_Expi@5
$LN16@Timer_Expi@5:

; 312  : 				}
; 313  : 			}
; 314  : 
; 315  : 			for(GenericSLNode *x = BaseGameObjList->HeadNode; x != 0; x = x->NodeNext)

	mov	eax, DWORD PTR ?BaseGameObjList@@3PAV?$SList@E@@A ; BaseGameObjList
	mov	eax, DWORD PTR [eax+4]
	mov	DWORD PTR _x$111663[esp+3192], eax
	test	eax, eax
	je	$LN12@Timer_Expi@5
$LL14@Timer_Expi@5:

; 316  : 			{
; 317  : 				GameObject *o = As_VehicleGameObj((GameObject *)x->NodeData);

	mov	ecx, DWORD PTR _x$111663[esp+3192]
	mov	esi, DWORD PTR [ecx+4]
	mov	edx, DWORD PTR ?Commands@@3PAUScriptCommands@@A ; Commands
	mov	eax, DWORD PTR [edx+108]
	push	esi
	call	eax
	add	esp, 4
	test	eax, eax
	je	$LN13@Timer_Expi@5
	test	esi, esi
	je	$LN13@Timer_Expi@5
	mov	edx, DWORD PTR [esi]
	mov	eax, DWORD PTR [edx+40]
	mov	ecx, esi
	call	eax
	mov	ebx, eax

; 318  : 				if(!o)

	test	ebx, ebx
	je	$LN13@Timer_Expi@5

; 319  : 				{
; 320  : 					continue;
; 321  : 				}
; 322  : 
; 323  : 				if(Get_Vehicle_Mode(o) == 4)

	call	?Get_Vehicle_Mode@@YAIPAE@Z		; Get_Vehicle_Mode
	cmp	eax, 4
	je	$LN13@Timer_Expi@5

; 324  : 				{
; 325  : 					continue;
; 326  : 				}
; 327  : 
; 328  : 				
; 329  : 				Vector3 pos = Commands->Get_Position(o);

	mov	edx, DWORD PTR ?Commands@@3PAUScriptCommands@@A ; Commands
	mov	eax, DWORD PTR [edx+64]
	lea	ecx, DWORD PTR $T161228[esp+3192]
	push	ebx
	push	ecx
	call	eax
	mov	ecx, DWORD PTR [eax]
	mov	edx, DWORD PTR [eax+4]
	mov	eax, DWORD PTR [eax+8]

; 330  : 				SEye::SEyePacket VehicleUpdate;

	push	514					; 00000202H
	mov	DWORD PTR _pos$111711[esp+3204], ecx
	lea	ecx, DWORD PTR _VehicleUpdate$111713[esp+3204]
	push	0
	push	ecx
	mov	DWORD PTR _pos$111711[esp+3216], edx
	mov	DWORD PTR _pos$111711[esp+3220], eax
	call	_memset

; 331  : 				VehicleUpdate.SetType(3);
; 332  : 				
; 333  : 				VehicleUpdate.Pack_String(Commands->Get_Preset_Name(o));

	mov	edx, DWORD PTR ?Commands@@3PAUScriptCommands@@A ; Commands
	add	esp, 20					; 00000014H
	mov	BYTE PTR _VehicleUpdate$111713[esp+3193], 3
	mov	eax, DWORD PTR [edx+116]
	push	ebx
	call	eax
	add	esp, 4
	mov	esi, eax
	lea	ecx, DWORD PTR _VehicleUpdate$111713[esp+3192]
	call	?Pack_String@SEyePacket@SEye@@QAEXPBD@Z	; SEye::SEyePacket::Pack_String

; 334  : 				VehicleUpdate.Pack<float>(pos.Y);

	fld	DWORD PTR _pos$111711[esp+3196]
	mov	eax, 4
	fstp	DWORD PTR $T161402[esp+3192]
	lea	ecx, DWORD PTR $T161402[esp+3195]
	sub	ecx, eax
	npad	4
$LL141@Timer_Expi@5:
	movzx	edx, BYTE PTR _VehicleUpdate$111713[esp+3192]
	mov	DWORD PTR tv1746[esp+3192], ecx
	mov	cl, BYTE PTR [ecx+eax]
	mov	BYTE PTR _VehicleUpdate$111713[esp+edx+3194], cl
	inc	BYTE PTR _VehicleUpdate$111713[esp+3192]
	mov	ecx, DWORD PTR tv1746[esp+3192]
	dec	eax
	test	eax, eax
	jg	SHORT $LL141@Timer_Expi@5

; 335  : 				VehicleUpdate.Pack<float>(pos.X);

	fld	DWORD PTR _pos$111711[esp+3192]
	mov	eax, 4
	lea	esi, DWORD PTR $T161418[esp+3195]
	fstp	DWORD PTR $T161418[esp+3192]
	sub	esi, eax
	npad	7
$LL148@Timer_Expi@5:
	movzx	ecx, BYTE PTR _VehicleUpdate$111713[esp+3192]
	mov	dl, BYTE PTR [esi+eax]
	mov	BYTE PTR _VehicleUpdate$111713[esp+ecx+3194], dl
	inc	BYTE PTR _VehicleUpdate$111713[esp+3192]
	dec	eax
	test	eax, eax
	jg	SHORT $LL148@Timer_Expi@5

; 336  : 				VehicleUpdate.Pack<unsigned int>(int(Commands->Get_Max_Health(o)+Commands->Get_Max_Shield_Strength(o)));

	mov	eax, DWORD PTR ?Commands@@3PAUScriptCommands@@A ; Commands
	mov	ecx, DWORD PTR [eax+236]
	push	ebx
	call	ecx
	fstp	DWORD PTR tv1745[esp+3196]
	mov	edx, DWORD PTR ?Commands@@3PAUScriptCommands@@A ; Commands
	mov	eax, DWORD PTR [edx+224]
	add	esp, 4
	push	ebx
	call	eax
	fadd	DWORD PTR tv1745[esp+3196]
	fnstcw	WORD PTR tv1899[esp+3196]
	lea	esi, DWORD PTR $T161434[esp+3199]
	movzx	eax, WORD PTR tv1899[esp+3196]
	or	eax, 3072				; 00000c00H
	mov	DWORD PTR tv1896[esp+3196], eax
	mov	eax, 4
	fldcw	WORD PTR tv1896[esp+3196]
	add	esp, 4
	sub	esi, eax
	fistp	QWORD PTR tv1894[esp+3192]
	mov	ecx, DWORD PTR tv1894[esp+3192]
	mov	DWORD PTR $T161434[esp+3192], ecx
	fldcw	WORD PTR tv1899[esp+3192]
	npad	6
$LL155@Timer_Expi@5:
	movzx	edx, BYTE PTR _VehicleUpdate$111713[esp+3192]
	mov	cl, BYTE PTR [esi+eax]
	mov	BYTE PTR _VehicleUpdate$111713[esp+edx+3194], cl
	inc	BYTE PTR _VehicleUpdate$111713[esp+3192]
	dec	eax
	test	eax, eax
	jg	SHORT $LL155@Timer_Expi@5

; 337  : 				VehicleUpdate.Pack<char>((char)Get_Object_Type(o));

	mov	edx, DWORD PTR ?Commands@@3PAUScriptCommands@@A ; Commands
	mov	eax, DWORD PTR [edx+108]
	push	ebx
	call	eax
	add	esp, 4
	test	eax, eax
	je	SHORT $LN159@Timer_Expi@5
	mov	edx, DWORD PTR [ebx]
	mov	eax, DWORD PTR [edx+60]
	mov	ecx, ebx
	call	eax
	test	eax, eax
	je	SHORT $LN159@Timer_Expi@5
	mov	eax, DWORD PTR [eax+1892]
	jmp	SHORT $LN161@Timer_Expi@5
$LN159@Timer_Expi@5:
	xor	eax, eax
$LN161@Timer_Expi@5:
	movzx	ecx, BYTE PTR _VehicleUpdate$111713[esp+3192]

; 338  : 				VehicleUpdate.Pack<unsigned int>(Commands->Get_ID(o));

	mov	edx, DWORD PTR ?Commands@@3PAUScriptCommands@@A ; Commands
	mov	BYTE PTR _VehicleUpdate$111713[esp+ecx+3194], al
	inc	BYTE PTR _VehicleUpdate$111713[esp+3192]
	mov	eax, DWORD PTR [edx+108]
	push	ebx
	call	eax
	mov	DWORD PTR $T161474[esp+3196], eax
	mov	eax, 4
	lea	ecx, DWORD PTR $T161474[esp+3199]
	add	esp, 4
	sub	ecx, eax
	npad	4
$LL174@Timer_Expi@5:
	movzx	edx, BYTE PTR _VehicleUpdate$111713[esp+3192]
	mov	DWORD PTR tv1743[esp+3192], ecx
	mov	cl, BYTE PTR [ecx+eax]
	mov	BYTE PTR _VehicleUpdate$111713[esp+edx+3194], cl
	inc	BYTE PTR _VehicleUpdate$111713[esp+3192]
	mov	ecx, DWORD PTR tv1743[esp+3192]
	dec	eax
	test	eax, eax
	jg	SHORT $LL174@Timer_Expi@5

; 339  : 
; 340  : 				t_Client->SendData((const char *)&VehicleUpdate, VehicleUpdate.GetSize());

	movzx	eax, BYTE PTR _VehicleUpdate$111713[esp+3192]
	add	eax, 8
	push	eax
	lea	ecx, DWORD PTR _VehicleUpdate$111713[esp+3196]
	push	ecx
	mov	ecx, DWORD PTR ?t_Client@@3PAVTCPSocket@@A ; t_Client
	call	?SendData@TCPSocket@@QAE_NPBDH@Z	; TCPSocket::SendData

; 341  : 
; 342  : 
; 343  : 				GameObject *driver = Get_Vehicle_Driver(o);

	mov	esi, ebx
	call	?Get_Vehicle_Driver@@YAPAEPAE@Z		; Get_Vehicle_Driver
	mov	esi, eax

; 344  : 				if(driver)

	test	esi, esi
	je	SHORT $LN9@Timer_Expi@5

; 345  : 				{
; 346  : 					SEye::SEyePacket VehicleEntered;

	push	514					; 00000202H
	lea	edx, DWORD PTR _VehicleEntered$111729[esp+3196]
	push	0
	push	edx
	call	_memset

; 347  : 					VehicleEntered.SetType(14);
; 348  : 					VehicleEntered.Pack<unsigned int> (Commands->Get_ID(driver));

	mov	eax, DWORD PTR ?Commands@@3PAUScriptCommands@@A ; Commands
	mov	ecx, DWORD PTR [eax+108]
	add	esp, 12					; 0000000cH
	push	esi
	mov	BYTE PTR _VehicleEntered$111729[esp+3197], 14 ; 0000000eH
	call	ecx
	add	esp, 4
	push	eax
	lea	eax, DWORD PTR _VehicleEntered$111729[esp+3196]
	call	??$Pack@I@SEyePacket@SEye@@QAEXI@Z	; SEye::SEyePacket::Pack<unsigned int>

; 349  : 					VehicleEntered.Pack<unsigned int> (Commands->Get_ID(o));

	mov	edx, DWORD PTR ?Commands@@3PAUScriptCommands@@A ; Commands
	mov	eax, DWORD PTR [edx+108]
	push	ebx
	call	eax
	add	esp, 4
	push	eax
	lea	eax, DWORD PTR _VehicleEntered$111729[esp+3196]
	call	??$Pack@I@SEyePacket@SEye@@QAEXI@Z	; SEye::SEyePacket::Pack<unsigned int>

; 350  : 					t_Client->SendData((const char *)&VehicleEntered, VehicleEntered.GetSize());

	movzx	ecx, BYTE PTR _VehicleEntered$111729[esp+3192]
	add	ecx, 8
	push	ecx
	mov	ecx, DWORD PTR ?t_Client@@3PAVTCPSocket@@A ; t_Client
	lea	edx, DWORD PTR _VehicleEntered$111729[esp+3196]
	push	edx
	call	?SendData@TCPSocket@@QAE_NPBDH@Z	; TCPSocket::SendData
$LN9@Timer_Expi@5:

; 351  : 				}
; 352  : 
; 353  : 				for(int y = 0; y < 4; y++)

	mov	DWORD PTR _y$111733[esp+3192], 0
	npad	1
$LL8@Timer_Expi@5:

; 354  : 				{
; 355  : 					GameObject *occ = Get_Vehicle_Occupant(o, y);

	mov	eax, DWORD PTR ?Commands@@3PAUScriptCommands@@A ; Commands
	mov	ecx, DWORD PTR [eax+108]
	push	ebx
	call	ecx
	add	esp, 4
	test	eax, eax
	je	$LN7@Timer_Expi@5
	mov	edx, DWORD PTR ?Commands@@3PAUScriptCommands@@A ; Commands
	mov	eax, DWORD PTR [edx+108]
	push	ebx
	call	eax
	add	esp, 4
	test	eax, eax
	je	$LN7@Timer_Expi@5
	mov	edx, DWORD PTR [ebx]
	mov	eax, DWORD PTR [edx+40]
	mov	ecx, ebx
	call	eax
	test	eax, eax
	je	$LN7@Timer_Expi@5
	mov	ecx, DWORD PTR _y$111733[esp+3192]
	cmp	ecx, DWORD PTR [ebx+2484]
	mov	eax, DWORD PTR [ebx+2480]
	jge	$LN7@Timer_Expi@5
	mov	edx, ecx
	mov	esi, DWORD PTR [eax+edx*4]

; 356  : 					if(occ)

	test	esi, esi
	je	$LN7@Timer_Expi@5

; 357  : 					{
; 358  : 						SEye::SEyePacket VehicleEntered;

	push	514					; 00000202H
	lea	eax, DWORD PTR _VehicleEntered$111739[esp+3196]
	push	0
	push	eax
	call	_memset

; 359  : 						VehicleEntered.SetType(14);
; 360  : 						VehicleEntered.Pack<unsigned int> (Commands->Get_ID(occ));

	mov	ecx, DWORD PTR ?Commands@@3PAUScriptCommands@@A ; Commands
	mov	edx, DWORD PTR [ecx+108]
	add	esp, 12					; 0000000cH
	push	esi
	mov	BYTE PTR _VehicleEntered$111739[esp+3197], 14 ; 0000000eH
	call	edx
	mov	DWORD PTR $T161557[esp+3196], eax
	mov	eax, 4
	lea	ecx, DWORD PTR $T161557[esp+3199]
	add	esp, 4
	sub	ecx, eax
	npad	2
$LL213@Timer_Expi@5:
	movzx	edx, BYTE PTR _VehicleEntered$111739[esp+3192]
	mov	DWORD PTR tv1742[esp+3192], ecx
	mov	cl, BYTE PTR [ecx+eax]
	mov	BYTE PTR _VehicleEntered$111739[esp+edx+3194], cl
	inc	BYTE PTR _VehicleEntered$111739[esp+3192]
	mov	ecx, DWORD PTR tv1742[esp+3192]
	dec	eax
	test	eax, eax
	jg	SHORT $LL213@Timer_Expi@5

; 361  : 						VehicleEntered.Pack<unsigned int> (Commands->Get_ID(o));

	mov	eax, DWORD PTR ?Commands@@3PAUScriptCommands@@A ; Commands
	mov	ecx, DWORD PTR [eax+108]
	push	ebx
	call	ecx
	mov	DWORD PTR $T161573[esp+3196], eax
	mov	eax, 4
	lea	ecx, DWORD PTR $T161573[esp+3199]
	add	esp, 4
	sub	ecx, eax
	npad	13
$LL220@Timer_Expi@5:
	movzx	edx, BYTE PTR _VehicleEntered$111739[esp+3192]
	mov	DWORD PTR tv1741[esp+3192], ecx
	mov	cl, BYTE PTR [ecx+eax]
	mov	BYTE PTR _VehicleEntered$111739[esp+edx+3194], cl
	inc	BYTE PTR _VehicleEntered$111739[esp+3192]
	mov	ecx, DWORD PTR tv1741[esp+3192]
	dec	eax
	test	eax, eax
	jg	SHORT $LL220@Timer_Expi@5

; 362  : 						t_Client->SendData((const char *)&VehicleEntered, VehicleEntered.GetSize());

	movzx	esi, BYTE PTR _VehicleEntered$111739[esp+3192]
	mov	eax, DWORD PTR ?t_Client@@3PAVTCPSocket@@A ; t_Client
	add	esi, 8
	mov	edi, eax
	call	?Is_Connected@TCPSocket@@QAE_NXZ	; TCPSocket::Is_Connected
	test	al, al
	je	SHORT $LN7@Timer_Expi@5
	mov	ecx, DWORD PTR [edi]
	push	0
	push	esi
	lea	eax, DWORD PTR _VehicleEntered$111739[esp+3200]
	push	eax
	push	ecx
	call	DWORD PTR __imp__send@16
	cmp	eax, esi
	je	SHORT $LN7@Timer_Expi@5
	cmp	eax, -1
	je	SHORT $LN7@Timer_Expi@5
	sub	esi, eax
	push	esi
	lea	edx, DWORD PTR _VehicleEntered$111739[esp+eax+3196]
	push	edx
	mov	ecx, edi
	call	?SendData@TCPSocket@@QAE_NPBDH@Z	; TCPSocket::SendData
$LN7@Timer_Expi@5:
	mov	eax, DWORD PTR _y$111733[esp+3192]
	inc	eax
	cmp	eax, 4
	mov	DWORD PTR _y$111733[esp+3192], eax
	jl	$LL8@Timer_Expi@5
$LN13@Timer_Expi@5:

; 312  : 				}
; 313  : 			}
; 314  : 
; 315  : 			for(GenericSLNode *x = BaseGameObjList->HeadNode; x != 0; x = x->NodeNext)

	mov	eax, DWORD PTR _x$111663[esp+3192]
	mov	eax, DWORD PTR [eax]
	mov	DWORD PTR _x$111663[esp+3192], eax
	test	eax, eax
	jne	$LL14@Timer_Expi@5
$LN12@Timer_Expi@5:

; 363  : 					}
; 364  : 				}
; 365  : 
; 366  : 			}
; 367  : 
; 368  : 			for(GenericSLNode *x = BuildingGameObjList->HeadNode; x != 0; x = x->NodeNext)

	mov	ecx, DWORD PTR ?BuildingGameObjList@@3PAV?$SList@E@@A ; BuildingGameObjList
	mov	eax, DWORD PTR [ecx+4]
	mov	DWORD PTR _x$111743[esp+3192], eax
	test	eax, eax
	je	$LN2@Timer_Expi@5
$LN4@Timer_Expi@5:

; 369  : 			{
; 370  : 				GameObject *o = (GameObject *)x->NodeData;

	mov	edx, DWORD PTR _x$111743[esp+3192]
	mov	esi, DWORD PTR [edx+4]

; 371  : 				if(!o)

	test	esi, esi
	je	$LN3@Timer_Expi@5

; 372  : 				{
; 373  : 					continue;
; 374  : 				}
; 375  : 				Vector3 pos = Commands->Get_Position(o);

	mov	ecx, DWORD PTR ?Commands@@3PAUScriptCommands@@A ; Commands
	mov	edx, DWORD PTR [ecx+64]
	lea	eax, DWORD PTR $T161229[esp+3192]
	push	esi
	push	eax
	call	edx
	mov	ecx, DWORD PTR [eax]
	mov	edx, DWORD PTR [eax+4]
	mov	eax, DWORD PTR [eax+8]
	mov	DWORD PTR _pos$111750[esp+3200], ecx

; 376  : 				unsigned int nHP = int(Commands->Get_Max_Health(o)+Commands->Get_Max_Shield_Strength(o));

	mov	ecx, DWORD PTR ?Commands@@3PAUScriptCommands@@A ; Commands
	mov	DWORD PTR _pos$111750[esp+3204], edx
	mov	edx, DWORD PTR [ecx+236]
	push	esi
	mov	DWORD PTR _pos$111750[esp+3212], eax
	call	edx
	fstp	DWORD PTR tv1740[esp+3204]
	mov	eax, DWORD PTR ?Commands@@3PAUScriptCommands@@A ; Commands
	mov	ecx, DWORD PTR [eax+224]
	add	esp, 12					; 0000000cH
	push	esi
	call	ecx
	fadd	DWORD PTR tv1740[esp+3196]
	fnstcw	WORD PTR tv1838[esp+3196]
	add	esp, 4
	movzx	eax, WORD PTR tv1838[esp+3192]
	or	eax, 3072				; 00000c00H
	mov	DWORD PTR tv1835[esp+3192], eax

; 377  : 				SEye::SEyePacket BuildingUpdate;

	push	514					; 00000202H
	fldcw	WORD PTR tv1835[esp+3196]
	lea	edx, DWORD PTR _BuildingUpdate$111753[esp+3196]
	push	0
	push	edx
	fistp	QWORD PTR tv1833[esp+3204]
	mov	ebx, DWORD PTR tv1833[esp+3204]
	fldcw	WORD PTR tv1838[esp+3204]
	call	_memset

; 378  : 				BuildingUpdate.SetType(4);
; 379  : 				
; 380  : 				BuildingUpdate.Pack_String (Commands->Get_Preset_Name(o));

	mov	eax, DWORD PTR ?Commands@@3PAUScriptCommands@@A ; Commands
	add	esp, 12					; 0000000cH
	mov	BYTE PTR _BuildingUpdate$111753[esp+3193], 4
	mov	ecx, DWORD PTR [eax+116]
	push	esi
	call	ecx
	mov	ecx, eax
	add	esp, 4
	lea	edi, DWORD PTR [ecx+1]
$LL341@Timer_Expi@5:
	mov	dl, BYTE PTR [ecx]
	inc	ecx
	test	dl, dl
	jne	SHORT $LL341@Timer_Expi@5
	sub	ecx, edi
	inc	ecx
	test	ecx, ecx
	jle	SHORT $LN237@Timer_Expi@5
	npad	12
$LL239@Timer_Expi@5:
